ARM GAS  C:\Users\jcjco\AppData\Local\Temp\cc6lIF5P.s 			page 1


   1              		.cpu cortex-m7
   2              		.eabi_attribute 28, 1
   3              		.eabi_attribute 20, 1
   4              		.eabi_attribute 21, 1
   5              		.eabi_attribute 23, 3
   6              		.eabi_attribute 24, 1
   7              		.eabi_attribute 25, 1
   8              		.eabi_attribute 26, 1
   9              		.eabi_attribute 30, 2
  10              		.eabi_attribute 34, 1
  11              		.eabi_attribute 18, 4
  12              		.file	"main.cpp"
  13              		.text
  14              	.Ltext0:
  15              		.cfi_sections	.debug_frame
  16              		.section	.text._ZN5daisy9DaisySeedD2Ev,"axG",%progbits,_ZN5daisy9DaisySeedD5Ev,comdat
  17              		.align	1
  18              		.p2align 2,,3
  19              		.weak	_ZN5daisy9DaisySeedD2Ev
  20              		.arch armv7e-m
  21              		.syntax unified
  22              		.thumb
  23              		.thumb_func
  24              		.fpu fpv5-d16
  26              	_ZN5daisy9DaisySeedD2Ev:
  27              	.LVL0:
  28              	.LFB2528:
  29              		.file 1 "../../libDaisy/src/daisy_seed.h"
   1:../../libDaisy/src/daisy_seed.h **** #pragma once
   2:../../libDaisy/src/daisy_seed.h **** #ifndef DSY_SEED_H
   3:../../libDaisy/src/daisy_seed.h **** #define DSY_SEED_H
   4:../../libDaisy/src/daisy_seed.h **** 
   5:../../libDaisy/src/daisy_seed.h **** #include "daisy.h"
   6:../../libDaisy/src/daisy_seed.h **** 
   7:../../libDaisy/src/daisy_seed.h **** //Uncomment this out if you're still using the rev2 hardware
   8:../../libDaisy/src/daisy_seed.h **** //#define SEED_REV2
   9:../../libDaisy/src/daisy_seed.h **** 
  10:../../libDaisy/src/daisy_seed.h **** namespace daisy
  11:../../libDaisy/src/daisy_seed.h **** {
  12:../../libDaisy/src/daisy_seed.h **** /**
  13:../../libDaisy/src/daisy_seed.h ****    @brief This is the higher-level interface for the Daisy board. \n 
  14:../../libDaisy/src/daisy_seed.h ****     All basic peripheral configuration/initialization is setup here. \n
  15:../../libDaisy/src/daisy_seed.h **** 
  16:../../libDaisy/src/daisy_seed.h ****    @ingroup boards
  17:../../libDaisy/src/daisy_seed.h **** */
  18:../../libDaisy/src/daisy_seed.h **** class DaisySeed
  19:../../libDaisy/src/daisy_seed.h **** {
  20:../../libDaisy/src/daisy_seed.h ****   public:
  21:../../libDaisy/src/daisy_seed.h ****     DaisySeed() {}
  22:../../libDaisy/src/daisy_seed.h ****     ~DaisySeed() {}
  30              		.loc 1 22 5 view -0
  31              		.cfi_startproc
  32              		@ args = 0, pretend = 0, frame = 0
  33              		@ frame_needed = 0, uses_anonymous_args = 0
  34              		@ link register save eliminated.
  35              	.LBB238:
  36              	.LBI238:
ARM GAS  C:\Users\jcjco\AppData\Local\Temp\cc6lIF5P.s 			page 2


  37              		.file 2 "../../libDaisy/src/sys/system.h"
   1:../../libDaisy/src/sys/system.h **** #ifndef DSY_SYSTEM_H
   2:../../libDaisy/src/sys/system.h **** #define DSY_SYSTEM_H
   3:../../libDaisy/src/sys/system.h **** 
   4:../../libDaisy/src/sys/system.h **** #ifndef UNIT_TEST // for unit tests, a dummy implementation is provided below
   5:../../libDaisy/src/sys/system.h **** 
   6:../../libDaisy/src/sys/system.h **** #include <cstdint>
   7:../../libDaisy/src/sys/system.h **** #include "per/tim.h"
   8:../../libDaisy/src/sys/system.h **** 
   9:../../libDaisy/src/sys/system.h **** namespace daisy
  10:../../libDaisy/src/sys/system.h **** {
  11:../../libDaisy/src/sys/system.h **** /** A handle for interacting with the Core System. 
  12:../../libDaisy/src/sys/system.h ****  ** This includes the Clock tree, MPU, global DMA initialization,
  13:../../libDaisy/src/sys/system.h ****  ** cache handling, and any other necessary global initiailzation
  14:../../libDaisy/src/sys/system.h ****  **
  15:../../libDaisy/src/sys/system.h ****  ** @author shensley
  16:../../libDaisy/src/sys/system.h ****  ** @ingroup system
  17:../../libDaisy/src/sys/system.h ****  */
  18:../../libDaisy/src/sys/system.h **** class System
  19:../../libDaisy/src/sys/system.h **** {
  20:../../libDaisy/src/sys/system.h ****   public:
  21:../../libDaisy/src/sys/system.h ****     /** Contains settings for initializing the System */
  22:../../libDaisy/src/sys/system.h ****     struct Config
  23:../../libDaisy/src/sys/system.h ****     {
  24:../../libDaisy/src/sys/system.h ****         /** Specifies the system clock frequency that feeds APB/AHB clocks, etc. */
  25:../../libDaisy/src/sys/system.h ****         enum class SysClkFreq
  26:../../libDaisy/src/sys/system.h ****         {
  27:../../libDaisy/src/sys/system.h ****             FREQ_400MHZ,
  28:../../libDaisy/src/sys/system.h ****             FREQ_480MHZ,
  29:../../libDaisy/src/sys/system.h ****         };
  30:../../libDaisy/src/sys/system.h **** 
  31:../../libDaisy/src/sys/system.h ****         /** Method to call on the struct to set to defaults
  32:../../libDaisy/src/sys/system.h ****          ** CPU Freq set to 400MHz
  33:../../libDaisy/src/sys/system.h ****          ** Cache Enabled 
  34:../../libDaisy/src/sys/system.h ****          ** */
  35:../../libDaisy/src/sys/system.h ****         void Defaults()
  36:../../libDaisy/src/sys/system.h ****         {
  37:../../libDaisy/src/sys/system.h ****             cpu_freq    = SysClkFreq::FREQ_400MHZ;
  38:../../libDaisy/src/sys/system.h ****             use_dcache  = true;
  39:../../libDaisy/src/sys/system.h ****             use_icache  = true;
  40:../../libDaisy/src/sys/system.h ****             skip_clocks = false;
  41:../../libDaisy/src/sys/system.h ****         }
  42:../../libDaisy/src/sys/system.h **** 
  43:../../libDaisy/src/sys/system.h ****         /** Method to call on the struct to set to boost mode:
  44:../../libDaisy/src/sys/system.h ****          ** CPU Freq set to 480MHz
  45:../../libDaisy/src/sys/system.h ****          ** Cache Enabled 
  46:../../libDaisy/src/sys/system.h ****          ** */
  47:../../libDaisy/src/sys/system.h ****         void Boost()
  48:../../libDaisy/src/sys/system.h ****         {
  49:../../libDaisy/src/sys/system.h ****             cpu_freq    = SysClkFreq::FREQ_480MHZ;
  50:../../libDaisy/src/sys/system.h ****             use_dcache  = true;
  51:../../libDaisy/src/sys/system.h ****             use_icache  = true;
  52:../../libDaisy/src/sys/system.h ****             skip_clocks = false;
  53:../../libDaisy/src/sys/system.h ****         }
  54:../../libDaisy/src/sys/system.h **** 
  55:../../libDaisy/src/sys/system.h ****         SysClkFreq cpu_freq;
  56:../../libDaisy/src/sys/system.h ****         bool       use_dcache;
ARM GAS  C:\Users\jcjco\AppData\Local\Temp\cc6lIF5P.s 			page 3


  57:../../libDaisy/src/sys/system.h ****         bool       use_icache;
  58:../../libDaisy/src/sys/system.h ****         bool       skip_clocks;
  59:../../libDaisy/src/sys/system.h ****     };
  60:../../libDaisy/src/sys/system.h **** 
  61:../../libDaisy/src/sys/system.h ****     /** Describes the different regions of memory available to the Daisy
  62:../../libDaisy/src/sys/system.h ****      * 
  63:../../libDaisy/src/sys/system.h ****      */
  64:../../libDaisy/src/sys/system.h ****     enum MemoryRegion
  65:../../libDaisy/src/sys/system.h ****     {
  66:../../libDaisy/src/sys/system.h ****         INTERNAL_FLASH = 0,
  67:../../libDaisy/src/sys/system.h ****         ITCMRAM,
  68:../../libDaisy/src/sys/system.h ****         DTCMRAM,
  69:../../libDaisy/src/sys/system.h ****         SRAM_D1,
  70:../../libDaisy/src/sys/system.h ****         SRAM_D2,
  71:../../libDaisy/src/sys/system.h ****         SRAM_D3,
  72:../../libDaisy/src/sys/system.h ****         SDRAM,
  73:../../libDaisy/src/sys/system.h ****         QSPI,
  74:../../libDaisy/src/sys/system.h ****         INVALID_ADDRESS,
  75:../../libDaisy/src/sys/system.h ****     };
  76:../../libDaisy/src/sys/system.h **** 
  77:../../libDaisy/src/sys/system.h ****     System() {}
  78:../../libDaisy/src/sys/system.h ****     ~System() {}
  38              		.loc 2 78 5 view .LVU1
  39              		.loc 2 78 5 is_stmt 0 view .LVU2
  40              	.LBE238:
  41              	.LBB239:
  42              	.LBI239:
  43              		.file 3 "../../libDaisy/src/hid/usb.h"
   1:../../libDaisy/src/hid/usb.h **** #pragma once
   2:../../libDaisy/src/hid/usb.h **** #ifndef DSY_HID_USB_H
   3:../../libDaisy/src/hid/usb.h **** #define DSY_HID_USB_H
   4:../../libDaisy/src/hid/usb.h **** #include <stdint.h>
   5:../../libDaisy/src/hid/usb.h **** #include <stdlib.h>
   6:../../libDaisy/src/hid/usb.h **** 
   7:../../libDaisy/src/hid/usb.h **** namespace daisy
   8:../../libDaisy/src/hid/usb.h **** /** @addtogroup human_interface
   9:../../libDaisy/src/hid/usb.h ****     @{
  10:../../libDaisy/src/hid/usb.h **** */
  11:../../libDaisy/src/hid/usb.h **** 
  12:../../libDaisy/src/hid/usb.h **** {
  13:../../libDaisy/src/hid/usb.h **** /** 
  14:../../libDaisy/src/hid/usb.h ****     @brief Interface for initializing and using the USB Peripherals on the daisy
  15:../../libDaisy/src/hid/usb.h ****     @author Stephen Hensley
  16:../../libDaisy/src/hid/usb.h ****     @date December 2019
  17:../../libDaisy/src/hid/usb.h **** */
  18:../../libDaisy/src/hid/usb.h **** class UsbHandle
  19:../../libDaisy/src/hid/usb.h **** {
  20:../../libDaisy/src/hid/usb.h ****   public:
  21:../../libDaisy/src/hid/usb.h ****     /** Return values for USBHandle Functions */
  22:../../libDaisy/src/hid/usb.h ****     enum class Result
  23:../../libDaisy/src/hid/usb.h ****     {
  24:../../libDaisy/src/hid/usb.h ****         OK,
  25:../../libDaisy/src/hid/usb.h ****         ERR,
  26:../../libDaisy/src/hid/usb.h ****     };
  27:../../libDaisy/src/hid/usb.h **** 
  28:../../libDaisy/src/hid/usb.h ****     /** Specified which of the two USB Peripherals to initialize. */
  29:../../libDaisy/src/hid/usb.h ****     enum UsbPeriph
ARM GAS  C:\Users\jcjco\AppData\Local\Temp\cc6lIF5P.s 			page 4


  30:../../libDaisy/src/hid/usb.h ****     {
  31:../../libDaisy/src/hid/usb.h ****         FS_INTERNAL, /**< Internal pin */
  32:../../libDaisy/src/hid/usb.h ****         FS_EXTERNAL, /**< FS External D+ pin is Pin 38 (GPIO32). FS External D- pin is Pin 37 (GPIO
  33:../../libDaisy/src/hid/usb.h ****         FS_BOTH,     /**< Both */
  34:../../libDaisy/src/hid/usb.h ****     };
  35:../../libDaisy/src/hid/usb.h **** 
  36:../../libDaisy/src/hid/usb.h **** 
  37:../../libDaisy/src/hid/usb.h ****     /** Function called upon reception of a buffer */
  38:../../libDaisy/src/hid/usb.h ****     typedef void (*ReceiveCallback)(uint8_t* buff, uint32_t* len);
  39:../../libDaisy/src/hid/usb.h **** 
  40:../../libDaisy/src/hid/usb.h ****     UsbHandle() {}
  41:../../libDaisy/src/hid/usb.h **** 
  42:../../libDaisy/src/hid/usb.h ****     ~UsbHandle() {}
  44              		.loc 3 42 5 is_stmt 1 view .LVU3
  45              		.loc 3 42 5 is_stmt 0 view .LVU4
  46              	.LBE239:
  47              	.LBB240:
  48              	.LBI240:
  49              		.file 4 "../../libDaisy/src/per/adc.h"
   1:../../libDaisy/src/per/adc.h **** #pragma once
   2:../../libDaisy/src/per/adc.h **** #ifndef DSY_ADC_H
   3:../../libDaisy/src/per/adc.h **** #define DSY_ADC_H /**< Macro */
   4:../../libDaisy/src/per/adc.h **** #include <stdint.h>
   5:../../libDaisy/src/per/adc.h **** #include <stdlib.h>
   6:../../libDaisy/src/per/adc.h **** #include "daisy_core.h"
   7:../../libDaisy/src/per/adc.h **** #include "per/gpio.h"
   8:../../libDaisy/src/per/adc.h **** 
   9:../../libDaisy/src/per/adc.h **** #define DSY_ADC_MAX_CHANNELS 16 /**< Maximum number of ADC channels */
  10:../../libDaisy/src/per/adc.h **** 
  11:../../libDaisy/src/per/adc.h **** namespace daisy
  12:../../libDaisy/src/per/adc.h **** {
  13:../../libDaisy/src/per/adc.h **** /** @addtogroup per_analog
  14:../../libDaisy/src/per/adc.h ****     @{
  15:../../libDaisy/src/per/adc.h **** */
  16:../../libDaisy/src/per/adc.h **** 
  17:../../libDaisy/src/per/adc.h **** /* While there may not be many configuration options here,
  18:../../libDaisy/src/per/adc.h **** using a struct like this allows us to add more configuration
  19:../../libDaisy/src/per/adc.h **** later without breaking existing functionality.
  20:../../libDaisy/src/per/adc.h **** */
  21:../../libDaisy/src/per/adc.h **** 
  22:../../libDaisy/src/per/adc.h **** /** @brief   Configuration Structure for an ADC Channel 
  23:../../libDaisy/src/per/adc.h ****  *  @details This can be used to configure a a single input, 
  24:../../libDaisy/src/per/adc.h ****  *           or a multiplexed input, allowing up to 8 inputs on 
  25:../../libDaisy/src/per/adc.h ****  *           one channel.
  26:../../libDaisy/src/per/adc.h ****  *  @note    Sharing data lines to multiple muxes _is_ possible, but
  27:../../libDaisy/src/per/adc.h ****  *           each channel sharing data lines must be set to the maximum
  28:../../libDaisy/src/per/adc.h ****  *           number of channels, even if some multiplexers have fewer
  29:../../libDaisy/src/per/adc.h ****  *           inputs connected.
  30:../../libDaisy/src/per/adc.h **** */
  31:../../libDaisy/src/per/adc.h **** struct AdcChannelConfig
  32:../../libDaisy/src/per/adc.h **** {
  33:../../libDaisy/src/per/adc.h ****     /** Which pin to use for multiplexing */
  34:../../libDaisy/src/per/adc.h ****     enum MuxPin
  35:../../libDaisy/src/per/adc.h ****     {
  36:../../libDaisy/src/per/adc.h ****         MUX_SEL_0,    /**< & */
  37:../../libDaisy/src/per/adc.h ****         MUX_SEL_1,    /**< & */
  38:../../libDaisy/src/per/adc.h ****         MUX_SEL_2,    /**< & */
ARM GAS  C:\Users\jcjco\AppData\Local\Temp\cc6lIF5P.s 			page 5


  39:../../libDaisy/src/per/adc.h ****         MUX_SEL_LAST, /**< & */
  40:../../libDaisy/src/per/adc.h ****     };
  41:../../libDaisy/src/per/adc.h **** 
  42:../../libDaisy/src/per/adc.h ****     /** Initializes a single ADC pin as an ADC. 
  43:../../libDaisy/src/per/adc.h ****     \param pin Pin to init.
  44:../../libDaisy/src/per/adc.h ****      */
  45:../../libDaisy/src/per/adc.h ****     void InitSingle(dsy_gpio_pin pin);
  46:../../libDaisy/src/per/adc.h **** 
  47:../../libDaisy/src/per/adc.h ****     /** 
  48:../../libDaisy/src/per/adc.h ****     Initializes a single ADC pin as a Multiplexed ADC.
  49:../../libDaisy/src/per/adc.h ****     Requires a CD405X Multiplexer connected to the pin.
  50:../../libDaisy/src/per/adc.h ****     You only need to supply the mux pins that are required,
  51:../../libDaisy/src/per/adc.h ****     e.g. a 4052 mux would only require mux_0 and mux_1.
  52:../../libDaisy/src/per/adc.h ****     Internal Callbacks handle the pin addressing.
  53:../../libDaisy/src/per/adc.h ****     \param mux_channels must be 1-8
  54:../../libDaisy/src/per/adc.h ****     \param mux_0 First mux pin
  55:../../libDaisy/src/per/adc.h ****     \param mux_1 Second mux pin
  56:../../libDaisy/src/per/adc.h ****     \param mux_2 Third mux pin
  57:../../libDaisy/src/per/adc.h ****     \param adc_pin &
  58:../../libDaisy/src/per/adc.h ****     */
  59:../../libDaisy/src/per/adc.h ****     void InitMux(dsy_gpio_pin adc_pin,
  60:../../libDaisy/src/per/adc.h ****                  size_t       mux_channels,
  61:../../libDaisy/src/per/adc.h ****                  dsy_gpio_pin mux_0,
  62:../../libDaisy/src/per/adc.h ****                  dsy_gpio_pin mux_1 = {DSY_GPIOX, 0},
  63:../../libDaisy/src/per/adc.h ****                  dsy_gpio_pin mux_2 = {DSY_GPIOX, 0});
  64:../../libDaisy/src/per/adc.h **** 
  65:../../libDaisy/src/per/adc.h ****     dsy_gpio pin_;                   /**< & */
  66:../../libDaisy/src/per/adc.h ****     dsy_gpio mux_pin_[MUX_SEL_LAST]; /**< & */
  67:../../libDaisy/src/per/adc.h ****     uint8_t  mux_channels_;          /**< & */
  68:../../libDaisy/src/per/adc.h **** };
  69:../../libDaisy/src/per/adc.h **** 
  70:../../libDaisy/src/per/adc.h **** /**
  71:../../libDaisy/src/per/adc.h ****    @brief Handler for analog to digital conversion
  72:../../libDaisy/src/per/adc.h **** */
  73:../../libDaisy/src/per/adc.h **** class AdcHandle
  74:../../libDaisy/src/per/adc.h **** {
  75:../../libDaisy/src/per/adc.h ****   public:
  76:../../libDaisy/src/per/adc.h ****     /** Supported oversampling amounts */
  77:../../libDaisy/src/per/adc.h ****     enum OverSampling
  78:../../libDaisy/src/per/adc.h ****     {
  79:../../libDaisy/src/per/adc.h ****         OVS_NONE, /**< & */
  80:../../libDaisy/src/per/adc.h ****         OVS_4,    /**< & */
  81:../../libDaisy/src/per/adc.h ****         OVS_8,    /**< & */
  82:../../libDaisy/src/per/adc.h ****         OVS_16,   /**< & */
  83:../../libDaisy/src/per/adc.h ****         OVS_32,   /**< & */
  84:../../libDaisy/src/per/adc.h ****         OVS_64,   /**< & */
  85:../../libDaisy/src/per/adc.h ****         OVS_128,  /**< & */
  86:../../libDaisy/src/per/adc.h ****         OVS_256,  /**< & */
  87:../../libDaisy/src/per/adc.h ****         OVS_512,  /**< & */
  88:../../libDaisy/src/per/adc.h ****         OVS_1024, /**< & */
  89:../../libDaisy/src/per/adc.h ****         OVS_LAST, /**< & */
  90:../../libDaisy/src/per/adc.h ****     };
  91:../../libDaisy/src/per/adc.h **** 
  92:../../libDaisy/src/per/adc.h ****     AdcHandle() {}
  93:../../libDaisy/src/per/adc.h ****     ~AdcHandle() {}
  50              		.loc 4 93 5 is_stmt 1 view .LVU5
  51              		.loc 4 93 5 is_stmt 0 view .LVU6
ARM GAS  C:\Users\jcjco\AppData\Local\Temp\cc6lIF5P.s 			page 6


  52              	.LBE240:
  53              	.LBB241:
  54              	.LBI241:
  55              		.file 5 "../../libDaisy/src/hid/audio.h"
   1:../../libDaisy/src/hid/audio.h **** #ifndef DSY_AUDIO_H
   2:../../libDaisy/src/hid/audio.h **** #define DSY_AUDIO_H /**< & */
   3:../../libDaisy/src/hid/audio.h **** 
   4:../../libDaisy/src/hid/audio.h **** #include "per/sai.h"
   5:../../libDaisy/src/hid/audio.h **** 
   6:../../libDaisy/src/hid/audio.h **** namespace daisy
   7:../../libDaisy/src/hid/audio.h **** {
   8:../../libDaisy/src/hid/audio.h **** /** @brief Audio Engine Handle
   9:../../libDaisy/src/hid/audio.h ****  *  @ingroup audio 
  10:../../libDaisy/src/hid/audio.h ****  *  @details This class allows for higher level access to an audio engine.
  11:../../libDaisy/src/hid/audio.h ****  *           If you're using a SOM like the DaisySeed or DaisyPatchSM (or any 
  12:../../libDaisy/src/hid/audio.h ****  *            board that includes one of those objects) then the intialization
  13:../../libDaisy/src/hid/audio.h ****  *            is already taken  care of.
  14:../../libDaisy/src/hid/audio.h ****  *           If you're setting up your own custom hardware, or need to make changes
  15:../../libDaisy/src/hid/audio.h ****  *           you will have to take the following steps:
  16:../../libDaisy/src/hid/audio.h ****  *             1. Create and Initialize an SaiHandle or two depending on your requirements
  17:../../libDaisy/src/hid/audio.h ****  *             2. Initialize the Audio Handle with the desired settings and the Initialized SaiHand
  18:../../libDaisy/src/hid/audio.h ****  *             3. If the connected codec requires special configuration or initialization, do so
  19:../../libDaisy/src/hid/audio.h ****  *             4. Write a callback method using either the AudioCallback or the InterleavingAudioCa
  20:../../libDaisy/src/hid/audio.h ****  *             5. Start the Audio using one of the StartAudio function
  21:../../libDaisy/src/hid/audio.h ****  */
  22:../../libDaisy/src/hid/audio.h **** class AudioHandle
  23:../../libDaisy/src/hid/audio.h **** {
  24:../../libDaisy/src/hid/audio.h ****   public:
  25:../../libDaisy/src/hid/audio.h ****     /** Manually configurable details about the Audio Engine */
  26:../../libDaisy/src/hid/audio.h ****     /** TODO: Figure out how to get samplerate in here. */
  27:../../libDaisy/src/hid/audio.h ****     struct Config
  28:../../libDaisy/src/hid/audio.h ****     {
  29:../../libDaisy/src/hid/audio.h ****         /** number of samples to process per callback */
  30:../../libDaisy/src/hid/audio.h ****         size_t blocksize;
  31:../../libDaisy/src/hid/audio.h **** 
  32:../../libDaisy/src/hid/audio.h ****         /**< Sample rate of audio */
  33:../../libDaisy/src/hid/audio.h ****         SaiHandle::Config::SampleRate samplerate;
  34:../../libDaisy/src/hid/audio.h **** 
  35:../../libDaisy/src/hid/audio.h ****         /** factor for adjustment before and after callback for hardware that may have extra headro
  36:../../libDaisy/src/hid/audio.h ****         float postgain;
  37:../../libDaisy/src/hid/audio.h **** 
  38:../../libDaisy/src/hid/audio.h ****         /** factor for additional one-sided compensation to audio path for hardware that may
  39:../../libDaisy/src/hid/audio.h ****          *  have unequal input/output ranges
  40:../../libDaisy/src/hid/audio.h ****          */
  41:../../libDaisy/src/hid/audio.h ****         float output_compensation;
  42:../../libDaisy/src/hid/audio.h **** 
  43:../../libDaisy/src/hid/audio.h ****         /** Sets default values for config struct */
  44:../../libDaisy/src/hid/audio.h ****         Config()
  45:../../libDaisy/src/hid/audio.h ****         : blocksize(48),
  46:../../libDaisy/src/hid/audio.h ****           samplerate(SaiHandle::Config::SampleRate::SAI_48KHZ),
  47:../../libDaisy/src/hid/audio.h ****           postgain(1.f),
  48:../../libDaisy/src/hid/audio.h ****           output_compensation(1.f)
  49:../../libDaisy/src/hid/audio.h ****         {
  50:../../libDaisy/src/hid/audio.h ****         }
  51:../../libDaisy/src/hid/audio.h ****     };
  52:../../libDaisy/src/hid/audio.h **** 
  53:../../libDaisy/src/hid/audio.h ****     enum class Result
ARM GAS  C:\Users\jcjco\AppData\Local\Temp\cc6lIF5P.s 			page 7


  54:../../libDaisy/src/hid/audio.h ****     {
  55:../../libDaisy/src/hid/audio.h ****         OK,
  56:../../libDaisy/src/hid/audio.h ****         ERR,
  57:../../libDaisy/src/hid/audio.h ****     };
  58:../../libDaisy/src/hid/audio.h **** 
  59:../../libDaisy/src/hid/audio.h ****     /** Non-Interleaving input buffer
  60:../../libDaisy/src/hid/audio.h ****      * Buffer arranged by float[chn][sample] 
  61:../../libDaisy/src/hid/audio.h ****      * const so that the user can't modify the input
  62:../../libDaisy/src/hid/audio.h ****      */
  63:../../libDaisy/src/hid/audio.h ****     typedef const float* const* InputBuffer;
  64:../../libDaisy/src/hid/audio.h **** 
  65:../../libDaisy/src/hid/audio.h ****     /** Non-Interleaving output buffer
  66:../../libDaisy/src/hid/audio.h ****      * Arranged by float[chn][sample] 
  67:../../libDaisy/src/hid/audio.h ****      */
  68:../../libDaisy/src/hid/audio.h ****     typedef float** OutputBuffer;
  69:../../libDaisy/src/hid/audio.h **** 
  70:../../libDaisy/src/hid/audio.h ****     /** Type for a Non-Interleaving audio callback 
  71:../../libDaisy/src/hid/audio.h ****      * Non-Interleaving audio callbacks in daisy will be of this type
  72:../../libDaisy/src/hid/audio.h ****      */
  73:../../libDaisy/src/hid/audio.h ****     typedef void (*AudioCallback)(InputBuffer  in,
  74:../../libDaisy/src/hid/audio.h ****                                   OutputBuffer out,
  75:../../libDaisy/src/hid/audio.h ****                                   size_t       size);
  76:../../libDaisy/src/hid/audio.h **** 
  77:../../libDaisy/src/hid/audio.h ****     /** Interleaving Input buffer
  78:../../libDaisy/src/hid/audio.h ****      ** audio is prepared as { L0, R0, L1, R1, . . . LN, RN }]
  79:../../libDaisy/src/hid/audio.h ****      ** this is const, as the user shouldn't modify it
  80:../../libDaisy/src/hid/audio.h ****     */
  81:../../libDaisy/src/hid/audio.h ****     typedef const float* InterleavingInputBuffer;
  82:../../libDaisy/src/hid/audio.h **** 
  83:../../libDaisy/src/hid/audio.h ****     /** Interleaving Output buffer 
  84:../../libDaisy/src/hid/audio.h ****      ** audio is prepared as { L0, R0, L1, R1, . . . LN, RN }
  85:../../libDaisy/src/hid/audio.h ****     */
  86:../../libDaisy/src/hid/audio.h ****     typedef float* InterleavingOutputBuffer;
  87:../../libDaisy/src/hid/audio.h **** 
  88:../../libDaisy/src/hid/audio.h ****     /** Interleaving Audio Callback 
  89:../../libDaisy/src/hid/audio.h ****      * Interleaving audio callbacks in daisy must be of this type
  90:../../libDaisy/src/hid/audio.h ****      */
  91:../../libDaisy/src/hid/audio.h ****     typedef void (*InterleavingAudioCallback)(InterleavingInputBuffer  in,
  92:../../libDaisy/src/hid/audio.h ****                                               InterleavingOutputBuffer out,
  93:../../libDaisy/src/hid/audio.h ****                                               size_t                   size);
  94:../../libDaisy/src/hid/audio.h **** 
  95:../../libDaisy/src/hid/audio.h ****     AudioHandle() : pimpl_(nullptr) {}
  96:../../libDaisy/src/hid/audio.h ****     ~AudioHandle() {}
  56              		.loc 5 96 5 is_stmt 1 view .LVU7
  57              		.loc 5 96 5 is_stmt 0 view .LVU8
  58              	.LBE241:
  59              		.loc 1 22 19 view .LVU9
  60 0000 7047     		bx	lr
  61              		.cfi_endproc
  62              	.LFE2528:
  64              		.weak	_ZN5daisy9DaisySeedD1Ev
  65              		.thumb_set _ZN5daisy9DaisySeedD1Ev,_ZN5daisy9DaisySeedD2Ev
  66 0002 00BF     		.section	.text._ZN7VASynthD2Ev,"axG",%progbits,_ZN7VASynthD5Ev,comdat
  67              		.align	1
  68              		.p2align 2,,3
  69              		.weak	_ZN7VASynthD2Ev
  70              		.syntax unified
ARM GAS  C:\Users\jcjco\AppData\Local\Temp\cc6lIF5P.s 			page 8


  71              		.thumb
  72              		.thumb_func
  73              		.fpu fpv5-d16
  75              	_ZN7VASynthD2Ev:
  76              	.LVL1:
  77              	.LFB4790:
  78              		.file 6 "vasynth.h"
   1:vasynth.h     **** #pragma once
   2:vasynth.h     **** #ifndef DSY_VAVOICE_H
   3:vasynth.h     **** #define DSY_VAVOICE_H
   4:vasynth.h     **** 
   5:vasynth.h     **** #include "daisysp.h"
   6:vasynth.h     **** 
   7:vasynth.h     **** #include "main.h"
   8:vasynth.h     **** 
   9:vasynth.h     **** // preset
  10:vasynth.h     **** #define PRESET_MAX 1
  11:vasynth.h     **** 
  12:vasynth.h     **** // waveforms
  13:vasynth.h     **** #define WAVE_TRI 1
  14:vasynth.h     **** #define WAVE_SAW 2
  15:vasynth.h     **** #define WAVE_SQUARE 4
  16:vasynth.h     **** #define WAVE_POLYBLEP_SAW 6 
  17:vasynth.h     **** 
  18:vasynth.h     **** using namespace daisy;
  19:vasynth.h     **** using namespace daisysp;
  20:vasynth.h     **** using namespace infrasonic;
  21:vasynth.h     **** 
  22:vasynth.h     **** typedef struct
  23:vasynth.h     **** {
  24:vasynth.h     **** 	// config
  25:vasynth.h     **** 	uint8_t waveform;
  26:vasynth.h     **** 	float osc_mix;
  27:vasynth.h     **** 	float detune;
  28:vasynth.h     **** 	float osc_pw;
  29:vasynth.h     **** 
  30:vasynth.h     **** 	uint8_t osc2_waveform;
  31:vasynth.h     **** 	float osc2_detune;
  32:vasynth.h     **** 	float osc2_transpose;
  33:vasynth.h     **** 	float osc2_pw;
  34:vasynth.h     **** 	
  35:vasynth.h     **** 	float eg_a_attack;
  36:vasynth.h     **** 	float eg_a_decay;
  37:vasynth.h     **** 	float eg_a_sustain; // level
  38:vasynth.h     **** 	float eg_a_release;
  39:vasynth.h     **** 	float eg_f_attack;
  40:vasynth.h     **** 	float eg_f_decay;
  41:vasynth.h     **** 	float eg_f_sustain; // level
  42:vasynth.h     **** 	float eg_f_release;
  43:vasynth.h     **** 	
  44:vasynth.h     **** 	uint8_t lfo_waveform;
  45:vasynth.h     **** 	float lfo_freq;
  46:vasynth.h     **** 	float lfo_amp;
  47:vasynth.h     **** 
  48:vasynth.h     **** 	uint8_t pwmlfo_waveform;
  49:vasynth.h     **** 	float pwmlfo_freq;
  50:vasynth.h     **** 	float pwmlfo_amp;
ARM GAS  C:\Users\jcjco\AppData\Local\Temp\cc6lIF5P.s 			page 9


  51:vasynth.h     **** 
  52:vasynth.h     **** 	uint8_t pwm2lfo_waveform;
  53:vasynth.h     **** 	float pwm2lfo_freq;
  54:vasynth.h     **** 	float pwm2lfo_amp;
  55:vasynth.h     **** 	
  56:vasynth.h     **** 	uint8_t vcavcflfo_waveform;
  57:vasynth.h     **** 	float vcavcflfo_freq;
  58:vasynth.h     **** 	float vcavcflfo_amp;
  59:vasynth.h     **** 
  60:vasynth.h     **** 	float vcf_kbd_follow;
  61:vasynth.h     **** 	float env_kbd_follow;
  62:vasynth.h     **** 
  63:vasynth.h     **** 	float filter_res;
  64:vasynth.h     **** 	float filter_cutoff;
  65:vasynth.h     **** 	float eg_f_amount;
  66:vasynth.h     **** 	uint8_t vel_select;
  67:vasynth.h     **** 	uint8_t midi_channel;
  68:vasynth.h     **** } VASynthSetting;
  69:vasynth.h     **** 
  70:vasynth.h     **** class VASynth
  71:vasynth.h     **** {
  72:vasynth.h     **** 	public:
  73:vasynth.h     **** 
  74:vasynth.h     ****     VASynth() {}
  75:vasynth.h     ****     ~VASynth() {}
  79              		.loc 6 75 5 is_stmt 1 view -0
  80              		.cfi_startproc
  81              		@ args = 0, pretend = 0, frame = 0
  82              		@ frame_needed = 0, uses_anonymous_args = 0
  83              		@ link register save eliminated.
  84              	.LBB242:
  85              	.LBI242:
  86              		.file 7 "../../DaisySP/Source/Synthesis/oscillator.h"
   1:../../DaisySP/Source/Synthesis/oscillator.h **** #pragma once
   2:../../DaisySP/Source/Synthesis/oscillator.h **** #ifndef DSY_OSCILLATOR_H
   3:../../DaisySP/Source/Synthesis/oscillator.h **** #define DSY_OSCILLATOR_H
   4:../../DaisySP/Source/Synthesis/oscillator.h **** #include <stdint.h>
   5:../../DaisySP/Source/Synthesis/oscillator.h **** #include "Utility/dsp.h"
   6:../../DaisySP/Source/Synthesis/oscillator.h **** #ifdef __cplusplus
   7:../../DaisySP/Source/Synthesis/oscillator.h **** 
   8:../../DaisySP/Source/Synthesis/oscillator.h **** namespace daisysp
   9:../../DaisySP/Source/Synthesis/oscillator.h **** {
  10:../../DaisySP/Source/Synthesis/oscillator.h **** /** Synthesis of several waveforms, including polyBLEP bandlimited waveforms.
  11:../../DaisySP/Source/Synthesis/oscillator.h **** */
  12:../../DaisySP/Source/Synthesis/oscillator.h **** class Oscillator
  13:../../DaisySP/Source/Synthesis/oscillator.h **** {
  14:../../DaisySP/Source/Synthesis/oscillator.h ****   public:
  15:../../DaisySP/Source/Synthesis/oscillator.h ****     Oscillator() {}
  16:../../DaisySP/Source/Synthesis/oscillator.h ****     ~Oscillator() {}
  87              		.loc 7 16 5 view .LVU11
  88              		.loc 7 16 5 is_stmt 0 view .LVU12
  89              	.LBE242:
  90              	.LBB243:
  91              	.LBI243:
  92              		.loc 7 16 5 is_stmt 1 view .LVU13
  93              		.loc 7 16 5 is_stmt 0 view .LVU14
  94              	.LBE243:
ARM GAS  C:\Users\jcjco\AppData\Local\Temp\cc6lIF5P.s 			page 10


  95              	.LBB244:
  96              	.LBI244:
  97              		.loc 7 16 5 is_stmt 1 view .LVU15
  98              		.loc 7 16 5 is_stmt 0 view .LVU16
  99              	.LBE244:
 100              	.LBB245:
 101              	.LBI245:
 102              		.loc 7 16 5 is_stmt 1 view .LVU17
 103              		.loc 7 16 5 is_stmt 0 view .LVU18
 104              	.LBE245:
 105              		.loc 6 75 17 view .LVU19
 106 0000 7047     		bx	lr
 107              		.cfi_endproc
 108              	.LFE4790:
 110              		.weak	_ZN7VASynthD1Ev
 111              		.thumb_set _ZN7VASynthD1Ev,_ZN7VASynthD2Ev
 112 0002 00BF     		.section	.text._ZN5daisy11MidiHandlerINS_16MidiUsbTransportEED2Ev,"axG",%progbits,_ZN5daisy11MidiH
 113              		.align	1
 114              		.p2align 2,,3
 115              		.weak	_ZN5daisy11MidiHandlerINS_16MidiUsbTransportEED2Ev
 116              		.syntax unified
 117              		.thumb
 118              		.thumb_func
 119              		.fpu fpv5-d16
 121              	_ZN5daisy11MidiHandlerINS_16MidiUsbTransportEED2Ev:
 122              	.LVL2:
 123              	.LFB5388:
 124              		.file 8 "../../libDaisy/src/hid/midi.h"
   1:../../libDaisy/src/hid/midi.h **** #pragma once
   2:../../libDaisy/src/hid/midi.h **** #ifndef DSY_MIDI_H
   3:../../libDaisy/src/hid/midi.h **** #define DSY_MIDI_H
   4:../../libDaisy/src/hid/midi.h **** 
   5:../../libDaisy/src/hid/midi.h **** // TODO: make this adjustable
   6:../../libDaisy/src/hid/midi.h **** #define SYSEX_BUFFER_LEN 128
   7:../../libDaisy/src/hid/midi.h **** 
   8:../../libDaisy/src/hid/midi.h **** #include <stdint.h>
   9:../../libDaisy/src/hid/midi.h **** #include <stdlib.h>
  10:../../libDaisy/src/hid/midi.h **** #include "per/uart.h"
  11:../../libDaisy/src/hid/midi.h **** #include "util/ringbuffer.h"
  12:../../libDaisy/src/hid/midi.h **** #include "hid/MidiEvent.h"
  13:../../libDaisy/src/hid/midi.h **** #include "hid/usb_midi.h"
  14:../../libDaisy/src/hid/midi.h **** #include "sys/system.h"
  15:../../libDaisy/src/hid/midi.h **** 
  16:../../libDaisy/src/hid/midi.h **** namespace daisy
  17:../../libDaisy/src/hid/midi.h **** {
  18:../../libDaisy/src/hid/midi.h **** /** @brief   Transport layer for sending and receiving MIDI data over UART 
  19:../../libDaisy/src/hid/midi.h ****  *  @details This is the mode of communication used for TRS and DIN MIDI
  20:../../libDaisy/src/hid/midi.h ****  *  @ingroup midi
  21:../../libDaisy/src/hid/midi.h **** */
  22:../../libDaisy/src/hid/midi.h **** class MidiUartTransport
  23:../../libDaisy/src/hid/midi.h **** {
  24:../../libDaisy/src/hid/midi.h ****   public:
  25:../../libDaisy/src/hid/midi.h ****     MidiUartTransport() {}
  26:../../libDaisy/src/hid/midi.h ****     ~MidiUartTransport() {}
  27:../../libDaisy/src/hid/midi.h **** 
  28:../../libDaisy/src/hid/midi.h ****     struct Config
  29:../../libDaisy/src/hid/midi.h ****     {
ARM GAS  C:\Users\jcjco\AppData\Local\Temp\cc6lIF5P.s 			page 11


  30:../../libDaisy/src/hid/midi.h ****         UartHandler::Config::Peripheral periph;
  31:../../libDaisy/src/hid/midi.h ****         dsy_gpio_pin                    rx;
  32:../../libDaisy/src/hid/midi.h ****         dsy_gpio_pin                    tx;
  33:../../libDaisy/src/hid/midi.h **** 
  34:../../libDaisy/src/hid/midi.h ****         Config()
  35:../../libDaisy/src/hid/midi.h ****         {
  36:../../libDaisy/src/hid/midi.h ****             periph = UartHandler::Config::Peripheral::USART_1;
  37:../../libDaisy/src/hid/midi.h ****             rx     = {DSY_GPIOB, 7};
  38:../../libDaisy/src/hid/midi.h ****             tx     = {DSY_GPIOB, 6};
  39:../../libDaisy/src/hid/midi.h ****         }
  40:../../libDaisy/src/hid/midi.h ****     };
  41:../../libDaisy/src/hid/midi.h **** 
  42:../../libDaisy/src/hid/midi.h ****     inline void Init(Config config)
  43:../../libDaisy/src/hid/midi.h ****     {
  44:../../libDaisy/src/hid/midi.h ****         UartHandler::Config uart_config;
  45:../../libDaisy/src/hid/midi.h **** 
  46:../../libDaisy/src/hid/midi.h ****         //defaults
  47:../../libDaisy/src/hid/midi.h ****         uart_config.baudrate   = 31250;
  48:../../libDaisy/src/hid/midi.h ****         uart_config.stopbits   = UartHandler::Config::StopBits::BITS_1;
  49:../../libDaisy/src/hid/midi.h ****         uart_config.parity     = UartHandler::Config::Parity::NONE;
  50:../../libDaisy/src/hid/midi.h ****         uart_config.mode       = UartHandler::Config::Mode::TX_RX;
  51:../../libDaisy/src/hid/midi.h ****         uart_config.wordlength = UartHandler::Config::WordLength::BITS_8;
  52:../../libDaisy/src/hid/midi.h **** 
  53:../../libDaisy/src/hid/midi.h ****         //user settings
  54:../../libDaisy/src/hid/midi.h ****         uart_config.periph        = config.periph;
  55:../../libDaisy/src/hid/midi.h ****         uart_config.pin_config.rx = config.rx;
  56:../../libDaisy/src/hid/midi.h ****         uart_config.pin_config.tx = config.tx;
  57:../../libDaisy/src/hid/midi.h **** 
  58:../../libDaisy/src/hid/midi.h ****         uart_.Init(uart_config);
  59:../../libDaisy/src/hid/midi.h ****     }
  60:../../libDaisy/src/hid/midi.h **** 
  61:../../libDaisy/src/hid/midi.h ****     inline void    StartRx() { uart_.StartRx(); }
  62:../../libDaisy/src/hid/midi.h ****     inline size_t  Readable() { return uart_.Readable(); }
  63:../../libDaisy/src/hid/midi.h ****     inline uint8_t Rx() { return uart_.PopRx(); }
  64:../../libDaisy/src/hid/midi.h ****     inline bool    RxActive() { return uart_.RxActive(); }
  65:../../libDaisy/src/hid/midi.h ****     inline void    FlushRx() { uart_.FlushRx(); }
  66:../../libDaisy/src/hid/midi.h ****     inline void    Tx(uint8_t* buff, size_t size) { uart_.PollTx(buff, size); }
  67:../../libDaisy/src/hid/midi.h **** 
  68:../../libDaisy/src/hid/midi.h ****   private:
  69:../../libDaisy/src/hid/midi.h ****     UartHandler uart_;
  70:../../libDaisy/src/hid/midi.h **** };
  71:../../libDaisy/src/hid/midi.h **** 
  72:../../libDaisy/src/hid/midi.h **** /** 
  73:../../libDaisy/src/hid/midi.h ****     @brief Simple MIDI Handler \n 
  74:../../libDaisy/src/hid/midi.h ****     Parses bytes from an input into valid MidiEvents. \n 
  75:../../libDaisy/src/hid/midi.h ****     The MidiEvents fill a FIFO queue that the user can pop messages from.
  76:../../libDaisy/src/hid/midi.h ****     @author shensley
  77:../../libDaisy/src/hid/midi.h ****     @date March 2020
  78:../../libDaisy/src/hid/midi.h ****     @ingroup midi
  79:../../libDaisy/src/hid/midi.h **** */
  80:../../libDaisy/src/hid/midi.h **** template <typename Transport>
  81:../../libDaisy/src/hid/midi.h **** class MidiHandler
  82:../../libDaisy/src/hid/midi.h **** {
  83:../../libDaisy/src/hid/midi.h ****   public:
  84:../../libDaisy/src/hid/midi.h ****     MidiHandler() {}
  85:../../libDaisy/src/hid/midi.h ****     ~MidiHandler() {}
 125              		.loc 8 85 5 is_stmt 1 view -0
ARM GAS  C:\Users\jcjco\AppData\Local\Temp\cc6lIF5P.s 			page 12


 126              		.cfi_startproc
 127              		@ args = 0, pretend = 0, frame = 0
 128              		@ frame_needed = 0, uses_anonymous_args = 0
 129              		@ link register save eliminated.
 130              	.LBB246:
 131              	.LBI246:
 132              		.file 9 "../../libDaisy/src/hid/usb_midi.h"
   1:../../libDaisy/src/hid/usb_midi.h **** #pragma once
   2:../../libDaisy/src/hid/usb_midi.h **** #ifndef __DSY_MIDIUSBTRANSPORT_H__
   3:../../libDaisy/src/hid/usb_midi.h **** #define __DSY_MIDIUSBTRANSPORT_H__
   4:../../libDaisy/src/hid/usb_midi.h **** 
   5:../../libDaisy/src/hid/usb_midi.h **** #include "hid/usb.h"
   6:../../libDaisy/src/hid/usb_midi.h **** #include "sys/system.h"
   7:../../libDaisy/src/hid/usb_midi.h **** #include "util/ringbuffer.h"
   8:../../libDaisy/src/hid/usb_midi.h **** 
   9:../../libDaisy/src/hid/usb_midi.h **** namespace daisy
  10:../../libDaisy/src/hid/usb_midi.h **** {
  11:../../libDaisy/src/hid/usb_midi.h **** /** @brief USB Transport for MIDI 
  12:../../libDaisy/src/hid/usb_midi.h ****  *  @ingroup midi
  13:../../libDaisy/src/hid/usb_midi.h ****  */
  14:../../libDaisy/src/hid/usb_midi.h **** class MidiUsbTransport
  15:../../libDaisy/src/hid/usb_midi.h **** {
  16:../../libDaisy/src/hid/usb_midi.h ****   public:
  17:../../libDaisy/src/hid/usb_midi.h ****     // MidiUsbTransport() {}
  18:../../libDaisy/src/hid/usb_midi.h ****     ~MidiUsbTransport() {}
 133              		.loc 9 18 5 view .LVU21
 134              		.loc 9 18 5 is_stmt 0 view .LVU22
 135              	.LBE246:
 136              		.loc 8 85 21 view .LVU23
 137 0000 7047     		bx	lr
 138              		.cfi_endproc
 139              	.LFE5388:
 141              		.weak	_ZN5daisy11MidiHandlerINS_16MidiUsbTransportEED1Ev
 142              		.thumb_set _ZN5daisy11MidiHandlerINS_16MidiUsbTransportEED1Ev,_ZN5daisy11MidiHandlerINS_16MidiUsbT
 143 0002 00BF     		.section	.text._ZN7daisysp9DelayLineIfLj48000EED2Ev,"axG",%progbits,_ZN7daisysp9DelayLineIfLj48000
 144              		.align	1
 145              		.p2align 2,,3
 146              		.weak	_ZN7daisysp9DelayLineIfLj48000EED2Ev
 147              		.syntax unified
 148              		.thumb
 149              		.thumb_func
 150              		.fpu fpv5-d16
 152              	_ZN7daisysp9DelayLineIfLj48000EED2Ev:
 153              	.LVL3:
 154              	.LFB5391:
 155              		.file 10 "../../DaisySP/Source/Utility/delayline.h"
   1:../../DaisySP/Source/Utility/delayline.h **** #pragma once
   2:../../DaisySP/Source/Utility/delayline.h **** #ifndef DSY_DELAY_H
   3:../../DaisySP/Source/Utility/delayline.h **** #define DSY_DELAY_H
   4:../../DaisySP/Source/Utility/delayline.h **** #include <stdlib.h>
   5:../../DaisySP/Source/Utility/delayline.h **** #include <stdint.h>
   6:../../DaisySP/Source/Utility/delayline.h **** namespace daisysp
   7:../../DaisySP/Source/Utility/delayline.h **** {
   8:../../DaisySP/Source/Utility/delayline.h **** /** Simple Delay line.
   9:../../DaisySP/Source/Utility/delayline.h **** November 2019
  10:../../DaisySP/Source/Utility/delayline.h **** 
  11:../../DaisySP/Source/Utility/delayline.h **** Converted to Template December 2019
ARM GAS  C:\Users\jcjco\AppData\Local\Temp\cc6lIF5P.s 			page 13


  12:../../DaisySP/Source/Utility/delayline.h **** 
  13:../../DaisySP/Source/Utility/delayline.h **** declaration example: (1 second of floats)
  14:../../DaisySP/Source/Utility/delayline.h **** 
  15:../../DaisySP/Source/Utility/delayline.h **** DelayLine<float, SAMPLE_RATE> del;
  16:../../DaisySP/Source/Utility/delayline.h **** 
  17:../../DaisySP/Source/Utility/delayline.h **** By: shensley
  18:../../DaisySP/Source/Utility/delayline.h **** */
  19:../../DaisySP/Source/Utility/delayline.h **** template <typename T, size_t max_size>
  20:../../DaisySP/Source/Utility/delayline.h **** class DelayLine
  21:../../DaisySP/Source/Utility/delayline.h **** {
  22:../../DaisySP/Source/Utility/delayline.h ****   public:
  23:../../DaisySP/Source/Utility/delayline.h ****     DelayLine() {}
  24:../../DaisySP/Source/Utility/delayline.h ****     ~DelayLine() {}
 156              		.loc 10 24 5 is_stmt 1 view -0
 157              		.cfi_startproc
 158              		@ args = 0, pretend = 0, frame = 0
 159              		@ frame_needed = 0, uses_anonymous_args = 0
 160              		@ link register save eliminated.
 161              		.loc 10 24 19 is_stmt 0 view .LVU25
 162 0000 7047     		bx	lr
 163              		.cfi_endproc
 164              	.LFE5391:
 166              		.weak	_ZN7daisysp9DelayLineIfLj48000EED1Ev
 167              		.thumb_set _ZN7daisysp9DelayLineIfLj48000EED1Ev,_ZN7daisysp9DelayLineIfLj48000EED2Ev
 168              		.section	.text._Z13AudioCallbackPKfPfj,"ax",%progbits
 169              		.align	1
 170              		.p2align 2,,3
 171              		.global	_Z13AudioCallbackPKfPfj
 172              		.syntax unified
 173              		.thumb
 174              		.thumb_func
 175              		.fpu fpv5-d16
 177              	_Z13AudioCallbackPKfPfj:
 178              	.LVL4:
 179              	.LFB4792:
 180              		.file 11 "main.cpp"
   1:main.cpp      **** /*
   2:main.cpp      **** This code is a modification of OscPocketD/VASynth, created by Staffan Melin, staffan.melin@oscillat
   3:main.cpp      **** It was later modified by (Steven @moonfriendsynth) to work with the Daisy Pod.
   4:main.cpp      **** I (Christopher @Nettech15) have modified it further to run on the Daisy Seed without the use of the
   5:main.cpp      **** Synth parameters are now controlled by a Miditech i2-61 midi keyboard.
   6:main.cpp      **** Feel free to copy, modify, and improve this code to match your equipment and sound requirements.
   7:main.cpp      **** */
   8:main.cpp      **** 
   9:main.cpp      **** #include "daisy_seed.h"
  10:main.cpp      **** #include "daisysp.h"
  11:main.cpp      **** 
  12:main.cpp      **** #include "main.h"
  13:main.cpp      **** #include "vasynth.h"
  14:main.cpp      **** 
  15:main.cpp      **** using namespace daisy;
  16:main.cpp      **** using namespace daisysp;
  17:main.cpp      **** 
  18:main.cpp      **** // globals
  19:main.cpp      **** DaisySeed hardware;
  20:main.cpp      **** MidiUsbHandler midi;
  21:main.cpp      **** float sysSampleRate;
ARM GAS  C:\Users\jcjco\AppData\Local\Temp\cc6lIF5P.s 			page 14


  22:main.cpp      **** float sysCallbackRate;
  23:main.cpp      **** extern uint8_t preset_max;
  24:main.cpp      **** extern VASynthSetting preset_setting[PRESET_MAX];
  25:main.cpp      **** 
  26:main.cpp      **** uint8_t param_;
  27:main.cpp      **** float pitch_bend = 1.0f;
  28:main.cpp      **** float master_tune = 0.0f;
  29:main.cpp      **** 
  30:main.cpp      **** // sound
  31:main.cpp      **** VASynth vasynth;
  32:main.cpp      **** uint8_t gPlay = PLAY_ON;
  33:main.cpp      **** 
  34:main.cpp      **** // fx
  35:main.cpp      **** DelayLine<float, DELAY_MAX> DSY_SDRAM_BSS delay_;
  36:main.cpp      **** 
  37:main.cpp      **** // sequencer
  38:main.cpp      **** void SequencerPlay(uint16_t);
  39:main.cpp      **** void SequencerRecord(uint8_t, uint8_t);
  40:main.cpp      **** void SeqTimer_Config(void);
  41:main.cpp      **** void writeSram(uint32_t, uint8_t);
  42:main.cpp      **** uint8_t readSram(uint32_t);
  43:main.cpp      **** void writeSramWord(uint32_t, uint16_t);
  44:main.cpp      **** uint16_t readSramWord(uint32_t);
  45:main.cpp      **** 
  46:main.cpp      **** uint16_t seqclock = 0, seqtime = 0, seqmode = 0, seqmsg;
  47:main.cpp      **** uint16_t seqnote, seqvelocity;
  48:main.cpp      **** uint32_t seqmem = 0x00010000;
  49:main.cpp      **** 
  50:main.cpp      **** // audio callback
  51:main.cpp      **** 
  52:main.cpp      **** void AudioCallback(AudioHandle::InterleavingInputBuffer  in,
  53:main.cpp      ****                    AudioHandle::InterleavingOutputBuffer out,
  54:main.cpp      ****                    size_t                                size)
  55:main.cpp      **** {	
 181              		.loc 11 55 1 is_stmt 1 view -0
 182              		.cfi_startproc
 183              		@ args = 0, pretend = 0, frame = 8
 184              		@ frame_needed = 0, uses_anonymous_args = 0
  56:main.cpp      **** 	float voice_left, voice_right;
 185              		.loc 11 56 2 view .LVU27
  57:main.cpp      **** 	
  58:main.cpp      **** 	for (size_t n = 0; n < size; n += 2)
 186              		.loc 11 58 2 view .LVU28
 187              	.LBB247:
 188              		.loc 11 58 23 view .LVU29
 189 0000 AAB3     		cbz	r2, .L16
 190              	.LBE247:
  55:main.cpp      **** 	float voice_left, voice_right;
 191              		.loc 11 55 1 is_stmt 0 view .LVU30
 192 0002 2DE9F041 		push	{r4, r5, r6, r7, r8, lr}
 193              		.cfi_def_cfa_offset 24
 194              		.cfi_offset 4, -24
 195              		.cfi_offset 5, -20
 196              		.cfi_offset 6, -16
 197              		.cfi_offset 7, -12
 198              		.cfi_offset 8, -8
 199              		.cfi_offset 14, -4
ARM GAS  C:\Users\jcjco\AppData\Local\Temp\cc6lIF5P.s 			page 15


 200 0006 1746     		mov	r7, r2
 201 0008 82B0     		sub	sp, sp, #8
 202              		.cfi_def_cfa_offset 32
 203 000a 0646     		mov	r6, r0
 204 000c 0C46     		mov	r4, r1
 205              	.LBB248:
 206              		.loc 11 58 14 view .LVU31
 207 000e 0025     		movs	r5, #0
 208 0010 DFF86080 		ldr	r8, .L20+4
 209 0014 07E0     		b	.L10
 210              	.LVL5:
 211              	.L8:
 212              		.loc 11 58 33 view .LVU32
 213 0016 0235     		adds	r5, r5, #2
 214              	.LVL6:
  59:main.cpp      **** 	{	
  60:main.cpp      **** 		if (gPlay == PLAY_ON)
  61:main.cpp      **** 		{			
  62:main.cpp      **** 			vasynth.Process(&voice_left, &voice_right);
  63:main.cpp      **** 			
  64:main.cpp      **** 			out[n] = voice_left + in[n];
  65:main.cpp      **** 			out[n + 1] = voice_right + in[n + 1];
  66:main.cpp      **** 		} 
  67:main.cpp      **** 		else 
  68:main.cpp      **** 		{
  69:main.cpp      **** 			out[n] = 0;
 215              		.loc 11 69 11 view .LVU33
 216 0018 2360     		str	r3, [r4]	@ float
  70:main.cpp      **** 			out[n + 1] = 0;		
 217              		.loc 11 70 4 is_stmt 1 view .LVU34
 218              		.loc 11 70 15 is_stmt 0 view .LVU35
 219 001a 6360     		str	r3, [r4, #4]	@ float
  58:main.cpp      **** 	{	
 220              		.loc 11 58 2 is_stmt 1 view .LVU36
 221              	.LVL7:
  58:main.cpp      **** 	{	
 222              		.loc 11 58 23 view .LVU37
 223 001c 0836     		adds	r6, r6, #8
 224 001e AF42     		cmp	r7, r5
 225 0020 04F10804 		add	r4, r4, #8
 226 0024 20D9     		bls	.L19
 227              	.LVL8:
 228              	.L10:
  60:main.cpp      **** 		{			
 229              		.loc 11 60 3 view .LVU38
  69:main.cpp      **** 			out[n + 1] = 0;		
 230              		.loc 11 69 4 view .LVU39
  60:main.cpp      **** 		{			
 231              		.loc 11 60 3 is_stmt 0 view .LVU40
 232 0026 98F80010 		ldrb	r1, [r8]	@ zero_extendqisi2
  69:main.cpp      **** 			out[n + 1] = 0;		
 233              		.loc 11 69 11 view .LVU41
 234 002a 0023     		movs	r3, #0
  60:main.cpp      **** 		{			
 235              		.loc 11 60 3 view .LVU42
 236 002c 0129     		cmp	r1, #1
 237 002e F2D1     		bne	.L8
ARM GAS  C:\Users\jcjco\AppData\Local\Temp\cc6lIF5P.s 			page 16


  62:main.cpp      **** 			
 238              		.loc 11 62 4 is_stmt 1 view .LVU43
  62:main.cpp      **** 			
 239              		.loc 11 62 19 is_stmt 0 view .LVU44
 240 0030 01AA     		add	r2, sp, #4
 241 0032 6946     		mov	r1, sp
 242 0034 0E48     		ldr	r0, .L20
  58:main.cpp      **** 	{	
 243              		.loc 11 58 33 view .LVU45
 244 0036 0235     		adds	r5, r5, #2
 245              	.LVL9:
  62:main.cpp      **** 			
 246              		.loc 11 62 19 view .LVU46
 247 0038 FFF7FEFF 		bl	_ZN7VASynth7ProcessEPfS0_
 248              	.LVL10:
  64:main.cpp      **** 			out[n + 1] = voice_right + in[n + 1];
 249              		.loc 11 64 4 is_stmt 1 view .LVU47
  64:main.cpp      **** 			out[n + 1] = voice_right + in[n + 1];
 250              		.loc 11 64 24 is_stmt 0 view .LVU48
 251 003c 96ED007A 		vldr.32	s14, [r6]
 252 0040 DDED007A 		vldr.32	s15, [sp]
  58:main.cpp      **** 	{	
 253              		.loc 11 58 23 view .LVU49
 254 0044 AF42     		cmp	r7, r5
  65:main.cpp      **** 		} 
 255              		.loc 11 65 29 view .LVU50
 256 0046 DDED016A 		vldr.32	s13, [sp, #4]
  58:main.cpp      **** 	{	
 257              		.loc 11 58 23 view .LVU51
 258 004a 06F10806 		add	r6, r6, #8
  64:main.cpp      **** 			out[n + 1] = voice_right + in[n + 1];
 259              		.loc 11 64 24 view .LVU52
 260 004e 37EE277A 		vadd.f32	s14, s14, s15
  58:main.cpp      **** 	{	
 261              		.loc 11 58 23 view .LVU53
 262 0052 04F10804 		add	r4, r4, #8
  64:main.cpp      **** 			out[n + 1] = voice_right + in[n + 1];
 263              		.loc 11 64 11 view .LVU54
 264 0056 04ED027A 		vstr.32	s14, [r4, #-8]
  65:main.cpp      **** 		} 
 265              		.loc 11 65 4 is_stmt 1 view .LVU55
  65:main.cpp      **** 		} 
 266              		.loc 11 65 29 is_stmt 0 view .LVU56
 267 005a 56ED017A 		vldr.32	s15, [r6, #-4]
 268 005e 77EEA67A 		vadd.f32	s15, s15, s13
  65:main.cpp      **** 		} 
 269              		.loc 11 65 15 view .LVU57
 270 0062 44ED017A 		vstr.32	s15, [r4, #-4]
  58:main.cpp      **** 	{	
 271              		.loc 11 58 2 is_stmt 1 view .LVU58
 272              	.LVL11:
  58:main.cpp      **** 	{	
 273              		.loc 11 58 23 view .LVU59
 274 0066 DED8     		bhi	.L10
 275              	.L19:
  58:main.cpp      **** 	{	
 276              		.loc 11 58 23 is_stmt 0 view .LVU60
ARM GAS  C:\Users\jcjco\AppData\Local\Temp\cc6lIF5P.s 			page 17


 277              	.LBE248:
  71:main.cpp      **** 		}		
  72:main.cpp      **** 	}
  73:main.cpp      **** }
 278              		.loc 11 73 1 view .LVU61
 279 0068 02B0     		add	sp, sp, #8
 280              		.cfi_def_cfa_offset 24
 281              		@ sp needed
 282 006a BDE8F081 		pop	{r4, r5, r6, r7, r8, pc}
 283              	.LVL12:
 284              	.L16:
 285              		.cfi_def_cfa_offset 0
 286              		.cfi_restore 4
 287              		.cfi_restore 5
 288              		.cfi_restore 6
 289              		.cfi_restore 7
 290              		.cfi_restore 8
 291              		.cfi_restore 14
 292              		.loc 11 73 1 view .LVU62
 293 006e 7047     		bx	lr
 294              	.L21:
 295              		.align	2
 296              	.L20:
 297 0070 00000000 		.word	.LANCHOR1
 298 0074 00000000 		.word	.LANCHOR0
 299              		.cfi_endproc
 300              	.LFE4792:
 302              		.section	.text._Z13SequencerPlayt.part.0,"ax",%progbits
 303              		.align	1
 304              		.p2align 2,,3
 305              		.syntax unified
 306              		.thumb
 307              		.thumb_func
 308              		.fpu fpv5-d16
 310              	_Z13SequencerPlayt.part.0:
 311              	.LVL13:
 312              	.LFB5394:
  74:main.cpp      **** 
  75:main.cpp      **** 
  76:main.cpp      **** // midi handler
  77:main.cpp      **** void HandleMidiMessage(MidiEvent m)
  78:main.cpp      **** {
  79:main.cpp      ****     switch(m.type)
  80:main.cpp      ****     {
  81:main.cpp      ****         case NoteOn:
  82:main.cpp      ****         {
  83:main.cpp      ****             NoteOnEvent p = m.AsNoteOn();
  84:main.cpp      ****             if ((vasynth.midi_channel_ == MIDI_CHANNEL_ALL) || (p.channel == vasynth.midi_channel_)
  85:main.cpp      **** 			{
  86:main.cpp      **** 				if(seqmode == 1)
  87:main.cpp      **** 				{
  88:main.cpp      **** 					SequencerRecord((p.note | 0x80), p.velocity);
  89:main.cpp      **** 				}
  90:main.cpp      **** 				vasynth.NoteOn(p.note, p.velocity);
  91:main.cpp      **** 				hardware.SetLed(true);
  92:main.cpp      **** 			}
  93:main.cpp      **** 	        break;
ARM GAS  C:\Users\jcjco\AppData\Local\Temp\cc6lIF5P.s 			page 18


  94:main.cpp      ****         }
  95:main.cpp      ****         case NoteOff:
  96:main.cpp      ****         {
  97:main.cpp      ****             NoteOnEvent p = m.AsNoteOn();
  98:main.cpp      ****             if ((vasynth.midi_channel_ == MIDI_CHANNEL_ALL) || (p.channel == vasynth.midi_channel_)
  99:main.cpp      **** 			{
 100:main.cpp      **** 				if(seqmode == 1)
 101:main.cpp      **** 				{
 102:main.cpp      **** 					SequencerRecord(p.note, 0);
 103:main.cpp      **** 				}
 104:main.cpp      **** 				vasynth.NoteOff(p.note);
 105:main.cpp      **** 				hardware.SetLed(false);
 106:main.cpp      **** 			}			
 107:main.cpp      **** 	        break;
 108:main.cpp      ****         } 
 109:main.cpp      **** 		case PitchBend:
 110:main.cpp      ****         {
 111:main.cpp      ****             PitchBendEvent p = m.AsPitchBend();
 112:main.cpp      ****             if ((vasynth.midi_channel_ == MIDI_CHANNEL_ALL) || (p.channel == vasynth.midi_channel_)
 113:main.cpp      **** 			{
 114:main.cpp      **** 				vasynth.PitchBend(p.value);
 115:main.cpp      **** 			}			
 116:main.cpp      **** 	        break;
 117:main.cpp      ****         } 
 118:main.cpp      ****         case ControlChange:
 119:main.cpp      ****         {
 120:main.cpp      ****             ControlChangeEvent p = m.AsControlChange();
 121:main.cpp      ****             switch(p.control_number)
 122:main.cpp      ****             {
 123:main.cpp      **** 				case 1: // Modulation Wheel
 124:main.cpp      **** 					vasynth.lfo_amp_ = ((float)p.value/127.0f);
 125:main.cpp      ****                     vasynth.SetLFO();
 126:main.cpp      ****                     break;
 127:main.cpp      **** 				{
 128:main.cpp      **** 
 129:main.cpp      **** 						case 119:
 130:main.cpp      **** 						{
 131:main.cpp      **** 							switch(p.value >> 5)
 132:main.cpp      **** 							{
 133:main.cpp      **** 								case 1:
 134:main.cpp      **** 									vasynth.waveform_ = WAVE_TRI;
 135:main.cpp      **** 									break;
 136:main.cpp      **** 								case 4:
 137:main.cpp      **** 									vasynth.waveform_ = WAVE_SAW;
 138:main.cpp      **** 									break;
 139:main.cpp      **** 								case 3:
 140:main.cpp      **** 									vasynth.waveform_ = WAVE_SQUARE;
 141:main.cpp      **** 									break;
 142:main.cpp      **** 								case 2:
 143:main.cpp      **** 									vasynth.waveform_ = WAVE_POLYBLEP_SAW;
 144:main.cpp      **** 									break;
 145:main.cpp      **** 							}
 146:main.cpp      **** 							vasynth.SetWaveform();
 147:main.cpp      **** 							break;
 148:main.cpp      **** 						}
 149:main.cpp      **** 						case 120:
 150:main.cpp      **** 						{
ARM GAS  C:\Users\jcjco\AppData\Local\Temp\cc6lIF5P.s 			page 19


 151:main.cpp      **** 							switch(p.value >> 5)
 152:main.cpp      **** 							{
 153:main.cpp      **** 								case 1:
 154:main.cpp      **** 									vasynth.osc2_waveform_ = WAVE_TRI;
 155:main.cpp      **** 									break;
 156:main.cpp      **** 								case 2:
 157:main.cpp      **** 									vasynth.osc2_waveform_ = WAVE_SAW;
 158:main.cpp      **** 									break;
 159:main.cpp      **** 								case 3:
 160:main.cpp      **** 									vasynth.osc2_waveform_ = WAVE_SQUARE;
 161:main.cpp      **** 									break;
 162:main.cpp      **** 								case 4:
 163:main.cpp      **** 									vasynth.osc2_waveform_ = WAVE_POLYBLEP_SAW;
 164:main.cpp      **** 									break;
 165:main.cpp      **** 							}
 166:main.cpp      **** 							vasynth.SetWaveform();
 167:main.cpp      **** 							break;
 168:main.cpp      **** 						}
 169:main.cpp      **** 						case 2:
 170:main.cpp      **** 						{					
 171:main.cpp      **** 					vasynth.filter_cutoff_ = ((float)p.value / 127.0f) * FILTER_CUTOFF_MAX;
 172:main.cpp      ****                     vasynth.SetFilter();			
 173:main.cpp      **** 						 	break;		
 174:main.cpp      **** 						}
 175:main.cpp      **** 						case 3:
 176:main.cpp      **** 						{
 177:main.cpp      **** 							vasynth.osc_mix_ = ((float)p.value / 127.0f);
 178:main.cpp      **** 							break;
 179:main.cpp      **** 						}
 180:main.cpp      **** 						case 4:
 181:main.cpp      **** 						{
 182:main.cpp      **** 							vasynth.osc2_detune_ = ((float)p.value / 255.0f);
 183:main.cpp      **** 							break;
 184:main.cpp      **** 						}
 185:main.cpp      **** 						case 5:
 186:main.cpp      **** 						{
 187:main.cpp      **** 							vasynth.osc2_transpose_ = (1.0f + ((float)p.value / 127.0f));
 188:main.cpp      **** 							break;
 189:main.cpp      **** 						}
 190:main.cpp      **** 						case 6:
 191:main.cpp      **** 						{
 192:main.cpp      **** 							vasynth.filter_res_ = ((float)p.value / 127.0f);
 193:main.cpp      ****                     		vasynth.SetFilter();
 194:main.cpp      **** 							break;
 195:main.cpp      **** 						}
 196:main.cpp      **** 						case 7:
 197:main.cpp      **** 						{
 198:main.cpp      **** 							vasynth.osc_pw_ = ((float)p.value / 255.0f);
 199:main.cpp      **** 							break;
 200:main.cpp      **** 						}
 201:main.cpp      **** 						case 8:
 202:main.cpp      **** 						{
 203:main.cpp      **** 							vasynth.osc2_pw_ = ((float)p.value / 255.0f);
 204:main.cpp      **** 							break;
 205:main.cpp      **** 						}
 206:main.cpp      **** 						case 9:
 207:main.cpp      **** 						{
ARM GAS  C:\Users\jcjco\AppData\Local\Temp\cc6lIF5P.s 			page 20


 208:main.cpp      **** 							vasynth.eg_f_attack_ = ((float)p.value / 127.0f);
 209:main.cpp      **** 							vasynth.SetEG();
 210:main.cpp      **** 							break;
 211:main.cpp      **** 						}
 212:main.cpp      **** 						case 10:
 213:main.cpp      **** 						{
 214:main.cpp      **** 							vasynth.eg_f_decay_ = ((float)p.value / 127.0f);
 215:main.cpp      **** 							vasynth.SetEG();
 216:main.cpp      **** 							break;
 217:main.cpp      **** 						}
 218:main.cpp      **** 						case 11:
 219:main.cpp      **** 						{
 220:main.cpp      **** 							vasynth.eg_f_sustain_ = ((float)p.value / 127.0f);
 221:main.cpp      **** 							vasynth.SetEG();
 222:main.cpp      **** 							break;
 223:main.cpp      **** 						}
 224:main.cpp      **** 						case 12:
 225:main.cpp      **** 						{
 226:main.cpp      **** 							vasynth.eg_f_release_ = ((float)p.value / 127.0f);
 227:main.cpp      **** 							vasynth.SetEG();
 228:main.cpp      **** 							break;
 229:main.cpp      **** 						}
 230:main.cpp      **** 						case 13:
 231:main.cpp      **** 						{
 232:main.cpp      **** 							vasynth.eg_a_attack_ = ((float)p.value / 127.0f);
 233:main.cpp      **** 							vasynth.SetEG();
 234:main.cpp      **** 							break;
 235:main.cpp      **** 						}
 236:main.cpp      **** 						case 14:
 237:main.cpp      **** 						{
 238:main.cpp      **** 							vasynth.eg_a_decay_ = ((float)p.value / 127.0f);
 239:main.cpp      **** 							vasynth.SetEG();
 240:main.cpp      **** 							break;
 241:main.cpp      **** 						}
 242:main.cpp      **** 						case 15:
 243:main.cpp      **** 						{
 244:main.cpp      **** 							vasynth.eg_a_sustain_ = ((float)p.value / 127.0f);
 245:main.cpp      **** 							vasynth.SetEG();
 246:main.cpp      **** 							break;
 247:main.cpp      **** 						}
 248:main.cpp      **** 						case 16:
 249:main.cpp      **** 						{
 250:main.cpp      **** 							vasynth.eg_a_release_ = ((float)p.value / 127.0f);
 251:main.cpp      **** 							vasynth.SetEG();
 252:main.cpp      **** 							break;
 253:main.cpp      **** 						}
 254:main.cpp      **** 						case 17:
 255:main.cpp      **** 						{
 256:main.cpp      **** 							vasynth.vcf_kbd_follow_= ((float)p.value / 127.0f);
 257:main.cpp      **** 							break;
 258:main.cpp      **** 						}
 259:main.cpp      **** 						case 18:
 260:main.cpp      **** 						{
 261:main.cpp      **** 							vasynth.env_kbd_follow_ = ((float)p.value / 127.0f);
 262:main.cpp      **** 							break;
 263:main.cpp      **** 						}
 264:main.cpp      **** 						case 19:
ARM GAS  C:\Users\jcjco\AppData\Local\Temp\cc6lIF5P.s 			page 21


 265:main.cpp      **** 						{
 266:main.cpp      **** 							vasynth.vel_select_ = p.value >> 5;
 267:main.cpp      **** 							break;
 268:main.cpp      **** 						}
 269:main.cpp      **** 						case 20:
 270:main.cpp      **** 						{
 271:main.cpp      **** 							vasynth.eg_f_amount_ = ((float)p.value / 127.0f);
 272:main.cpp      **** 							break;
 273:main.cpp      **** 						}
 274:main.cpp      **** 						case 21:
 275:main.cpp      **** 						{
 276:main.cpp      **** 							vasynth.lfo_freq_ = ((float)p.value / 127.0f);
 277:main.cpp      **** 							vasynth.SetLFO();
 278:main.cpp      **** 							break;
 279:main.cpp      **** 						}
 280:main.cpp      **** 						case 22:
 281:main.cpp      **** 						{
 282:main.cpp      **** 							vasynth.pwmlfo_freq_ = ((float)p.value / 127.0f);
 283:main.cpp      **** 							vasynth.SetPWMLFO();
 284:main.cpp      **** 							break;
 285:main.cpp      **** 						}
 286:main.cpp      **** 						case 23:
 287:main.cpp      **** 						{
 288:main.cpp      **** 							vasynth.pwmlfo_amp_ = ((float)p.value / 511.0f);
 289:main.cpp      **** 							vasynth.SetPWMLFO();
 290:main.cpp      **** 							break;
 291:main.cpp      **** 						}
 292:main.cpp      **** 						case 24:
 293:main.cpp      **** 						{
 294:main.cpp      **** 							vasynth.pwm2lfo_freq_ = ((float)p.value / 127.0f);
 295:main.cpp      **** 							vasynth.SetPWM2LFO();
 296:main.cpp      **** 							break;
 297:main.cpp      **** 						}
 298:main.cpp      **** 						case 25:
 299:main.cpp      **** 						{
 300:main.cpp      **** 							vasynth.pwm2lfo_amp_ = ((float)p.value / 511.0f);
 301:main.cpp      **** 							vasynth.SetPWM2LFO();
 302:main.cpp      **** 							break;
 303:main.cpp      **** 						}
 304:main.cpp      **** 						case 26:
 305:main.cpp      **** 						{
 306:main.cpp      **** 							vasynth.vcavcflfo_freq_ = ((float)p.value / 127.0f);
 307:main.cpp      **** 							vasynth.SetVCAVCFLFO();
 308:main.cpp      **** 							break;
 309:main.cpp      **** 						}
 310:main.cpp      **** 						case 27:
 311:main.cpp      **** 						{
 312:main.cpp      **** 							vasynth.vcavcflfo_amp_ = ((float)p.value / 127.0f);
 313:main.cpp      **** 							vasynth.SetVCAVCFLFO();
 314:main.cpp      **** 							break;
 315:main.cpp      **** 						}
 316:main.cpp      **** 						case 28:
 317:main.cpp      **** 						{
 318:main.cpp      **** 							switch(p.value >> 5)
 319:main.cpp      **** 							{
 320:main.cpp      **** 								case 0:
 321:main.cpp      **** 									vasynth.vcavcflfo_waveform_ = WAVE_TRI;
ARM GAS  C:\Users\jcjco\AppData\Local\Temp\cc6lIF5P.s 			page 22


 322:main.cpp      **** 									break;
 323:main.cpp      **** 								case 1:
 324:main.cpp      **** 									vasynth.vcavcflfo_waveform_ = WAVE_SAW;
 325:main.cpp      **** 									break;
 326:main.cpp      **** 								case 2:
 327:main.cpp      **** 									vasynth.vcavcflfo_waveform_ = WAVE_SQUARE;
 328:main.cpp      **** 									break;
 329:main.cpp      **** 								case 3:
 330:main.cpp      **** 									vasynth.vcavcflfo_waveform_ = WAVE_POLYBLEP_SAW;
 331:main.cpp      **** 									break;
 332:main.cpp      **** 							}
 333:main.cpp      **** 							vasynth.SetVCAVCFLFO();
 334:main.cpp      **** 							break;
 335:main.cpp      **** 						}
 336:main.cpp      **** 					}
 337:main.cpp      **** 					break;
 338:main.cpp      ****                 default: break;
 339:main.cpp      ****             }
 340:main.cpp      ****             break;
 341:main.cpp      ****         }
 342:main.cpp      **** 		case ProgramChange:
 343:main.cpp      ****         {
 344:main.cpp      ****             ProgramChangeEvent p = m.AsProgramChange();
 345:main.cpp      ****             if ((vasynth.midi_channel_ == MIDI_CHANNEL_ALL) || (p.channel == vasynth.midi_channel_)
 346:main.cpp      **** 			{
 347:main.cpp      **** 				if(p.program >= 29)
 348:main.cpp      **** 				{
 349:main.cpp      **** 					switch (p.program)
 350:main.cpp      **** 					{
 351:main.cpp      **** 						case 35:
 352:main.cpp      **** 						{
 353:main.cpp      **** 							// Sequencer Mode Record
 354:main.cpp      **** 							seqmode = 1;
 355:main.cpp      **** 							seqclock = 0;
 356:main.cpp      **** 							break;
 357:main.cpp      **** 						}
 358:main.cpp      **** 						case 36:
 359:main.cpp      **** 						{
 360:main.cpp      **** 							// Sequencer Mode Record End
 361:main.cpp      **** 							seqmode = 2;
 362:main.cpp      **** 							// Place a time-stamp and stop marker at the current position and stop the sequencer
 363:main.cpp      **** 							writeSramWord(seqmem, seqclock);
 364:main.cpp      **** 							seqmem++;
 365:main.cpp      **** 							seqmem++;
 366:main.cpp      **** 							writeSramWord(seqmem, 0xFFFF);
 367:main.cpp      **** 							seqmode = 0;
 368:main.cpp      **** 							seqclock = 0;
 369:main.cpp      **** 							seqmem = 0x00010000;
 370:main.cpp      **** 							break;
 371:main.cpp      **** 						}
 372:main.cpp      **** 						case 37:
 373:main.cpp      **** 						{
 374:main.cpp      **** 							// Sequencer Mode Stop
 375:main.cpp      **** 							seqmode = 0;
 376:main.cpp      **** 							seqclock = 0;
 377:main.cpp      **** 							seqmem = 0x00010000;
 378:main.cpp      **** 							break;
ARM GAS  C:\Users\jcjco\AppData\Local\Temp\cc6lIF5P.s 			page 23


 379:main.cpp      **** 						}
 380:main.cpp      **** 						case 38:
 381:main.cpp      **** 						{
 382:main.cpp      **** 							// Sequencer Mode Play
 383:main.cpp      **** 							seqmode = 3;
 384:main.cpp      **** 							seqclock = 0;
 385:main.cpp      **** 							seqmem = 0x00010000;
 386:main.cpp      **** 							break;
 387:main.cpp      **** 						}
 388:main.cpp      **** 						case 39:
 389:main.cpp      **** 						{
 390:main.cpp      **** 							vasynth.FlashLoad(0);
 391:main.cpp      **** 							break;
 392:main.cpp      **** 						}
 393:main.cpp      **** 						case 40:
 394:main.cpp      **** 						{
 395:main.cpp      **** 							vasynth.FlashLoad(1);
 396:main.cpp      **** 							break;
 397:main.cpp      **** 						}
 398:main.cpp      **** 						case 41:
 399:main.cpp      **** 						{
 400:main.cpp      **** 							vasynth.FlashLoad(2);
 401:main.cpp      **** 							break;
 402:main.cpp      **** 						}
 403:main.cpp      **** 						case 42:
 404:main.cpp      **** 						{
 405:main.cpp      **** 							vasynth.FlashLoad(3);
 406:main.cpp      **** 							break;
 407:main.cpp      **** 						}
 408:main.cpp      **** 						case 43:
 409:main.cpp      **** 						{
 410:main.cpp      **** 							vasynth.FlashLoad(4);
 411:main.cpp      **** 							break;
 412:main.cpp      **** 						}
 413:main.cpp      **** 						case 44:
 414:main.cpp      **** 						{
 415:main.cpp      **** 							vasynth.FlashLoad(5);
 416:main.cpp      **** 							break;
 417:main.cpp      **** 						}
 418:main.cpp      **** 						case 45:
 419:main.cpp      **** 						{
 420:main.cpp      **** 							vasynth.FlashLoad(6);
 421:main.cpp      **** 							break;
 422:main.cpp      **** 						}
 423:main.cpp      **** 						case 46:
 424:main.cpp      **** 						{
 425:main.cpp      **** 							vasynth.FlashLoad(7);
 426:main.cpp      **** 							break;
 427:main.cpp      **** 						}
 428:main.cpp      **** 						case 47:
 429:main.cpp      **** 						{
 430:main.cpp      **** 							vasynth.FlashLoad(8);
 431:main.cpp      **** 							break;
 432:main.cpp      **** 						}
 433:main.cpp      **** 						case 48:
 434:main.cpp      **** 						{
 435:main.cpp      **** 							vasynth.FlashLoad(9);
ARM GAS  C:\Users\jcjco\AppData\Local\Temp\cc6lIF5P.s 			page 24


 436:main.cpp      **** 							break;
 437:main.cpp      **** 						}
 438:main.cpp      **** 						case 49:
 439:main.cpp      **** 						{
 440:main.cpp      **** 							vasynth.FlashSave(0);
 441:main.cpp      **** 							break;
 442:main.cpp      **** 						}
 443:main.cpp      **** 						case 50:
 444:main.cpp      **** 						{
 445:main.cpp      **** 							vasynth.FlashSave(1);
 446:main.cpp      **** 							break;
 447:main.cpp      **** 						}
 448:main.cpp      **** 						case 51:
 449:main.cpp      **** 						{
 450:main.cpp      **** 							vasynth.FlashSave(2);
 451:main.cpp      **** 							break;
 452:main.cpp      **** 						}
 453:main.cpp      **** 						case 52:
 454:main.cpp      **** 						{
 455:main.cpp      **** 							vasynth.FlashSave(3);
 456:main.cpp      **** 							break;
 457:main.cpp      **** 						}
 458:main.cpp      **** 						case 53:
 459:main.cpp      **** 						{
 460:main.cpp      **** 							vasynth.FlashSave(4);
 461:main.cpp      **** 							break;
 462:main.cpp      **** 						}
 463:main.cpp      **** 						case 54:
 464:main.cpp      **** 						{
 465:main.cpp      **** 							vasynth.FlashSave(5);
 466:main.cpp      **** 							break;
 467:main.cpp      **** 						}
 468:main.cpp      **** 						case 55:
 469:main.cpp      **** 						{
 470:main.cpp      **** 							vasynth.FlashSave(6);
 471:main.cpp      **** 							break;
 472:main.cpp      **** 						}
 473:main.cpp      **** 						case 56:
 474:main.cpp      **** 						{
 475:main.cpp      **** 							vasynth.FlashSave(7);
 476:main.cpp      **** 							break;
 477:main.cpp      **** 						}
 478:main.cpp      **** 						case 57:
 479:main.cpp      **** 						{
 480:main.cpp      **** 							vasynth.FlashSave(8);
 481:main.cpp      **** 							break;
 482:main.cpp      **** 						}
 483:main.cpp      **** 						case 58:
 484:main.cpp      **** 						{
 485:main.cpp      **** 							vasynth.FlashSave(9);
 486:main.cpp      **** 							break;
 487:main.cpp      **** 						}
 488:main.cpp      **** 					}
 489:main.cpp      **** 				}	
 490:main.cpp      **** 				else
 491:main.cpp      **** 				{
 492:main.cpp      **** 					vasynth.ProgramChange(p.program);
ARM GAS  C:\Users\jcjco\AppData\Local\Temp\cc6lIF5P.s 			page 25


 493:main.cpp      **** 					break;				
 494:main.cpp      **** 				}
 495:main.cpp      **** 			}    
 496:main.cpp      ****         }
 497:main.cpp      ****         default: break;
 498:main.cpp      ****     }
 499:main.cpp      **** }
 500:main.cpp      **** 
 501:main.cpp      **** void SequencerPlay(uint16_t modenum)
 313              		.loc 11 501 6 is_stmt 1 view -0
 314              		.cfi_startproc
 315              		@ args = 0, pretend = 0, frame = 0
 316              		@ frame_needed = 0, uses_anonymous_args = 0
 502:main.cpp      **** {
 503:main.cpp      **** 	if(modenum == 0)
 504:main.cpp      **** 	{
 505:main.cpp      **** 		seqclock = 0;
 506:main.cpp      **** 		seqmem = 0x00010000;
 507:main.cpp      **** 		return;
 508:main.cpp      **** 	}
 509:main.cpp      **** 	
 510:main.cpp      **** 	if(modenum == 3)
 317              		.loc 11 510 2 view .LVU64
 318 0000 0328     		cmp	r0, #3
 501:main.cpp      **** {
 319              		.loc 11 501 6 is_stmt 0 view .LVU65
 320 0002 2DE9F84F 		push	{r3, r4, r5, r6, r7, r8, r9, r10, fp, lr}
 321              		.cfi_def_cfa_offset 40
 322              		.cfi_offset 3, -40
 323              		.cfi_offset 4, -36
 324              		.cfi_offset 5, -32
 325              		.cfi_offset 6, -28
 326              		.cfi_offset 7, -24
 327              		.cfi_offset 8, -20
 328              		.cfi_offset 9, -16
 329              		.cfi_offset 10, -12
 330              		.cfi_offset 11, -8
 331              		.cfi_offset 14, -4
 332              		.loc 11 510 2 view .LVU66
 333 0006 08D0     		beq	.L31
 511:main.cpp      **** 	{
 512:main.cpp      **** 		/* Read the time-stamp from SRAM and compare to seqclock*/
 513:main.cpp      **** 		seqtime = readSramWord(seqmem);
 514:main.cpp      **** 		
 515:main.cpp      **** 		while(seqtime == seqclock)
 516:main.cpp      **** 		{
 517:main.cpp      **** 			/* Move pointer to note data */
 518:main.cpp      **** 			seqmem++;
 519:main.cpp      **** 			seqmem++;
 520:main.cpp      **** 			
 521:main.cpp      **** 			/* Read the note from SRAM */
 522:main.cpp      **** 			seqnote = readSram(seqmem);
 523:main.cpp      **** 			seqmsg = seqnote & 0x80;
 524:main.cpp      **** 			seqnote = seqnote & 0x7F;
 525:main.cpp      **** 			seqmem++;
 526:main.cpp      **** 		
 527:main.cpp      **** 			/* Read the velocity from SRAM */
ARM GAS  C:\Users\jcjco\AppData\Local\Temp\cc6lIF5P.s 			page 26


 528:main.cpp      **** 			seqvelocity = readSram(seqmem);
 529:main.cpp      **** 			seqmem++;
 530:main.cpp      **** 			
 531:main.cpp      **** 			if(seqvelocity == 0xFF)
 532:main.cpp      **** 			{
 533:main.cpp      **** 				/* End of sequence reached, reset the position to the beginning and restart */
 534:main.cpp      **** 				seqclock = 0;
 535:main.cpp      **** 				seqmem = 0x00010000;
 536:main.cpp      **** 				return;
 537:main.cpp      **** 			}
 538:main.cpp      **** 			
 539:main.cpp      **** 			if(seqmsg)
 540:main.cpp      **** 			{
 541:main.cpp      **** 				/* Play the note */
 542:main.cpp      **** 				vasynth.NoteOn(seqnote, seqvelocity);
 543:main.cpp      **** 			}
 544:main.cpp      **** 			else
 545:main.cpp      **** 			{
 546:main.cpp      **** 				/* Stop the note */
 547:main.cpp      **** 				vasynth.NoteOff(seqnote);
 548:main.cpp      **** 			}
 549:main.cpp      **** 			
 550:main.cpp      **** 			/* Check to see if there are other events at the current sequencer clock */
 551:main.cpp      **** 			seqtime = readSramWord(seqmem);
 552:main.cpp      **** 		}
 553:main.cpp      **** 	}
 554:main.cpp      **** 	
 555:main.cpp      **** 	/* All events processed so increment the sequencer clock */
 556:main.cpp      **** 	seqclock++;
 334              		.loc 11 556 10 view .LVU67
 335 0008 DFF8BC90 		ldr	r9, .L34+24
 336 000c B9F80010 		ldrh	r1, [r9]
 337              	.LVL14:
 338              	.L24:
 339              		.loc 11 556 2 is_stmt 1 view .LVU68
 340              		.loc 11 556 10 is_stmt 0 view .LVU69
 341 0010 0131     		adds	r1, r1, #1
 342 0012 A9F80010 		strh	r1, [r9]	@ movhi
 557:main.cpp      **** }
 343              		.loc 11 557 1 view .LVU70
 344 0016 BDE8F88F 		pop	{r3, r4, r5, r6, r7, r8, r9, r10, fp, pc}
 345              	.LVL15:
 346              	.L31:
 513:main.cpp      **** 		
 347              		.loc 11 513 3 is_stmt 1 view .LVU71
 513:main.cpp      **** 		
 348              		.loc 11 513 25 is_stmt 0 view .LVU72
 349 001a 254C     		ldr	r4, .L34
 515:main.cpp      **** 		{
 350              		.loc 11 515 17 view .LVU73
 351 001c DFF8A890 		ldr	r9, .L34+24
 513:main.cpp      **** 		
 352              		.loc 11 513 25 view .LVU74
 353 0020 2368     		ldr	r3, [r4]
 354              	.LVL16:
 355              	.LBB249:
 356              	.LBI249:
ARM GAS  C:\Users\jcjco\AppData\Local\Temp\cc6lIF5P.s 			page 27


 558:main.cpp      **** 
 559:main.cpp      **** void SequencerRecord(uint8_t recnote, uint8_t recvelocity)
 560:main.cpp      **** {
 561:main.cpp      **** 	/* Write the timestamp to SRAM */
 562:main.cpp      **** 	writeSramWord(seqmem, seqclock);
 563:main.cpp      **** 	seqmem++;
 564:main.cpp      **** 	seqmem++;
 565:main.cpp      **** 		
 566:main.cpp      **** 	/* Write the note to SRAM */
 567:main.cpp      **** 	writeSram(seqmem, recnote);
 568:main.cpp      **** 	seqmem++;
 569:main.cpp      **** 		
 570:main.cpp      **** 	/* Write the velocity to SRAM */
 571:main.cpp      **** 	writeSram(seqmem, recvelocity);
 572:main.cpp      **** 	seqmem++;
 573:main.cpp      **** 	
 574:main.cpp      **** 	if(seqmem > 0x7FFF8)
 575:main.cpp      **** 	{
 576:main.cpp      **** 		/* There is no more memory left for the sequencer to use */
 577:main.cpp      **** 		/* Place a timestamp and stop marker at the current position and select stop mode */
 578:main.cpp      **** 		writeSramWord(seqmem, seqclock);
 579:main.cpp      **** 		seqmem++;
 580:main.cpp      **** 		seqmem++;
 581:main.cpp      **** 		writeSramWord(seqmem, 0xFFFF);
 582:main.cpp      **** 		seqmode = 0;
 583:main.cpp      **** 		seqclock = 0;
 584:main.cpp      **** 		seqmem = 0x00010000;
 585:main.cpp      **** 	}
 586:main.cpp      **** }
 587:main.cpp      **** 
 588:main.cpp      **** /* SRAM memory handling routines */
 589:main.cpp      **** void writeSram(uint32_t l_addr, uint8_t l_data)
 590:main.cpp      **** {
 591:main.cpp      ****   /* Pointer write on specific location of backup SRAM */
 592:main.cpp      ****   *(volatile uint8_t *) (WRITE_READ_SRAM_ADDR + l_addr) = l_data;
 593:main.cpp      **** }
 594:main.cpp      **** 
 595:main.cpp      **** uint8_t readSram(uint32_t l_addr)
 596:main.cpp      **** {
 597:main.cpp      ****   uint8_t i_retval;
 598:main.cpp      **** 	
 599:main.cpp      ****   /* Pointer write from specific location of backup SRAM */
 600:main.cpp      ****   i_retval =  *(volatile uint8_t *) (WRITE_READ_SRAM_ADDR + l_addr);
 601:main.cpp      **** 	
 602:main.cpp      ****   return i_retval;
 603:main.cpp      **** }
 604:main.cpp      **** 
 605:main.cpp      **** void writeSramWord(uint32_t l_addr_w, uint16_t l_data_w)
 606:main.cpp      **** {
 607:main.cpp      ****   /* Pointer write on specific location of backup SRAM */
 608:main.cpp      ****   *(volatile uint16_t *) (WRITE_READ_SRAM_ADDR + l_addr_w) = l_data_w;
 609:main.cpp      **** }
 610:main.cpp      **** 
 611:main.cpp      **** uint16_t readSramWord(uint32_t l_addr_w)
 357              		.loc 11 611 10 is_stmt 1 view .LVU75
 358              	.LBB250:
 612:main.cpp      **** {
ARM GAS  C:\Users\jcjco\AppData\Local\Temp\cc6lIF5P.s 			page 28


 613:main.cpp      ****   uint16_t i_retval_w;
 359              		.loc 11 613 3 view .LVU76
 614:main.cpp      **** 	
 615:main.cpp      ****   /* Pointer write from specific location of backup SRAM */
 616:main.cpp      ****   i_retval_w =  *(volatile uint16_t *) (WRITE_READ_SRAM_ADDR + l_addr_w);
 360              		.loc 11 616 3 view .LVU77
 361              	.LBE250:
 362              	.LBE249:
 515:main.cpp      **** 		{
 363              		.loc 11 515 17 is_stmt 0 view .LVU78
 364 0022 B9F80010 		ldrh	r1, [r9]
 365              	.LBB253:
 366              	.LBB251:
 367              		.loc 11 616 62 view .LVU79
 368 0026 03F10052 		add	r2, r3, #536870912
 369              	.LBE251:
 370              	.LBE253:
 513:main.cpp      **** 		
 371              		.loc 11 513 11 view .LVU80
 372 002a 224D     		ldr	r5, .L34+4
 373              	.LBB254:
 374              	.LBB252:
 375              		.loc 11 616 14 view .LVU81
 376 002c 1288     		ldrh	r2, [r2]
 377 002e 92B2     		uxth	r2, r2
 378              	.LVL17:
 617:main.cpp      **** 	
 618:main.cpp      ****   return i_retval_w;
 379              		.loc 11 618 3 is_stmt 1 view .LVU82
 380              		.loc 11 618 3 is_stmt 0 view .LVU83
 381              	.LBE252:
 382              	.LBE254:
 515:main.cpp      **** 		{
 383              		.loc 11 515 17 view .LVU84
 384 0030 8A42     		cmp	r2, r1
 513:main.cpp      **** 		
 385              		.loc 11 513 11 view .LVU85
 386 0032 2A80     		strh	r2, [r5]	@ movhi
 515:main.cpp      **** 		{
 387              		.loc 11 515 3 is_stmt 1 view .LVU86
 515:main.cpp      **** 		{
 388              		.loc 11 515 17 view .LVU87
 389 0034 ECD1     		bne	.L24
 390 0036 DFF89480 		ldr	r8, .L34+28
 391 003a 1F4F     		ldr	r7, .L34+8
 392 003c 1F4E     		ldr	r6, .L34+12
 393 003e 0BE0     		b	.L29
 394              	.LVL18:
 395              	.L33:
 542:main.cpp      **** 			}
 396              		.loc 11 542 19 is_stmt 0 view .LVU88
 397 0040 FFF7FEFF 		bl	_ZN7VASynth6NoteOnEhh
 398              	.LVL19:
 399              	.L28:
 551:main.cpp      **** 		}
 400              		.loc 11 551 4 is_stmt 1 view .LVU89
 551:main.cpp      **** 		}
ARM GAS  C:\Users\jcjco\AppData\Local\Temp\cc6lIF5P.s 			page 29


 401              		.loc 11 551 26 is_stmt 0 view .LVU90
 402 0044 2368     		ldr	r3, [r4]
 403              	.LVL20:
 404              	.LBB255:
 405              	.LBI255:
 611:main.cpp      **** {
 406              		.loc 11 611 10 is_stmt 1 view .LVU91
 407              	.LBB256:
 613:main.cpp      **** 	
 408              		.loc 11 613 3 view .LVU92
 616:main.cpp      **** 	
 409              		.loc 11 616 3 view .LVU93
 410              	.LBE256:
 411              	.LBE255:
 515:main.cpp      **** 		{
 412              		.loc 11 515 17 is_stmt 0 view .LVU94
 413 0046 B9F80010 		ldrh	r1, [r9]
 414              	.LBB258:
 415              	.LBB257:
 616:main.cpp      **** 	
 416              		.loc 11 616 62 view .LVU95
 417 004a 03F10052 		add	r2, r3, #536870912
 616:main.cpp      **** 	
 418              		.loc 11 616 14 view .LVU96
 419 004e 1288     		ldrh	r2, [r2]
 420 0050 92B2     		uxth	r2, r2
 421              	.LVL21:
 422              		.loc 11 618 3 is_stmt 1 view .LVU97
 423              		.loc 11 618 3 is_stmt 0 view .LVU98
 424              	.LBE257:
 425              	.LBE258:
 515:main.cpp      **** 		{
 426              		.loc 11 515 17 view .LVU99
 427 0052 9142     		cmp	r1, r2
 551:main.cpp      **** 		}
 428              		.loc 11 551 12 view .LVU100
 429 0054 2A80     		strh	r2, [r5]	@ movhi
 515:main.cpp      **** 		{
 430              		.loc 11 515 3 is_stmt 1 view .LVU101
 515:main.cpp      **** 		{
 431              		.loc 11 515 17 view .LVU102
 432 0056 DBD1     		bne	.L24
 433              	.L29:
 518:main.cpp      **** 			seqmem++;
 434              		.loc 11 518 4 view .LVU103
 519:main.cpp      **** 			
 435              		.loc 11 519 4 view .LVU104
 539:main.cpp      **** 			{
 436              		.loc 11 539 4 view .LVU105
 542:main.cpp      **** 			}
 437              		.loc 11 542 5 view .LVU106
 547:main.cpp      **** 			}
 438              		.loc 11 547 5 view .LVU107
 519:main.cpp      **** 			
 439              		.loc 11 519 10 is_stmt 0 view .LVU108
 440 0058 981C     		adds	r0, r3, #2
 441              	.LBB259:
ARM GAS  C:\Users\jcjco\AppData\Local\Temp\cc6lIF5P.s 			page 30


 442              	.LBB260:
 600:main.cpp      **** 	
 443              		.loc 11 600 59 view .LVU109
 444 005a 194A     		ldr	r2, .L34+16
 445              	.LBE260:
 446              	.LBE259:
 525:main.cpp      **** 		
 447              		.loc 11 525 10 view .LVU110
 448 005c D91C     		adds	r1, r3, #3
 449              	.LBB263:
 450              	.LBB264:
 600:main.cpp      **** 	
 451              		.loc 11 600 59 view .LVU111
 452 005e DFF870A0 		ldr	r10, .L34+32
 453              	.LBE264:
 454              	.LBE263:
 519:main.cpp      **** 			
 455              		.loc 11 519 10 view .LVU112
 456 0062 2060     		str	r0, [r4]
 522:main.cpp      **** 			seqmsg = seqnote & 0x80;
 457              		.loc 11 522 4 is_stmt 1 view .LVU113
 458              	.LVL22:
 459              	.LBB267:
 460              	.LBI259:
 595:main.cpp      **** {
 461              		.loc 11 595 9 view .LVU114
 462              	.LBB261:
 597:main.cpp      **** 	
 463              		.loc 11 597 3 view .LVU115
 600:main.cpp      **** 	
 464              		.loc 11 600 3 view .LVU116
 600:main.cpp      **** 	
 465              		.loc 11 600 12 is_stmt 0 view .LVU117
 466 0064 9A5C     		ldrb	r2, [r3, r2]	@ zero_extendqisi2
 467              	.LBE261:
 468              	.LBE267:
 525:main.cpp      **** 		
 469              		.loc 11 525 10 view .LVU118
 470 0066 2160     		str	r1, [r4]
 529:main.cpp      **** 			
 471              		.loc 11 529 10 view .LVU119
 472 0068 191D     		adds	r1, r3, #4
 473 006a 02F07F0C 		and	ip, r2, #127
 523:main.cpp      **** 			seqnote = seqnote & 0x7F;
 474              		.loc 11 523 21 view .LVU120
 475 006e 02F0800B 		and	fp, r2, #128
 476              	.LBB268:
 477              	.LBB262:
 600:main.cpp      **** 	
 478              		.loc 11 600 12 view .LVU121
 479 0072 5FFA82FE 		uxtb	lr, r2
 480              	.LVL23:
 602:main.cpp      **** }
 481              		.loc 11 602 3 is_stmt 1 view .LVU122
 602:main.cpp      **** }
 482              		.loc 11 602 3 is_stmt 0 view .LVU123
 483              	.LBE262:
ARM GAS  C:\Users\jcjco\AppData\Local\Temp\cc6lIF5P.s 			page 31


 484              	.LBE268:
 523:main.cpp      **** 			seqnote = seqnote & 0x7F;
 485              		.loc 11 523 4 is_stmt 1 view .LVU124
 542:main.cpp      **** 			}
 486              		.loc 11 542 19 is_stmt 0 view .LVU125
 487 0076 1348     		ldr	r0, .L34+20
 523:main.cpp      **** 			seqnote = seqnote & 0x7F;
 488              		.loc 11 523 21 view .LVU126
 489 0078 A8F800B0 		strh	fp, [r8]	@ movhi
 524:main.cpp      **** 			seqmem++;
 490              		.loc 11 524 4 is_stmt 1 view .LVU127
 524:main.cpp      **** 			seqmem++;
 491              		.loc 11 524 22 is_stmt 0 view .LVU128
 492 007c A7F800C0 		strh	ip, [r7]	@ movhi
 525:main.cpp      **** 		
 493              		.loc 11 525 4 is_stmt 1 view .LVU129
 528:main.cpp      **** 			seqmem++;
 494              		.loc 11 528 4 view .LVU130
 495              	.LVL24:
 496              	.LBB269:
 497              	.LBI263:
 595:main.cpp      **** {
 498              		.loc 11 595 9 view .LVU131
 499              	.LBB265:
 597:main.cpp      **** 	
 500              		.loc 11 597 3 view .LVU132
 600:main.cpp      **** 	
 501              		.loc 11 600 3 view .LVU133
 600:main.cpp      **** 	
 502              		.loc 11 600 12 is_stmt 0 view .LVU134
 503 0080 13F80A20 		ldrb	r2, [r3, r10]	@ zero_extendqisi2
 504              	.LBE265:
 505              	.LBE269:
 529:main.cpp      **** 			
 506              		.loc 11 529 10 view .LVU135
 507 0084 2160     		str	r1, [r4]
 508              	.LVL25:
 542:main.cpp      **** 			}
 509              		.loc 11 542 19 view .LVU136
 510 0086 6146     		mov	r1, ip
 528:main.cpp      **** 			seqmem++;
 511              		.loc 11 528 26 view .LVU137
 512 0088 1346     		mov	r3, r2
 513              	.LVL26:
 514              	.LBB270:
 515              	.LBB266:
 600:main.cpp      **** 	
 516              		.loc 11 600 12 view .LVU138
 517 008a D2B2     		uxtb	r2, r2
 518              	.LVL27:
 602:main.cpp      **** }
 519              		.loc 11 602 3 is_stmt 1 view .LVU139
 602:main.cpp      **** }
 520              		.loc 11 602 3 is_stmt 0 view .LVU140
 521              	.LBE266:
 522              	.LBE270:
 531:main.cpp      **** 			{
ARM GAS  C:\Users\jcjco\AppData\Local\Temp\cc6lIF5P.s 			page 32


 523              		.loc 11 531 4 view .LVU141
 524 008c FF2B     		cmp	r3, #255
 528:main.cpp      **** 			seqmem++;
 525              		.loc 11 528 16 view .LVU142
 526 008e 3380     		strh	r3, [r6]	@ movhi
 529:main.cpp      **** 			
 527              		.loc 11 529 4 is_stmt 1 view .LVU143
 531:main.cpp      **** 			{
 528              		.loc 11 531 4 view .LVU144
 529 0090 06D0     		beq	.L32
 539:main.cpp      **** 			{
 530              		.loc 11 539 4 is_stmt 0 view .LVU145
 531 0092 1EF0800F 		tst	lr, #128
 532 0096 D3D1     		bne	.L33
 547:main.cpp      **** 			}
 533              		.loc 11 547 20 view .LVU146
 534 0098 0A48     		ldr	r0, .L34+20
 535 009a FFF7FEFF 		bl	_ZN7VASynth7NoteOffEh
 536              	.LVL28:
 537 009e D1E7     		b	.L28
 538              	.L32:
 534:main.cpp      **** 				seqmem = 0x00010000;
 539              		.loc 11 534 5 is_stmt 1 view .LVU147
 534:main.cpp      **** 				seqmem = 0x00010000;
 540              		.loc 11 534 14 is_stmt 0 view .LVU148
 541 00a0 0022     		movs	r2, #0
 535:main.cpp      **** 				return;
 542              		.loc 11 535 12 view .LVU149
 543 00a2 4FF48033 		mov	r3, #65536
 534:main.cpp      **** 				seqmem = 0x00010000;
 544              		.loc 11 534 14 view .LVU150
 545 00a6 A9F80020 		strh	r2, [r9]	@ movhi
 535:main.cpp      **** 				return;
 546              		.loc 11 535 5 is_stmt 1 view .LVU151
 535:main.cpp      **** 				return;
 547              		.loc 11 535 12 is_stmt 0 view .LVU152
 548 00aa 2360     		str	r3, [r4]
 536:main.cpp      **** 			}
 549              		.loc 11 536 5 is_stmt 1 view .LVU153
 557:main.cpp      **** 
 550              		.loc 11 557 1 is_stmt 0 view .LVU154
 551 00ac BDE8F88F 		pop	{r3, r4, r5, r6, r7, r8, r9, r10, fp, pc}
 552              	.L35:
 553              		.align	2
 554              	.L34:
 555 00b0 00000000 		.word	.LANCHOR2
 556 00b4 00000000 		.word	.LANCHOR3
 557 00b8 00000000 		.word	.LANCHOR6
 558 00bc 00000000 		.word	.LANCHOR7
 559 00c0 02000020 		.word	536870914
 560 00c4 00000000 		.word	.LANCHOR1
 561 00c8 00000000 		.word	.LANCHOR4
 562 00cc 00000000 		.word	.LANCHOR5
 563 00d0 03000020 		.word	536870915
 564              		.cfi_endproc
 565              	.LFE5394:
 567              		.section	.text._Z8CallbackPv,"ax",%progbits
ARM GAS  C:\Users\jcjco\AppData\Local\Temp\cc6lIF5P.s 			page 33


 568              		.align	1
 569              		.p2align 2,,3
 570              		.global	_Z8CallbackPv
 571              		.syntax unified
 572              		.thumb
 573              		.thumb_func
 574              		.fpu fpv5-d16
 576              	_Z8CallbackPv:
 577              	.LVL29:
 578              	.LFB4800:
 619:main.cpp      **** }
 620:main.cpp      **** 
 621:main.cpp      **** /* Process sequencer requests */
 622:main.cpp      **** void Callback(void* data)
 623:main.cpp      **** {
 579              		.loc 11 623 1 is_stmt 1 view -0
 580              		.cfi_startproc
 581              		@ args = 0, pretend = 0, frame = 0
 582              		@ frame_needed = 0, uses_anonymous_args = 0
 583              		@ link register save eliminated.
 624:main.cpp      **** 	SequencerPlay(seqmode);
 584              		.loc 11 624 2 view .LVU156
 585              		.loc 11 624 15 is_stmt 0 view .LVU157
 586 0000 054B     		ldr	r3, .L41
 587 0002 1888     		ldrh	r0, [r3]
 588              	.LVL30:
 589              	.LBB273:
 590              	.LBI273:
 501:main.cpp      **** {
 591              		.loc 11 501 6 is_stmt 1 view .LVU158
 592              	.LBB274:
 503:main.cpp      **** 	{
 593              		.loc 11 503 2 view .LVU159
 594 0004 08B1     		cbz	r0, .L40
 595 0006 FFF7FEBF 		b	_Z13SequencerPlayt.part.0
 596              	.LVL31:
 597              	.L40:
 505:main.cpp      **** 		seqmem = 0x00010000;
 598              		.loc 11 505 3 view .LVU160
 505:main.cpp      **** 		seqmem = 0x00010000;
 599              		.loc 11 505 12 is_stmt 0 view .LVU161
 600 000a 0449     		ldr	r1, .L41+4
 506:main.cpp      **** 		return;
 601              		.loc 11 506 10 view .LVU162
 602 000c 4FF48032 		mov	r2, #65536
 603 0010 034B     		ldr	r3, .L41+8
 505:main.cpp      **** 		seqmem = 0x00010000;
 604              		.loc 11 505 12 view .LVU163
 605 0012 0880     		strh	r0, [r1]	@ movhi
 506:main.cpp      **** 		return;
 606              		.loc 11 506 3 is_stmt 1 view .LVU164
 506:main.cpp      **** 		return;
 607              		.loc 11 506 10 is_stmt 0 view .LVU165
 608 0014 1A60     		str	r2, [r3]
 507:main.cpp      **** 	}
 609              		.loc 11 507 3 is_stmt 1 view .LVU166
 610              	.LBE274:
ARM GAS  C:\Users\jcjco\AppData\Local\Temp\cc6lIF5P.s 			page 34


 611              	.LBE273:
 625:main.cpp      **** }
 612              		.loc 11 625 1 is_stmt 0 view .LVU167
 613 0016 7047     		bx	lr
 614              	.L42:
 615              		.align	2
 616              	.L41:
 617 0018 00000000 		.word	.LANCHOR8
 618 001c 00000000 		.word	.LANCHOR4
 619 0020 00000000 		.word	.LANCHOR2
 620              		.cfi_endproc
 621              	.LFE4800:
 623              		.section	.text._ZN7VASynthC2Ev,"axG",%progbits,_ZN7VASynthC5Ev,comdat
 624              		.align	1
 625              		.p2align 2,,3
 626              		.weak	_ZN7VASynthC2Ev
 627              		.syntax unified
 628              		.thumb
 629              		.thumb_func
 630              		.fpu fpv5-d16
 632              	_ZN7VASynthC2Ev:
 633              	.LVL32:
 634              	.LFB4787:
  74:vasynth.h     ****     ~VASynth() {}
 635              		.loc 6 74 5 is_stmt 1 view -0
 636              		.cfi_startproc
 637              		@ args = 0, pretend = 0, frame = 0
 638              		@ frame_needed = 0, uses_anonymous_args = 0
 639              	.LBB295:
  74:vasynth.h     ****     ~VASynth() {}
 640              		.loc 6 74 15 view .LVU169
  74:vasynth.h     ****     ~VASynth() {}
 641              		.loc 6 74 15 view .LVU170
 642              	.LBB296:
 643              	.LBI296:
  15:../../DaisySP/Source/Synthesis/oscillator.h ****     ~Oscillator() {}
 644              		.loc 7 15 5 view .LVU171
  15:../../DaisySP/Source/Synthesis/oscillator.h ****     ~Oscillator() {}
 645              		.loc 7 15 5 is_stmt 0 view .LVU172
 646              	.LBE296:
 647              	.LBB297:
 648              	.LBI297:
  15:../../DaisySP/Source/Synthesis/oscillator.h ****     ~Oscillator() {}
 649              		.loc 7 15 5 is_stmt 1 view .LVU173
  15:../../DaisySP/Source/Synthesis/oscillator.h ****     ~Oscillator() {}
 650              		.loc 7 15 5 is_stmt 0 view .LVU174
 651              	.LBE297:
 652              	.LBB298:
 653              	.LBI298:
  15:../../DaisySP/Source/Synthesis/oscillator.h ****     ~Oscillator() {}
 654              		.loc 7 15 5 is_stmt 1 view .LVU175
  15:../../DaisySP/Source/Synthesis/oscillator.h ****     ~Oscillator() {}
 655              		.loc 7 15 5 is_stmt 0 view .LVU176
 656              	.LBE298:
 657              	.LBB299:
 658              	.LBI299:
  15:../../DaisySP/Source/Synthesis/oscillator.h ****     ~Oscillator() {}
ARM GAS  C:\Users\jcjco\AppData\Local\Temp\cc6lIF5P.s 			page 35


 659              		.loc 7 15 5 is_stmt 1 view .LVU177
  15:../../DaisySP/Source/Synthesis/oscillator.h ****     ~Oscillator() {}
 660              		.loc 7 15 5 is_stmt 0 view .LVU178
 661              	.LBE299:
  74:vasynth.h     ****     ~VASynth() {}
 662              		.loc 6 74 15 is_stmt 1 view .LVU179
 663              	.LBE295:
  74:vasynth.h     ****     ~VASynth() {}
 664              		.loc 6 74 5 is_stmt 0 view .LVU180
 665 0000 10B5     		push	{r4, lr}
 666              		.cfi_def_cfa_offset 8
 667              		.cfi_offset 4, -8
 668              		.cfi_offset 14, -4
 669 0002 00F2D443 		addw	r3, r0, #1236
 670 0006 00F25464 		addw	r4, r0, #1620
 671              	.L44:
 672              	.LVL33:
 673              	.LBB318:
 674              	.LBB300:
 675              	.LBI300:
 676              		.file 12 "../../DaisySP/Source/Control/adsr.h"
   1:../../DaisySP/Source/Control/adsr.h **** #pragma once
   2:../../DaisySP/Source/Control/adsr.h **** #ifndef DSY_ADSR_H
   3:../../DaisySP/Source/Control/adsr.h **** #define DSY_ADSR_H
   4:../../DaisySP/Source/Control/adsr.h **** 
   5:../../DaisySP/Source/Control/adsr.h **** #include <stdint.h>
   6:../../DaisySP/Source/Control/adsr.h **** #ifdef __cplusplus
   7:../../DaisySP/Source/Control/adsr.h **** 
   8:../../DaisySP/Source/Control/adsr.h **** namespace daisysp
   9:../../DaisySP/Source/Control/adsr.h **** {
  10:../../DaisySP/Source/Control/adsr.h **** /** Distinct stages that the phase of the envelope can be located in.
  11:../../DaisySP/Source/Control/adsr.h **** - IDLE   = located at phase location 0, and not currently running
  12:../../DaisySP/Source/Control/adsr.h **** - ATTACK  = First segment of envelope where phase moves from 0 to 1
  13:../../DaisySP/Source/Control/adsr.h **** - DECAY   = Second segment of envelope where phase moves from 1 to SUSTAIN value
  14:../../DaisySP/Source/Control/adsr.h **** - RELEASE =     Fourth segment of envelop where phase moves from SUSTAIN to 0
  15:../../DaisySP/Source/Control/adsr.h **** */
  16:../../DaisySP/Source/Control/adsr.h **** enum
  17:../../DaisySP/Source/Control/adsr.h **** {
  18:../../DaisySP/Source/Control/adsr.h ****     ADSR_SEG_IDLE    = 0,
  19:../../DaisySP/Source/Control/adsr.h ****     ADSR_SEG_ATTACK  = 1,
  20:../../DaisySP/Source/Control/adsr.h ****     ADSR_SEG_DECAY   = 2,
  21:../../DaisySP/Source/Control/adsr.h ****     ADSR_SEG_RELEASE = 4
  22:../../DaisySP/Source/Control/adsr.h **** };
  23:../../DaisySP/Source/Control/adsr.h **** 
  24:../../DaisySP/Source/Control/adsr.h **** 
  25:../../DaisySP/Source/Control/adsr.h **** /** adsr envelope module
  26:../../DaisySP/Source/Control/adsr.h **** 
  27:../../DaisySP/Source/Control/adsr.h **** Original author(s) : Paul Batchelor
  28:../../DaisySP/Source/Control/adsr.h **** 
  29:../../DaisySP/Source/Control/adsr.h **** Ported from Soundpipe by Ben Sergentanis, May 2020
  30:../../DaisySP/Source/Control/adsr.h ****  
  31:../../DaisySP/Source/Control/adsr.h **** Remake by Steffan DIedrichsen, May 2021
  32:../../DaisySP/Source/Control/adsr.h **** */
  33:../../DaisySP/Source/Control/adsr.h **** class Adsr
  34:../../DaisySP/Source/Control/adsr.h **** {
  35:../../DaisySP/Source/Control/adsr.h ****   public:
  36:../../DaisySP/Source/Control/adsr.h ****     Adsr() {}
ARM GAS  C:\Users\jcjco\AppData\Local\Temp\cc6lIF5P.s 			page 36


 677              		.loc 12 36 5 is_stmt 1 view .LVU181
 678              	.LBE300:
  74:vasynth.h     ****     ~VASynth() {}
 679              		.loc 6 74 15 is_stmt 0 view .LVU182
 680 000a 3033     		adds	r3, r3, #48
 681              	.LVL34:
 682              	.LBB303:
 683              	.LBB301:
 684              		.loc 12 36 12 view .LVU183
 685 000c 0022     		movs	r2, #0
 686 000e 2D49     		ldr	r1, .L51
 687 0010 4FF0000C 		mov	ip, #0
 688              	.LBE301:
 689              	.LBE303:
  74:vasynth.h     ****     ~VASynth() {}
 690              		.loc 6 74 15 view .LVU184
 691 0014 A342     		cmp	r3, r4
 692              	.LBB304:
 693              	.LBB302:
 694              		.loc 12 36 12 view .LVU185
 695 0016 43F8302C 		str	r2, [r3, #-48]	@ float
 696 001a 43F82C2C 		str	r2, [r3, #-44]	@ float
 697 001e 43F8281C 		str	r1, [r3, #-40]	@ float
 698 0022 43F8242C 		str	r2, [r3, #-36]	@ float
 699 0026 43F8201C 		str	r1, [r3, #-32]	@ float
 700 002a 43F81C1C 		str	r1, [r3, #-28]	@ float
 701 002e 43F8181C 		str	r1, [r3, #-24]	@ float
 702 0032 43F8142C 		str	r2, [r3, #-20]	@ float
 703 0036 43F8102C 		str	r2, [r3, #-16]	@ float
 704 003a 43F80C2C 		str	r2, [r3, #-12]	@ float
 705 003e 03F804CC 		strb	ip, [r3, #-4]
 706 0042 03F803CC 		strb	ip, [r3, #-3]
 707              	.LVL35:
 708              		.loc 12 36 12 view .LVU186
 709              	.LBE302:
 710              	.LBE304:
  74:vasynth.h     ****     ~VASynth() {}
 711              		.loc 6 74 15 is_stmt 1 view .LVU187
  74:vasynth.h     ****     ~VASynth() {}
 712              		.loc 6 74 15 view .LVU188
 713 0046 E0D1     		bne	.L44
  74:vasynth.h     ****     ~VASynth() {}
 714              		.loc 6 74 15 discriminator 10 view .LVU189
 715 0048 00F2D474 		addw	r4, r0, #2004
 716              	.L45:
 717              	.LVL36:
 718              	.LBB305:
 719              	.LBI305:
 720              		.loc 12 36 5 view .LVU190
 721              	.LBE305:
  74:vasynth.h     ****     ~VASynth() {}
 722              		.loc 6 74 15 is_stmt 0 view .LVU191
 723 004c 3033     		adds	r3, r3, #48
 724              	.LVL37:
 725              	.LBB308:
 726              	.LBB306:
 727              		.loc 12 36 12 view .LVU192
ARM GAS  C:\Users\jcjco\AppData\Local\Temp\cc6lIF5P.s 			page 37


 728 004e 0022     		movs	r2, #0
 729 0050 1C49     		ldr	r1, .L51
 730 0052 4FF0000C 		mov	ip, #0
 731              	.LBE306:
 732              	.LBE308:
  74:vasynth.h     ****     ~VASynth() {}
 733              		.loc 6 74 15 view .LVU193
 734 0056 A342     		cmp	r3, r4
 735              	.LBB309:
 736              	.LBB307:
 737              		.loc 12 36 12 view .LVU194
 738 0058 43F8302C 		str	r2, [r3, #-48]	@ float
 739 005c 43F82C2C 		str	r2, [r3, #-44]	@ float
 740 0060 43F8281C 		str	r1, [r3, #-40]	@ float
 741 0064 43F8242C 		str	r2, [r3, #-36]	@ float
 742 0068 43F8201C 		str	r1, [r3, #-32]	@ float
 743 006c 43F81C1C 		str	r1, [r3, #-28]	@ float
 744 0070 43F8181C 		str	r1, [r3, #-24]	@ float
 745 0074 43F8142C 		str	r2, [r3, #-20]	@ float
 746 0078 43F8102C 		str	r2, [r3, #-16]	@ float
 747 007c 43F80C2C 		str	r2, [r3, #-12]	@ float
 748 0080 03F804CC 		strb	ip, [r3, #-4]
 749 0084 03F803CC 		strb	ip, [r3, #-3]
 750              	.LVL38:
 751              		.loc 12 36 12 view .LVU195
 752              	.LBE307:
 753              	.LBE309:
  74:vasynth.h     ****     ~VASynth() {}
 754              		.loc 6 74 15 is_stmt 1 view .LVU196
  74:vasynth.h     ****     ~VASynth() {}
 755              		.loc 6 74 15 view .LVU197
 756 0088 E0D1     		bne	.L45
  74:vasynth.h     ****     ~VASynth() {}
 757              		.loc 6 74 15 discriminator 14 view .LVU198
 758 008a 00F63424 		addw	r4, r0, #2612
 759              	.L46:
 760              	.LVL39:
 761              	.LBB310:
 762              	.LBI310:
 763              		.file 13 "../../DaisySP/Source/Filters/moogladder.h"
   1:../../DaisySP/Source/Filters/moogladder.h **** /* Ported from Audio Library for Teensy, Ladder Filter
   2:../../DaisySP/Source/Filters/moogladder.h ****  * Copyright (c) 2021, Richard van Hoesel
   3:../../DaisySP/Source/Filters/moogladder.h ****  * Copyright (c) 2022, Infrasonic Audio LLC
   4:../../DaisySP/Source/Filters/moogladder.h ****  *
   5:../../DaisySP/Source/Filters/moogladder.h ****  * Permission is hereby granted, free of charge, to any person obtaining a copy
   6:../../DaisySP/Source/Filters/moogladder.h ****  * of this software and associated documentation files (the "Software"), to deal
   7:../../DaisySP/Source/Filters/moogladder.h ****  * in the Software without restriction, including without limitation the rights
   8:../../DaisySP/Source/Filters/moogladder.h ****  * to use, copy, modify, merge, publish, distribute, sublicense, and/or sell
   9:../../DaisySP/Source/Filters/moogladder.h ****  * copies of the Software, and to permit persons to whom the Software is
  10:../../DaisySP/Source/Filters/moogladder.h ****  * furnished to do so, subject to the following conditions:
  11:../../DaisySP/Source/Filters/moogladder.h ****  *
  12:../../DaisySP/Source/Filters/moogladder.h ****  * The above copyright notice, development funding notice, and this permission
  13:../../DaisySP/Source/Filters/moogladder.h ****  * notice shall be included in all copies or substantial portions of the Software.
  14:../../DaisySP/Source/Filters/moogladder.h ****  *
  15:../../DaisySP/Source/Filters/moogladder.h ****  * THE SOFTWARE IS PROVIDED "AS IS", WITHOUT WARRANTY OF ANY KIND, EXPRESS OR
  16:../../DaisySP/Source/Filters/moogladder.h ****  * IMPLIED, INCLUDING BUT NOT LIMITED TO THE WARRANTIES OF MERCHANTABILITY,
  17:../../DaisySP/Source/Filters/moogladder.h ****  * FITNESS FOR A PARTICULAR PURPOSE AND NONINFRINGEMENT. IN NO EVENT SHALL THE
ARM GAS  C:\Users\jcjco\AppData\Local\Temp\cc6lIF5P.s 			page 38


  18:../../DaisySP/Source/Filters/moogladder.h ****  * AUTHORS OR COPYRIGHT HOLDERS BE LIABLE FOR ANY CLAIM, DAMAGES OR OTHER
  19:../../DaisySP/Source/Filters/moogladder.h ****  * LIABILITY, WHETHER IN AN ACTION OF CONTRACT, TORT OR OTHERWISE, ARISING FROM,
  20:../../DaisySP/Source/Filters/moogladder.h ****  * OUT OF OR IN CONNECTION WITH THE SOFTWARE OR THE USE OR OTHER DEALINGS IN
  21:../../DaisySP/Source/Filters/moogladder.h ****  * THE SOFTWARE.
  22:../../DaisySP/Source/Filters/moogladder.h ****  */
  23:../../DaisySP/Source/Filters/moogladder.h **** 
  24:../../DaisySP/Source/Filters/moogladder.h **** //-----------------------------------------------------------
  25:../../DaisySP/Source/Filters/moogladder.h **** // Huovilainen New Moog (HNM) model as per CMJ jun 2006
  26:../../DaisySP/Source/Filters/moogladder.h **** // Richard van Hoesel, v. 1.03, Feb. 14 2021
  27:../../DaisySP/Source/Filters/moogladder.h **** // v1.6 (Infrasonic) removes polyphase FIR, uses 2x linear
  28:../../DaisySP/Source/Filters/moogladder.h **** //      oversampling for performance reasons, port to DaisySP conventions
  29:../../DaisySP/Source/Filters/moogladder.h **** // v1.5 adds polyphase FIR or Linear interpolation
  30:../../DaisySP/Source/Filters/moogladder.h **** // v1.4 FC extended to 18.7kHz, max res to 1.8, 4x oversampling,
  31:../../DaisySP/Source/Filters/moogladder.h **** //      and a minor Q-tuning adjustment
  32:../../DaisySP/Source/Filters/moogladder.h **** // v.1.03 adds oversampling, extended resonance,
  33:../../DaisySP/Source/Filters/moogladder.h **** // and exposes parameters input_drive and passband_gain
  34:../../DaisySP/Source/Filters/moogladder.h **** // v.1.02 now includes both cutoff and resonance "CV" modulation inputs
  35:../../DaisySP/Source/Filters/moogladder.h **** // please retain this header if you use this code.
  36:../../DaisySP/Source/Filters/moogladder.h **** //-----------------------------------------------------------
  37:../../DaisySP/Source/Filters/moogladder.h **** 
  38:../../DaisySP/Source/Filters/moogladder.h **** #pragma once
  39:../../DaisySP/Source/Filters/moogladder.h **** #ifndef INFS_MOOGLADDER_H
  40:../../DaisySP/Source/Filters/moogladder.h **** #define INFS_MOOGLADDER_H
  41:../../DaisySP/Source/Filters/moogladder.h **** 
  42:../../DaisySP/Source/Filters/moogladder.h **** #include <stdlib.h>
  43:../../DaisySP/Source/Filters/moogladder.h **** #include <stdint.h>
  44:../../DaisySP/Source/Filters/moogladder.h **** #ifdef __cplusplus
  45:../../DaisySP/Source/Filters/moogladder.h **** 
  46:../../DaisySP/Source/Filters/moogladder.h **** namespace infrasonic
  47:../../DaisySP/Source/Filters/moogladder.h **** {
  48:../../DaisySP/Source/Filters/moogladder.h **** 
  49:../../DaisySP/Source/Filters/moogladder.h **** class MoogLadder
  50:../../DaisySP/Source/Filters/moogladder.h **** {
  51:../../DaisySP/Source/Filters/moogladder.h ****     public:
  52:../../DaisySP/Source/Filters/moogladder.h ****         MoogLadder() {}
 764              		.loc 13 52 9 view .LVU199
 765              	.LBB311:
 766              		.loc 13 52 22 is_stmt 0 view .LVU200
 767 008e 0022     		movs	r2, #0
 768 0090 03F1180C 		add	ip, r3, #24
 769 0094 03F12801 		add	r1, r3, #40
 770 0098 03F1080E 		add	lr, r3, #8
 771 009c C3E90222 		strd	r2, r2, [r3, #8]
 772 00a0 C3E90422 		strd	r2, r2, [r3, #16]
 773              	.LBE311:
 774              	.LBE310:
  74:vasynth.h     ****     ~VASynth() {}
 775              		.loc 6 74 15 view .LVU201
 776 00a4 4C33     		adds	r3, r3, #76
 777              	.LVL40:
 778              	.LBB315:
 779              	.LBB312:
 780              		.loc 13 52 22 view .LVU202
 781 00a6 43F8342C 		str	r2, [r3, #-52]
 782 00aa CCF80C20 		str	r2, [ip, #12]
 783              	.LBE312:
 784              	.LBE315:
ARM GAS  C:\Users\jcjco\AppData\Local\Temp\cc6lIF5P.s 			page 39


  74:vasynth.h     ****     ~VASynth() {}
 785              		.loc 6 74 15 view .LVU203
 786 00ae A342     		cmp	r3, r4
 787              	.LBB316:
 788              	.LBB313:
 789              		.loc 13 52 22 view .LVU204
 790 00b0 CCE90122 		strd	r2, r2, [ip, #4]
 791 00b4 43F8242C 		str	r2, [r3, #-36]
 792 00b8 CA60     		str	r2, [r1, #12]
 793              	.LVL41:
 794              		.loc 13 52 22 view .LVU205
 795              	.LBE313:
 796              	.LBE316:
  74:vasynth.h     ****     ~VASynth() {}
 797              		.loc 6 74 15 is_stmt 1 view .LVU206
  74:vasynth.h     ****     ~VASynth() {}
 798              		.loc 6 74 15 view .LVU207
 799              	.LBB317:
 800              	.LBB314:
 801              		.loc 13 52 22 is_stmt 0 view .LVU208
 802 00ba C1E90122 		strd	r2, r2, [r1, #4]
 803              	.LBE314:
 804              	.LBE317:
  74:vasynth.h     ****     ~VASynth() {}
 805              		.loc 6 74 15 view .LVU209
 806 00be E6D1     		bne	.L46
 807              	.LBE318:
  74:vasynth.h     ****     ~VASynth() {}
 808              		.loc 6 74 16 discriminator 18 view .LVU210
 809 00c0 10BD     		pop	{r4, pc}
 810              	.L52:
 811 00c2 00BF     		.align	2
 812              	.L51:
 813 00c4 000080BF 		.word	-1082130432
 814              		.cfi_endproc
 815              	.LFE4787:
 817              		.weak	_ZN7VASynthC1Ev
 818              		.thumb_set _ZN7VASynthC1Ev,_ZN7VASynthC2Ev
 819              		.section	.text._Z13SequencerPlayt,"ax",%progbits
 820              		.align	1
 821              		.p2align 2,,3
 822              		.global	_Z13SequencerPlayt
 823              		.syntax unified
 824              		.thumb
 825              		.thumb_func
 826              		.fpu fpv5-d16
 828              	_Z13SequencerPlayt:
 829              	.LVL42:
 830              	.LFB4794:
 502:main.cpp      **** 	if(modenum == 0)
 831              		.loc 11 502 1 is_stmt 1 view -0
 832              		.cfi_startproc
 833              		@ args = 0, pretend = 0, frame = 0
 834              		@ frame_needed = 0, uses_anonymous_args = 0
 835              		@ link register save eliminated.
 503:main.cpp      **** 	{
 836              		.loc 11 503 2 view .LVU212
ARM GAS  C:\Users\jcjco\AppData\Local\Temp\cc6lIF5P.s 			page 40


 837 0000 0346     		mov	r3, r0
 838 0002 08B1     		cbz	r0, .L57
 839 0004 FFF7FEBF 		b	_Z13SequencerPlayt.part.0
 840              	.LVL43:
 841              	.L57:
 505:main.cpp      **** 		seqmem = 0x00010000;
 842              		.loc 11 505 3 view .LVU213
 505:main.cpp      **** 		seqmem = 0x00010000;
 843              		.loc 11 505 12 is_stmt 0 view .LVU214
 844 0008 0348     		ldr	r0, .L58
 845              	.LVL44:
 506:main.cpp      **** 		return;
 846              		.loc 11 506 10 view .LVU215
 847 000a 4FF48031 		mov	r1, #65536
 848 000e 034A     		ldr	r2, .L58+4
 505:main.cpp      **** 		seqmem = 0x00010000;
 849              		.loc 11 505 12 view .LVU216
 850 0010 0380     		strh	r3, [r0]	@ movhi
 506:main.cpp      **** 		return;
 851              		.loc 11 506 3 is_stmt 1 view .LVU217
 506:main.cpp      **** 		return;
 852              		.loc 11 506 10 is_stmt 0 view .LVU218
 853 0012 1160     		str	r1, [r2]
 507:main.cpp      **** 	}
 854              		.loc 11 507 3 is_stmt 1 view .LVU219
 557:main.cpp      **** 
 855              		.loc 11 557 1 is_stmt 0 view .LVU220
 856 0014 7047     		bx	lr
 857              	.L59:
 858 0016 00BF     		.align	2
 859              	.L58:
 860 0018 00000000 		.word	.LANCHOR4
 861 001c 00000000 		.word	.LANCHOR2
 862              		.cfi_endproc
 863              	.LFE4794:
 865              		.section	.text._Z15SequencerRecordhh,"ax",%progbits
 866              		.align	1
 867              		.p2align 2,,3
 868              		.global	_Z15SequencerRecordhh
 869              		.syntax unified
 870              		.thumb
 871              		.thumb_func
 872              		.fpu fpv5-d16
 874              	_Z15SequencerRecordhh:
 875              	.LVL45:
 876              	.LFB4795:
 560:main.cpp      **** 	/* Write the timestamp to SRAM */
 877              		.loc 11 560 1 is_stmt 1 view -0
 878              		.cfi_startproc
 879              		@ args = 0, pretend = 0, frame = 0
 880              		@ frame_needed = 0, uses_anonymous_args = 0
 881              		@ link register save eliminated.
 562:main.cpp      **** 	seqmem++;
 882              		.loc 11 562 2 view .LVU222
 562:main.cpp      **** 	seqmem++;
 883              		.loc 11 562 15 is_stmt 0 view .LVU223
 884 0000 134B     		ldr	r3, .L63
ARM GAS  C:\Users\jcjco\AppData\Local\Temp\cc6lIF5P.s 			page 41


 560:main.cpp      **** 	/* Write the timestamp to SRAM */
 885              		.loc 11 560 1 view .LVU224
 886 0002 30B4     		push	{r4, r5}
 887              		.cfi_def_cfa_offset 8
 888              		.cfi_offset 4, -8
 889              		.cfi_offset 5, -4
 562:main.cpp      **** 	seqmem++;
 890              		.loc 11 562 15 view .LVU225
 891 0004 1A68     		ldr	r2, [r3]
 892 0006 134C     		ldr	r4, .L63+4
 893              	.LBB319:
 894              	.LBB320:
 608:main.cpp      **** }
 895              		.loc 11 608 48 view .LVU226
 896 0008 02F10055 		add	r5, r2, #536870912
 897              	.LBE320:
 898              	.LBE319:
 562:main.cpp      **** 	seqmem++;
 899              		.loc 11 562 15 view .LVU227
 900 000c B4F800C0 		ldrh	ip, [r4]
 901              	.LVL46:
 902              	.LBB322:
 903              	.LBI319:
 605:main.cpp      **** {
 904              		.loc 11 605 6 is_stmt 1 view .LVU228
 905              	.LBB321:
 608:main.cpp      **** }
 906              		.loc 11 608 3 view .LVU229
 608:main.cpp      **** }
 907              		.loc 11 608 60 is_stmt 0 view .LVU230
 908 0010 A5F800C0 		strh	ip, [r5]	@ movhi
 909              	.LVL47:
 608:main.cpp      **** }
 910              		.loc 11 608 60 view .LVU231
 911              	.LBE321:
 912              	.LBE322:
 563:main.cpp      **** 	seqmem++;
 913              		.loc 11 563 2 is_stmt 1 view .LVU232
 564:main.cpp      **** 		
 914              		.loc 11 564 2 view .LVU233
 564:main.cpp      **** 		
 915              		.loc 11 564 8 is_stmt 0 view .LVU234
 916 0014 951C     		adds	r5, r2, #2
 917 0016 1D60     		str	r5, [r3]
 567:main.cpp      **** 	seqmem++;
 918              		.loc 11 567 2 is_stmt 1 view .LVU235
 919              	.LVL48:
 920              	.LBB323:
 921              	.LBI323:
 589:main.cpp      **** {
 922              		.loc 11 589 6 view .LVU236
 923              	.LBB324:
 592:main.cpp      **** }
 924              		.loc 11 592 3 view .LVU237
 592:main.cpp      **** }
 925              		.loc 11 592 47 is_stmt 0 view .LVU238
 926 0018 0F4D     		ldr	r5, .L63+8
ARM GAS  C:\Users\jcjco\AppData\Local\Temp\cc6lIF5P.s 			page 42


 927              	.LVL49:
 592:main.cpp      **** }
 928              		.loc 11 592 57 view .LVU239
 929 001a 5055     		strb	r0, [r2, r5]
 930              	.LVL50:
 592:main.cpp      **** }
 931              		.loc 11 592 57 view .LVU240
 932              	.LBE324:
 933              	.LBE323:
 568:main.cpp      **** 		
 934              		.loc 11 568 2 is_stmt 1 view .LVU241
 568:main.cpp      **** 		
 935              		.loc 11 568 8 is_stmt 0 view .LVU242
 936 001c 1A68     		ldr	r2, [r3]
 574:main.cpp      **** 	{
 937              		.loc 11 574 2 view .LVU243
 938 001e 0F4D     		ldr	r5, .L63+12
 568:main.cpp      **** 		
 939              		.loc 11 568 8 view .LVU244
 940 0020 501C     		adds	r0, r2, #1
 941              	.LVL51:
 568:main.cpp      **** 		
 942              		.loc 11 568 8 view .LVU245
 943 0022 1860     		str	r0, [r3]
 571:main.cpp      **** 	seqmem++;
 944              		.loc 11 571 2 is_stmt 1 view .LVU246
 945              	.LVL52:
 946              	.LBB325:
 947              	.LBI325:
 589:main.cpp      **** {
 948              		.loc 11 589 6 view .LVU247
 949              	.LBB326:
 592:main.cpp      **** }
 950              		.loc 11 592 3 view .LVU248
 592:main.cpp      **** }
 951              		.loc 11 592 47 is_stmt 0 view .LVU249
 952 0024 0E48     		ldr	r0, .L63+16
 953              	.LVL53:
 592:main.cpp      **** }
 954              		.loc 11 592 57 view .LVU250
 955 0026 1154     		strb	r1, [r2, r0]
 956              	.LVL54:
 592:main.cpp      **** }
 957              		.loc 11 592 57 view .LVU251
 958              	.LBE326:
 959              	.LBE325:
 572:main.cpp      **** 	
 960              		.loc 11 572 2 is_stmt 1 view .LVU252
 572:main.cpp      **** 	
 961              		.loc 11 572 8 is_stmt 0 view .LVU253
 962 0028 1A68     		ldr	r2, [r3]
 963 002a 511C     		adds	r1, r2, #1
 964              	.LVL55:
 574:main.cpp      **** 	{
 965              		.loc 11 574 2 view .LVU254
 966 002c A942     		cmp	r1, r5
 572:main.cpp      **** 	
ARM GAS  C:\Users\jcjco\AppData\Local\Temp\cc6lIF5P.s 			page 43


 967              		.loc 11 572 8 view .LVU255
 968 002e 1960     		str	r1, [r3]
 574:main.cpp      **** 	{
 969              		.loc 11 574 2 is_stmt 1 view .LVU256
 970 0030 0CD9     		bls	.L60
 578:main.cpp      **** 		seqmem++;
 971              		.loc 11 578 3 view .LVU257
 578:main.cpp      **** 		seqmem++;
 972              		.loc 11 578 16 is_stmt 0 view .LVU258
 973 0032 2188     		ldrh	r1, [r4]
 974              	.LVL56:
 975              	.LBB327:
 976              	.LBI327:
 605:main.cpp      **** {
 977              		.loc 11 605 6 is_stmt 1 view .LVU259
 978              	.LBB328:
 608:main.cpp      **** }
 979              		.loc 11 608 3 view .LVU260
 608:main.cpp      **** }
 980              		.loc 11 608 60 is_stmt 0 view .LVU261
 981 0034 1152     		strh	r1, [r2, r0]	@ movhi
 982              	.LVL57:
 608:main.cpp      **** }
 983              		.loc 11 608 60 view .LVU262
 984              	.LBE328:
 985              	.LBE327:
 579:main.cpp      **** 		seqmem++;
 986              		.loc 11 579 3 is_stmt 1 view .LVU263
 580:main.cpp      **** 		writeSramWord(seqmem, 0xFFFF);
 987              		.loc 11 580 3 view .LVU264
 581:main.cpp      **** 		seqmode = 0;
 988              		.loc 11 581 3 view .LVU265
 989              	.LBB329:
 990              	.LBI329:
 605:main.cpp      **** {
 991              		.loc 11 605 6 view .LVU266
 992              	.LBB330:
 608:main.cpp      **** }
 993              		.loc 11 608 3 view .LVU267
 608:main.cpp      **** }
 994              		.loc 11 608 60 is_stmt 0 view .LVU268
 995 0036 4FF6FF70 		movw	r0, #65535
 608:main.cpp      **** }
 996              		.loc 11 608 48 view .LVU269
 997 003a 0A49     		ldr	r1, .L63+20
 608:main.cpp      **** }
 998              		.loc 11 608 60 view .LVU270
 999 003c 5052     		strh	r0, [r2, r1]	@ movhi
 1000              	.LVL58:
 608:main.cpp      **** }
 1001              		.loc 11 608 60 view .LVU271
 1002              	.LBE330:
 1003              	.LBE329:
 582:main.cpp      **** 		seqclock = 0;
 1004              		.loc 11 582 3 is_stmt 1 view .LVU272
 582:main.cpp      **** 		seqclock = 0;
 1005              		.loc 11 582 11 is_stmt 0 view .LVU273
ARM GAS  C:\Users\jcjco\AppData\Local\Temp\cc6lIF5P.s 			page 44


 1006 003e 0022     		movs	r2, #0
 1007 0040 0948     		ldr	r0, .L63+24
 584:main.cpp      **** 	}
 1008              		.loc 11 584 10 view .LVU274
 1009 0042 4FF48031 		mov	r1, #65536
 583:main.cpp      **** 		seqmem = 0x00010000;
 1010              		.loc 11 583 12 view .LVU275
 1011 0046 2280     		strh	r2, [r4]	@ movhi
 582:main.cpp      **** 		seqclock = 0;
 1012              		.loc 11 582 11 view .LVU276
 1013 0048 0280     		strh	r2, [r0]	@ movhi
 583:main.cpp      **** 		seqmem = 0x00010000;
 1014              		.loc 11 583 3 is_stmt 1 view .LVU277
 584:main.cpp      **** 	}
 1015              		.loc 11 584 3 view .LVU278
 584:main.cpp      **** 	}
 1016              		.loc 11 584 10 is_stmt 0 view .LVU279
 1017 004a 1960     		str	r1, [r3]
 1018              	.L60:
 586:main.cpp      **** 
 1019              		.loc 11 586 1 view .LVU280
 1020 004c 30BC     		pop	{r4, r5}
 1021              		.cfi_restore 5
 1022              		.cfi_restore 4
 1023              		.cfi_def_cfa_offset 0
 1024 004e 7047     		bx	lr
 1025              	.L64:
 1026              		.align	2
 1027              	.L63:
 1028 0050 00000000 		.word	.LANCHOR2
 1029 0054 00000000 		.word	.LANCHOR4
 1030 0058 02000020 		.word	536870914
 1031 005c F8FF0700 		.word	524280
 1032 0060 01000020 		.word	536870913
 1033 0064 03000020 		.word	536870915
 1034 0068 00000000 		.word	.LANCHOR8
 1035              		.cfi_endproc
 1036              	.LFE4795:
 1038              		.section	.text._Z17HandleMidiMessageN5daisy9MidiEventE,"ax",%progbits
 1039              		.align	1
 1040              		.p2align 2,,3
 1041              		.global	_Z17HandleMidiMessageN5daisy9MidiEventE
 1042              		.syntax unified
 1043              		.thumb
 1044              		.thumb_func
 1045              		.fpu fpv5-d16
 1047              	_Z17HandleMidiMessageN5daisy9MidiEventE:
 1048              	.LFB4793:
  78:main.cpp      ****     switch(m.type)
 1049              		.loc 11 78 1 is_stmt 1 view -0
 1050              		.cfi_startproc
 1051              		@ args = 144, pretend = 16, frame = 8
 1052              		@ frame_needed = 0, uses_anonymous_args = 0
 1053 0000 84B0     		sub	sp, sp, #16
 1054              		.cfi_def_cfa_offset 16
 1055 0002 F0B5     		push	{r4, r5, r6, r7, lr}
 1056              		.cfi_def_cfa_offset 36
ARM GAS  C:\Users\jcjco\AppData\Local\Temp\cc6lIF5P.s 			page 45


 1057              		.cfi_offset 4, -36
 1058              		.cfi_offset 5, -32
 1059              		.cfi_offset 6, -28
 1060              		.cfi_offset 7, -24
 1061              		.cfi_offset 14, -20
 1062 0004 83B0     		sub	sp, sp, #12
 1063              		.cfi_def_cfa_offset 48
  78:main.cpp      ****     switch(m.type)
 1064              		.loc 11 78 1 is_stmt 0 view .LVU282
 1065 0006 08AC     		add	r4, sp, #32
 1066 0008 84E80F00 		stm	r4, {r0, r1, r2, r3}
 1067 000c 9DF82030 		ldrb	r3, [sp, #32]	@ zero_extendqisi2
 1068              	.LVL59:
  78:main.cpp      ****     switch(m.type)
 1069              		.loc 11 78 1 view .LVU283
 1070 0010 9DF82840 		ldrb	r4, [sp, #40]	@ zero_extendqisi2
 1071              	.LVL60:
  78:main.cpp      ****     switch(m.type)
 1072              		.loc 11 78 1 view .LVU284
 1073 0014 9DF82920 		ldrb	r2, [sp, #41]	@ zero_extendqisi2
 1074              	.LVL61:
  79:main.cpp      ****     {
 1075              		.loc 11 79 5 is_stmt 1 view .LVU285
 1076 0018 062B     		cmp	r3, #6
 1077 001a 11D8     		bhi	.L65
 1078 001c DFE813F0 		tbh	[pc, r3, lsl #1]
 1079              	.L68:
 1080 0020 1500     		.2byte	(.L72-.L68)/2
 1081 0022 2401     		.2byte	(.L71-.L68)/2
 1082 0024 1000     		.2byte	(.L65-.L68)/2
 1083 0026 2D00     		.2byte	(.L70-.L68)/2
 1084 0028 3701     		.2byte	(.L69-.L68)/2
 1085 002a 1000     		.2byte	(.L65-.L68)/2
 1086 002c 0700     		.2byte	(.L67-.L68)/2
 1087              		.p2align 1
 1088              	.L67:
 109:main.cpp      ****         {
 1089              		.loc 11 109 3 view .LVU286
 110:main.cpp      ****             PitchBendEvent p = m.AsPitchBend();
 1090              		.loc 11 110 9 view .LVU287
 1091              	.LBB331:
 1092              	.LBB332:
 111:main.cpp      ****             if ((vasynth.midi_channel_ == MIDI_CHANNEL_ALL) || (p.channel == vasynth.midi_channel_)
 1093              		.loc 11 111 13 view .LVU288
 1094              	.LVL62:
 1095              	.LBB333:
 1096              	.LBI333:
 1097              		.file 14 "../../libDaisy/src/hid/MidiEvent.h"
   1:../../libDaisy/src/hid/MidiEvent.h **** namespace daisy
   2:../../libDaisy/src/hid/MidiEvent.h **** {
   3:../../libDaisy/src/hid/MidiEvent.h **** /** @addtogroup midi MIDI
   4:../../libDaisy/src/hid/MidiEvent.h ****  *  @ingroup human_interface
   5:../../libDaisy/src/hid/MidiEvent.h ****  *  @ingroup libdaisy
   6:../../libDaisy/src/hid/MidiEvent.h ****  *  @brief MIDI handlers, transports, and message types
   7:../../libDaisy/src/hid/MidiEvent.h ****  *  @{
   8:../../libDaisy/src/hid/MidiEvent.h ****  */
   9:../../libDaisy/src/hid/MidiEvent.h **** 
ARM GAS  C:\Users\jcjco\AppData\Local\Temp\cc6lIF5P.s 			page 46


  10:../../libDaisy/src/hid/MidiEvent.h **** /** @defgroup midi_events MIDI_EVENTS 
  11:../../libDaisy/src/hid/MidiEvent.h ****  *  @{
  12:../../libDaisy/src/hid/MidiEvent.h **** */
  13:../../libDaisy/src/hid/MidiEvent.h **** 
  14:../../libDaisy/src/hid/MidiEvent.h **** /** Parsed from the Status Byte, these are the common Midi Messages that can be handled. \n
  15:../../libDaisy/src/hid/MidiEvent.h **** At this time only 3-byte messages are correctly parsed into MidiEvents.
  16:../../libDaisy/src/hid/MidiEvent.h **** */
  17:../../libDaisy/src/hid/MidiEvent.h **** enum MidiMessageType
  18:../../libDaisy/src/hid/MidiEvent.h **** {
  19:../../libDaisy/src/hid/MidiEvent.h ****     NoteOff,               /**< & */
  20:../../libDaisy/src/hid/MidiEvent.h ****     NoteOn,                /**< & */
  21:../../libDaisy/src/hid/MidiEvent.h ****     PolyphonicKeyPressure, /**< & */
  22:../../libDaisy/src/hid/MidiEvent.h ****     ControlChange,         /**< & */
  23:../../libDaisy/src/hid/MidiEvent.h ****     ProgramChange,         /**< & */
  24:../../libDaisy/src/hid/MidiEvent.h ****     ChannelPressure,       /**< & */
  25:../../libDaisy/src/hid/MidiEvent.h ****     PitchBend,             /**< & */
  26:../../libDaisy/src/hid/MidiEvent.h ****     SystemCommon,          /**< & */
  27:../../libDaisy/src/hid/MidiEvent.h ****     SystemRealTime,        /**< & */
  28:../../libDaisy/src/hid/MidiEvent.h ****     ChannelMode,           /**< & */
  29:../../libDaisy/src/hid/MidiEvent.h ****     MessageLast,           /**< & */
  30:../../libDaisy/src/hid/MidiEvent.h **** };
  31:../../libDaisy/src/hid/MidiEvent.h **** 
  32:../../libDaisy/src/hid/MidiEvent.h **** enum SystemCommonType
  33:../../libDaisy/src/hid/MidiEvent.h **** {
  34:../../libDaisy/src/hid/MidiEvent.h ****     SystemExclusive,     /**< & */
  35:../../libDaisy/src/hid/MidiEvent.h ****     MTCQuarterFrame,     /**< & */
  36:../../libDaisy/src/hid/MidiEvent.h ****     SongPositionPointer, /**< & */
  37:../../libDaisy/src/hid/MidiEvent.h ****     SongSelect,          /**< & */
  38:../../libDaisy/src/hid/MidiEvent.h ****     SCUndefined0,        /**< & */
  39:../../libDaisy/src/hid/MidiEvent.h ****     SCUndefined1,        /**< & */
  40:../../libDaisy/src/hid/MidiEvent.h ****     TuneRequest,         /**< & */
  41:../../libDaisy/src/hid/MidiEvent.h ****     SysExEnd,            /**< & */
  42:../../libDaisy/src/hid/MidiEvent.h ****     SystemCommonLast,    /**< & */
  43:../../libDaisy/src/hid/MidiEvent.h **** };
  44:../../libDaisy/src/hid/MidiEvent.h **** 
  45:../../libDaisy/src/hid/MidiEvent.h **** enum SystemRealTimeType
  46:../../libDaisy/src/hid/MidiEvent.h **** {
  47:../../libDaisy/src/hid/MidiEvent.h ****     TimingClock,        /**< & */
  48:../../libDaisy/src/hid/MidiEvent.h ****     SRTUndefined0,      /**< & */
  49:../../libDaisy/src/hid/MidiEvent.h ****     Start,              /**< & */
  50:../../libDaisy/src/hid/MidiEvent.h ****     Continue,           /**< & */
  51:../../libDaisy/src/hid/MidiEvent.h ****     Stop,               /**< & */
  52:../../libDaisy/src/hid/MidiEvent.h ****     SRTUndefined1,      /**< & */
  53:../../libDaisy/src/hid/MidiEvent.h ****     ActiveSensing,      /**< & */
  54:../../libDaisy/src/hid/MidiEvent.h ****     Reset,              /**< & */
  55:../../libDaisy/src/hid/MidiEvent.h ****     SystemRealTimeLast, /**< & */
  56:../../libDaisy/src/hid/MidiEvent.h **** };
  57:../../libDaisy/src/hid/MidiEvent.h **** 
  58:../../libDaisy/src/hid/MidiEvent.h **** enum ChannelModeType
  59:../../libDaisy/src/hid/MidiEvent.h **** {
  60:../../libDaisy/src/hid/MidiEvent.h ****     AllSoundOff,         /**< & */
  61:../../libDaisy/src/hid/MidiEvent.h ****     ResetAllControllers, /**< & */
  62:../../libDaisy/src/hid/MidiEvent.h ****     LocalControl,        /**< & */
  63:../../libDaisy/src/hid/MidiEvent.h ****     AllNotesOff,         /**< & */
  64:../../libDaisy/src/hid/MidiEvent.h ****     OmniModeOff,         /**< & */
  65:../../libDaisy/src/hid/MidiEvent.h ****     OmniModeOn,          /**< & */
  66:../../libDaisy/src/hid/MidiEvent.h ****     MonoModeOn,          /**< & */
ARM GAS  C:\Users\jcjco\AppData\Local\Temp\cc6lIF5P.s 			page 47


  67:../../libDaisy/src/hid/MidiEvent.h ****     PolyModeOn,          /**< & */
  68:../../libDaisy/src/hid/MidiEvent.h ****     ChannelModeLast,     /**< & */
  69:../../libDaisy/src/hid/MidiEvent.h **** };
  70:../../libDaisy/src/hid/MidiEvent.h **** 
  71:../../libDaisy/src/hid/MidiEvent.h **** /** Struct containing note, and velocity data for a given channel.
  72:../../libDaisy/src/hid/MidiEvent.h **** Can be made from MidiEvent
  73:../../libDaisy/src/hid/MidiEvent.h **** */
  74:../../libDaisy/src/hid/MidiEvent.h **** struct NoteOffEvent
  75:../../libDaisy/src/hid/MidiEvent.h **** {
  76:../../libDaisy/src/hid/MidiEvent.h ****     int     channel;  /**< & */
  77:../../libDaisy/src/hid/MidiEvent.h ****     uint8_t note;     /**< & */
  78:../../libDaisy/src/hid/MidiEvent.h ****     uint8_t velocity; /**< & */
  79:../../libDaisy/src/hid/MidiEvent.h **** };
  80:../../libDaisy/src/hid/MidiEvent.h **** 
  81:../../libDaisy/src/hid/MidiEvent.h **** 
  82:../../libDaisy/src/hid/MidiEvent.h **** /** Struct containing note, and velocity data for a given channel.
  83:../../libDaisy/src/hid/MidiEvent.h **** Can be made from MidiEvent
  84:../../libDaisy/src/hid/MidiEvent.h **** */
  85:../../libDaisy/src/hid/MidiEvent.h **** struct NoteOnEvent
  86:../../libDaisy/src/hid/MidiEvent.h **** {
  87:../../libDaisy/src/hid/MidiEvent.h ****     int     channel;  /**< & */
  88:../../libDaisy/src/hid/MidiEvent.h ****     uint8_t note;     /**< & */
  89:../../libDaisy/src/hid/MidiEvent.h ****     uint8_t velocity; /**< & */
  90:../../libDaisy/src/hid/MidiEvent.h **** };
  91:../../libDaisy/src/hid/MidiEvent.h **** /** Struct containing note, and pressure data for a given channel.
  92:../../libDaisy/src/hid/MidiEvent.h **** Can be made from MidiEvent
  93:../../libDaisy/src/hid/MidiEvent.h **** */
  94:../../libDaisy/src/hid/MidiEvent.h **** struct PolyphonicKeyPressureEvent
  95:../../libDaisy/src/hid/MidiEvent.h **** {
  96:../../libDaisy/src/hid/MidiEvent.h ****     int     channel;
  97:../../libDaisy/src/hid/MidiEvent.h ****     uint8_t note;
  98:../../libDaisy/src/hid/MidiEvent.h ****     uint8_t pressure;
  99:../../libDaisy/src/hid/MidiEvent.h **** };
 100:../../libDaisy/src/hid/MidiEvent.h **** /** Struct containing control number, and value for a given channel.
 101:../../libDaisy/src/hid/MidiEvent.h **** Can be made from MidiEvent
 102:../../libDaisy/src/hid/MidiEvent.h **** */
 103:../../libDaisy/src/hid/MidiEvent.h **** struct ControlChangeEvent
 104:../../libDaisy/src/hid/MidiEvent.h **** {
 105:../../libDaisy/src/hid/MidiEvent.h ****     int     channel;        /**< & */
 106:../../libDaisy/src/hid/MidiEvent.h ****     uint8_t control_number; /**< & */
 107:../../libDaisy/src/hid/MidiEvent.h ****     uint8_t value;          /**< & */
 108:../../libDaisy/src/hid/MidiEvent.h **** };
 109:../../libDaisy/src/hid/MidiEvent.h **** /** Struct containing new program number, for a given channel.
 110:../../libDaisy/src/hid/MidiEvent.h **** Can be made from MidiEvent
 111:../../libDaisy/src/hid/MidiEvent.h **** */
 112:../../libDaisy/src/hid/MidiEvent.h **** struct ProgramChangeEvent
 113:../../libDaisy/src/hid/MidiEvent.h **** {
 114:../../libDaisy/src/hid/MidiEvent.h ****     int     channel; /**< & */
 115:../../libDaisy/src/hid/MidiEvent.h ****     uint8_t program; /**< & */
 116:../../libDaisy/src/hid/MidiEvent.h **** };
 117:../../libDaisy/src/hid/MidiEvent.h **** /** Struct containing pressure (aftertouch), for a given channel.
 118:../../libDaisy/src/hid/MidiEvent.h **** Can be made from MidiEvent
 119:../../libDaisy/src/hid/MidiEvent.h **** */
 120:../../libDaisy/src/hid/MidiEvent.h **** struct ChannelPressureEvent
 121:../../libDaisy/src/hid/MidiEvent.h **** {
 122:../../libDaisy/src/hid/MidiEvent.h ****     int     channel;  /**< & */
 123:../../libDaisy/src/hid/MidiEvent.h ****     uint8_t pressure; /**< & */
ARM GAS  C:\Users\jcjco\AppData\Local\Temp\cc6lIF5P.s 			page 48


 124:../../libDaisy/src/hid/MidiEvent.h **** };
 125:../../libDaisy/src/hid/MidiEvent.h **** /** Struct containing pitch bend value for a given channel.
 126:../../libDaisy/src/hid/MidiEvent.h **** Can be made from MidiEvent
 127:../../libDaisy/src/hid/MidiEvent.h **** */
 128:../../libDaisy/src/hid/MidiEvent.h **** struct PitchBendEvent
 129:../../libDaisy/src/hid/MidiEvent.h **** {
 130:../../libDaisy/src/hid/MidiEvent.h ****     int     channel; /**< & */
 131:../../libDaisy/src/hid/MidiEvent.h ****     int16_t value;   /**< & */
 132:../../libDaisy/src/hid/MidiEvent.h **** };
 133:../../libDaisy/src/hid/MidiEvent.h **** /** Struct containing channel mode event for a given channel.
 134:../../libDaisy/src/hid/MidiEvent.h **** Can be made from MidiEvent
 135:../../libDaisy/src/hid/MidiEvent.h **** */
 136:../../libDaisy/src/hid/MidiEvent.h **** struct ChannelModeEvent
 137:../../libDaisy/src/hid/MidiEvent.h **** {
 138:../../libDaisy/src/hid/MidiEvent.h ****     int             channel;    /**< & */
 139:../../libDaisy/src/hid/MidiEvent.h ****     ChannelModeType event_type; /**< & */
 140:../../libDaisy/src/hid/MidiEvent.h ****     int16_t         value;      /**< & */
 141:../../libDaisy/src/hid/MidiEvent.h **** };
 142:../../libDaisy/src/hid/MidiEvent.h **** /** Struct containing sysex data.
 143:../../libDaisy/src/hid/MidiEvent.h **** Can be made from MidiEvent
 144:../../libDaisy/src/hid/MidiEvent.h **** */
 145:../../libDaisy/src/hid/MidiEvent.h **** struct SystemExclusiveEvent
 146:../../libDaisy/src/hid/MidiEvent.h **** {
 147:../../libDaisy/src/hid/MidiEvent.h ****     int     length;
 148:../../libDaisy/src/hid/MidiEvent.h ****     uint8_t data[SYSEX_BUFFER_LEN]; /**< & */
 149:../../libDaisy/src/hid/MidiEvent.h **** };
 150:../../libDaisy/src/hid/MidiEvent.h **** /** Struct containing QuarterFrame data.
 151:../../libDaisy/src/hid/MidiEvent.h **** Can be made from MidiEvent
 152:../../libDaisy/src/hid/MidiEvent.h **** */
 153:../../libDaisy/src/hid/MidiEvent.h **** struct MTCQuarterFrameEvent
 154:../../libDaisy/src/hid/MidiEvent.h **** {
 155:../../libDaisy/src/hid/MidiEvent.h ****     uint8_t message_type; /**< & */
 156:../../libDaisy/src/hid/MidiEvent.h ****     uint8_t value;        /**< & */
 157:../../libDaisy/src/hid/MidiEvent.h **** };
 158:../../libDaisy/src/hid/MidiEvent.h **** /** Struct containing song position data.
 159:../../libDaisy/src/hid/MidiEvent.h **** Can be made from MidiEvent
 160:../../libDaisy/src/hid/MidiEvent.h **** */
 161:../../libDaisy/src/hid/MidiEvent.h **** struct SongPositionPointerEvent
 162:../../libDaisy/src/hid/MidiEvent.h **** {
 163:../../libDaisy/src/hid/MidiEvent.h ****     uint16_t position; /**< & */
 164:../../libDaisy/src/hid/MidiEvent.h **** };
 165:../../libDaisy/src/hid/MidiEvent.h **** /** Struct containing song select data.
 166:../../libDaisy/src/hid/MidiEvent.h **** Can be made from MidiEvent
 167:../../libDaisy/src/hid/MidiEvent.h **** */
 168:../../libDaisy/src/hid/MidiEvent.h **** struct SongSelectEvent
 169:../../libDaisy/src/hid/MidiEvent.h **** {
 170:../../libDaisy/src/hid/MidiEvent.h ****     uint8_t song; /**< & */
 171:../../libDaisy/src/hid/MidiEvent.h **** };
 172:../../libDaisy/src/hid/MidiEvent.h **** /** Struct containing sound off data.
 173:../../libDaisy/src/hid/MidiEvent.h **** Can be made from MidiEvent
 174:../../libDaisy/src/hid/MidiEvent.h **** */
 175:../../libDaisy/src/hid/MidiEvent.h **** struct AllSoundOffEvent
 176:../../libDaisy/src/hid/MidiEvent.h **** {
 177:../../libDaisy/src/hid/MidiEvent.h ****     int channel; /**< & */
 178:../../libDaisy/src/hid/MidiEvent.h **** };
 179:../../libDaisy/src/hid/MidiEvent.h **** /** Struct containing ResetAllControllersEvent data.
 180:../../libDaisy/src/hid/MidiEvent.h **** Can be made from MidiEvent
ARM GAS  C:\Users\jcjco\AppData\Local\Temp\cc6lIF5P.s 			page 49


 181:../../libDaisy/src/hid/MidiEvent.h **** */
 182:../../libDaisy/src/hid/MidiEvent.h **** struct ResetAllControllersEvent
 183:../../libDaisy/src/hid/MidiEvent.h **** {
 184:../../libDaisy/src/hid/MidiEvent.h ****     int     channel; /**< & */
 185:../../libDaisy/src/hid/MidiEvent.h ****     uint8_t value;   /**< & */
 186:../../libDaisy/src/hid/MidiEvent.h **** };
 187:../../libDaisy/src/hid/MidiEvent.h **** /** Struct containing LocalControlEvent data.
 188:../../libDaisy/src/hid/MidiEvent.h **** Can be made from MidiEvent
 189:../../libDaisy/src/hid/MidiEvent.h **** */
 190:../../libDaisy/src/hid/MidiEvent.h **** struct LocalControlEvent
 191:../../libDaisy/src/hid/MidiEvent.h **** {
 192:../../libDaisy/src/hid/MidiEvent.h ****     int  channel;           /**< & */
 193:../../libDaisy/src/hid/MidiEvent.h ****     bool local_control_off; /**< & */
 194:../../libDaisy/src/hid/MidiEvent.h ****     bool local_control_on;  /**< & */
 195:../../libDaisy/src/hid/MidiEvent.h **** };
 196:../../libDaisy/src/hid/MidiEvent.h **** /** Struct containing AllNotesOffEvent data.
 197:../../libDaisy/src/hid/MidiEvent.h **** Can be made from MidiEvent
 198:../../libDaisy/src/hid/MidiEvent.h **** */
 199:../../libDaisy/src/hid/MidiEvent.h **** struct AllNotesOffEvent
 200:../../libDaisy/src/hid/MidiEvent.h **** {
 201:../../libDaisy/src/hid/MidiEvent.h ****     int channel; /**< & */
 202:../../libDaisy/src/hid/MidiEvent.h **** };
 203:../../libDaisy/src/hid/MidiEvent.h **** /** Struct containing OmniModeOffEvent data. 
 204:../../libDaisy/src/hid/MidiEvent.h ****  * Can be made from MidiEvent
 205:../../libDaisy/src/hid/MidiEvent.h **** */
 206:../../libDaisy/src/hid/MidiEvent.h **** struct OmniModeOffEvent
 207:../../libDaisy/src/hid/MidiEvent.h **** {
 208:../../libDaisy/src/hid/MidiEvent.h ****     int channel; /**< & */
 209:../../libDaisy/src/hid/MidiEvent.h **** };
 210:../../libDaisy/src/hid/MidiEvent.h **** /** Struct containing OmniModeOnEvent data.
 211:../../libDaisy/src/hid/MidiEvent.h **** Can be made from MidiEvent
 212:../../libDaisy/src/hid/MidiEvent.h **** */
 213:../../libDaisy/src/hid/MidiEvent.h **** struct OmniModeOnEvent
 214:../../libDaisy/src/hid/MidiEvent.h **** {
 215:../../libDaisy/src/hid/MidiEvent.h ****     int channel; /**< & */
 216:../../libDaisy/src/hid/MidiEvent.h **** };
 217:../../libDaisy/src/hid/MidiEvent.h **** /** Struct containing MonoModeOnEvent data.
 218:../../libDaisy/src/hid/MidiEvent.h **** Can be made from MidiEvent
 219:../../libDaisy/src/hid/MidiEvent.h **** */
 220:../../libDaisy/src/hid/MidiEvent.h **** struct MonoModeOnEvent
 221:../../libDaisy/src/hid/MidiEvent.h **** {
 222:../../libDaisy/src/hid/MidiEvent.h ****     int     channel;      /**< & */
 223:../../libDaisy/src/hid/MidiEvent.h ****     uint8_t num_channels; /**< & */
 224:../../libDaisy/src/hid/MidiEvent.h **** };
 225:../../libDaisy/src/hid/MidiEvent.h **** /** Struct containing PolyModeOnEvent data.
 226:../../libDaisy/src/hid/MidiEvent.h **** Can be made from MidiEvent
 227:../../libDaisy/src/hid/MidiEvent.h **** */
 228:../../libDaisy/src/hid/MidiEvent.h **** struct PolyModeOnEvent
 229:../../libDaisy/src/hid/MidiEvent.h **** {
 230:../../libDaisy/src/hid/MidiEvent.h ****     int channel; /**< & */
 231:../../libDaisy/src/hid/MidiEvent.h **** };
 232:../../libDaisy/src/hid/MidiEvent.h **** 
 233:../../libDaisy/src/hid/MidiEvent.h **** 
 234:../../libDaisy/src/hid/MidiEvent.h **** /** Simple MidiEvent with message type, channel, and data[2] members.
 235:../../libDaisy/src/hid/MidiEvent.h **** */
 236:../../libDaisy/src/hid/MidiEvent.h **** struct MidiEvent
 237:../../libDaisy/src/hid/MidiEvent.h **** {
ARM GAS  C:\Users\jcjco\AppData\Local\Temp\cc6lIF5P.s 			page 50


 238:../../libDaisy/src/hid/MidiEvent.h ****     // Newer ish.
 239:../../libDaisy/src/hid/MidiEvent.h ****     MidiMessageType    type;                         /**< & */
 240:../../libDaisy/src/hid/MidiEvent.h ****     int                channel;                      /**< & */
 241:../../libDaisy/src/hid/MidiEvent.h ****     uint8_t            data[2];                      /**< & */
 242:../../libDaisy/src/hid/MidiEvent.h ****     uint8_t            sysex_data[SYSEX_BUFFER_LEN]; /**< & */
 243:../../libDaisy/src/hid/MidiEvent.h ****     uint8_t            sysex_message_len;
 244:../../libDaisy/src/hid/MidiEvent.h ****     SystemCommonType   sc_type;
 245:../../libDaisy/src/hid/MidiEvent.h ****     SystemRealTimeType srt_type;
 246:../../libDaisy/src/hid/MidiEvent.h ****     ChannelModeType    cm_type;
 247:../../libDaisy/src/hid/MidiEvent.h **** 
 248:../../libDaisy/src/hid/MidiEvent.h ****     /** Returns the data within the MidiEvent as a NoteOffEvent struct */
 249:../../libDaisy/src/hid/MidiEvent.h ****     NoteOffEvent AsNoteOff()
 250:../../libDaisy/src/hid/MidiEvent.h ****     {
 251:../../libDaisy/src/hid/MidiEvent.h ****         NoteOffEvent m;
 252:../../libDaisy/src/hid/MidiEvent.h ****         m.channel  = channel;
 253:../../libDaisy/src/hid/MidiEvent.h ****         m.note     = data[0];
 254:../../libDaisy/src/hid/MidiEvent.h ****         m.velocity = data[1];
 255:../../libDaisy/src/hid/MidiEvent.h ****         return m;
 256:../../libDaisy/src/hid/MidiEvent.h ****     }
 257:../../libDaisy/src/hid/MidiEvent.h **** 
 258:../../libDaisy/src/hid/MidiEvent.h ****     /** Returns the data within the MidiEvent as a NoteOnEvent struct */
 259:../../libDaisy/src/hid/MidiEvent.h ****     NoteOnEvent AsNoteOn()
 260:../../libDaisy/src/hid/MidiEvent.h ****     {
 261:../../libDaisy/src/hid/MidiEvent.h ****         NoteOnEvent m;
 262:../../libDaisy/src/hid/MidiEvent.h ****         m.channel  = channel;
 263:../../libDaisy/src/hid/MidiEvent.h ****         m.note     = data[0];
 264:../../libDaisy/src/hid/MidiEvent.h ****         m.velocity = data[1];
 265:../../libDaisy/src/hid/MidiEvent.h ****         return m;
 266:../../libDaisy/src/hid/MidiEvent.h ****     }
 267:../../libDaisy/src/hid/MidiEvent.h **** 
 268:../../libDaisy/src/hid/MidiEvent.h ****     /** Returns the data within the MidiEvent as a PolyphonicKeyPressureEvent struct */
 269:../../libDaisy/src/hid/MidiEvent.h ****     PolyphonicKeyPressureEvent AsPolyphonicKeyPressure()
 270:../../libDaisy/src/hid/MidiEvent.h ****     {
 271:../../libDaisy/src/hid/MidiEvent.h ****         PolyphonicKeyPressureEvent m;
 272:../../libDaisy/src/hid/MidiEvent.h ****         m.channel  = channel;
 273:../../libDaisy/src/hid/MidiEvent.h ****         m.note     = data[0];
 274:../../libDaisy/src/hid/MidiEvent.h ****         m.pressure = data[1];
 275:../../libDaisy/src/hid/MidiEvent.h ****         return m;
 276:../../libDaisy/src/hid/MidiEvent.h ****     }
 277:../../libDaisy/src/hid/MidiEvent.h **** 
 278:../../libDaisy/src/hid/MidiEvent.h ****     /** Returns the data within the MidiEvent as a ControlChangeEvent struct.*/
 279:../../libDaisy/src/hid/MidiEvent.h ****     ControlChangeEvent AsControlChange()
 280:../../libDaisy/src/hid/MidiEvent.h ****     {
 281:../../libDaisy/src/hid/MidiEvent.h ****         ControlChangeEvent m;
 282:../../libDaisy/src/hid/MidiEvent.h ****         m.channel        = channel;
 283:../../libDaisy/src/hid/MidiEvent.h ****         m.control_number = data[0];
 284:../../libDaisy/src/hid/MidiEvent.h ****         m.value          = data[1];
 285:../../libDaisy/src/hid/MidiEvent.h ****         return m;
 286:../../libDaisy/src/hid/MidiEvent.h ****     }
 287:../../libDaisy/src/hid/MidiEvent.h **** 
 288:../../libDaisy/src/hid/MidiEvent.h ****     /** Returns the data within the MidiEvent as a ProgramChangeEvent struct.*/
 289:../../libDaisy/src/hid/MidiEvent.h ****     ProgramChangeEvent AsProgramChange()
 290:../../libDaisy/src/hid/MidiEvent.h ****     {
 291:../../libDaisy/src/hid/MidiEvent.h ****         ProgramChangeEvent m;
 292:../../libDaisy/src/hid/MidiEvent.h ****         m.channel = channel;
 293:../../libDaisy/src/hid/MidiEvent.h ****         m.program = data[0];
 294:../../libDaisy/src/hid/MidiEvent.h ****         return m;
ARM GAS  C:\Users\jcjco\AppData\Local\Temp\cc6lIF5P.s 			page 51


 295:../../libDaisy/src/hid/MidiEvent.h ****     }
 296:../../libDaisy/src/hid/MidiEvent.h **** 
 297:../../libDaisy/src/hid/MidiEvent.h ****     /** Returns the data within the MidiEvent as a ProgramChangeEvent struct.*/
 298:../../libDaisy/src/hid/MidiEvent.h ****     ChannelPressureEvent AsChannelPressure()
 299:../../libDaisy/src/hid/MidiEvent.h ****     {
 300:../../libDaisy/src/hid/MidiEvent.h ****         ChannelPressureEvent m;
 301:../../libDaisy/src/hid/MidiEvent.h ****         m.channel  = channel;
 302:../../libDaisy/src/hid/MidiEvent.h ****         m.pressure = data[0];
 303:../../libDaisy/src/hid/MidiEvent.h ****         return m;
 304:../../libDaisy/src/hid/MidiEvent.h ****     }
 305:../../libDaisy/src/hid/MidiEvent.h **** 
 306:../../libDaisy/src/hid/MidiEvent.h ****     /** Returns the data within the MidiEvent as a PitchBendEvent struct.*/
 307:../../libDaisy/src/hid/MidiEvent.h ****     PitchBendEvent AsPitchBend()
 1098              		.loc 14 307 20 view .LVU289
 1099              	.LBB334:
 308:../../libDaisy/src/hid/MidiEvent.h ****     {
 309:../../libDaisy/src/hid/MidiEvent.h ****         PitchBendEvent m;
 1100              		.loc 14 309 9 view .LVU290
 310:../../libDaisy/src/hid/MidiEvent.h ****         m.channel = channel;
 1101              		.loc 14 310 9 view .LVU291
 311:../../libDaisy/src/hid/MidiEvent.h ****         m.value   = ((uint16_t)data[1] << 7) + (data[0] - 8192);
 1102              		.loc 14 311 9 view .LVU292
 312:../../libDaisy/src/hid/MidiEvent.h ****         return m;
 1103              		.loc 14 312 9 view .LVU293
 1104              		.loc 14 312 9 is_stmt 0 view .LVU294
 1105              	.LBE334:
 1106              	.LBE333:
 112:main.cpp      **** 			{
 1107              		.loc 11 112 13 is_stmt 1 view .LVU295
 112:main.cpp      **** 			{
 1108              		.loc 11 112 26 is_stmt 0 view .LVU296
 1109 002e C64B     		ldr	r3, .L177
 1110 0030 93F88930 		ldrb	r3, [r3, #137]	@ zero_extendqisi2
 112:main.cpp      **** 			{
 1111              		.loc 11 112 13 view .LVU297
 1112 0034 112B     		cmp	r3, #17
 1113 0036 00F04781 		beq	.L77
 112:main.cpp      **** 			{
 1114              		.loc 11 112 61 discriminator 1 view .LVU298
 1115 003a 8B42     		cmp	r3, r1
 1116 003c 00F04481 		beq	.L77
 1117              	.LVL63:
 1118              	.L65:
 112:main.cpp      **** 			{
 1119              		.loc 11 112 61 discriminator 1 view .LVU299
 1120              	.LBE332:
 1121              	.LBE331:
 499:main.cpp      **** 
 1122              		.loc 11 499 1 view .LVU300
 1123 0040 03B0     		add	sp, sp, #12
 1124              		.cfi_remember_state
 1125              		.cfi_def_cfa_offset 36
 1126              		@ sp needed
 1127 0042 BDE8F040 		pop	{r4, r5, r6, r7, lr}
 1128              		.cfi_restore 14
 1129              		.cfi_restore 7
 1130              		.cfi_restore 6
ARM GAS  C:\Users\jcjco\AppData\Local\Temp\cc6lIF5P.s 			page 52


 1131              		.cfi_restore 5
 1132              		.cfi_restore 4
 1133              		.cfi_def_cfa_offset 16
 1134 0046 04B0     		add	sp, sp, #16
 1135              		.cfi_def_cfa_offset 0
 1136 0048 7047     		bx	lr
 1137              	.LVL64:
 1138              	.L72:
 1139              		.cfi_restore_state
  95:main.cpp      ****         {
 1140              		.loc 11 95 9 is_stmt 1 view .LVU301
  96:main.cpp      ****             NoteOnEvent p = m.AsNoteOn();
 1141              		.loc 11 96 9 view .LVU302
 1142              	.LBB379:
 1143              	.LBB339:
  97:main.cpp      ****             if ((vasynth.midi_channel_ == MIDI_CHANNEL_ALL) || (p.channel == vasynth.midi_channel_)
 1144              		.loc 11 97 13 view .LVU303
 1145              	.LBB340:
 1146              	.LBI340:
 259:../../libDaisy/src/hid/MidiEvent.h ****     {
 1147              		.loc 14 259 17 view .LVU304
 1148              	.LBB341:
 261:../../libDaisy/src/hid/MidiEvent.h ****         m.channel  = channel;
 1149              		.loc 14 261 9 view .LVU305
 262:../../libDaisy/src/hid/MidiEvent.h ****         m.note     = data[0];
 1150              		.loc 14 262 9 view .LVU306
 263:../../libDaisy/src/hid/MidiEvent.h ****         m.velocity = data[1];
 1151              		.loc 14 263 9 view .LVU307
 264:../../libDaisy/src/hid/MidiEvent.h ****         return m;
 1152              		.loc 14 264 9 view .LVU308
 265:../../libDaisy/src/hid/MidiEvent.h ****     }
 1153              		.loc 14 265 9 view .LVU309
 265:../../libDaisy/src/hid/MidiEvent.h ****     }
 1154              		.loc 14 265 9 is_stmt 0 view .LVU310
 1155              	.LBE341:
 1156              	.LBE340:
  98:main.cpp      **** 			{
 1157              		.loc 11 98 13 is_stmt 1 view .LVU311
  98:main.cpp      **** 			{
 1158              		.loc 11 98 26 is_stmt 0 view .LVU312
 1159 004a BF4B     		ldr	r3, .L177
 1160 004c 93F88930 		ldrb	r3, [r3, #137]	@ zero_extendqisi2
  98:main.cpp      **** 			{
 1161              		.loc 11 98 13 view .LVU313
 1162 0050 112B     		cmp	r3, #17
 1163 0052 01D0     		beq	.L75
  98:main.cpp      **** 			{
 1164              		.loc 11 98 61 discriminator 1 view .LVU314
 1165 0054 8B42     		cmp	r3, r1
 1166 0056 F3D1     		bne	.L65
 1167              	.L75:
 100:main.cpp      **** 				{
 1168              		.loc 11 100 5 is_stmt 1 view .LVU315
 100:main.cpp      **** 				{
 1169              		.loc 11 100 16 is_stmt 0 view .LVU316
 1170 0058 BC4B     		ldr	r3, .L177+4
 100:main.cpp      **** 				{
ARM GAS  C:\Users\jcjco\AppData\Local\Temp\cc6lIF5P.s 			page 53


 1171              		.loc 11 100 5 view .LVU317
 1172 005a 1B88     		ldrh	r3, [r3]
 1173 005c 012B     		cmp	r3, #1
 1174 005e 00F08783 		beq	.L175
 1175              	.LVL65:
 1176              	.L76:
 104:main.cpp      **** 				hardware.SetLed(false);
 1177              		.loc 11 104 5 is_stmt 1 view .LVU318
 104:main.cpp      **** 				hardware.SetLed(false);
 1178              		.loc 11 104 20 is_stmt 0 view .LVU319
 1179 0062 2146     		mov	r1, r4
 1180 0064 B848     		ldr	r0, .L177
 1181 0066 FFF7FEFF 		bl	_ZN7VASynth7NoteOffEh
 1182              	.LVL66:
 105:main.cpp      **** 			}			
 1183              		.loc 11 105 5 is_stmt 1 view .LVU320
 105:main.cpp      **** 			}			
 1184              		.loc 11 105 20 is_stmt 0 view .LVU321
 1185 006a 0021     		movs	r1, #0
 1186              	.LVL67:
 1187              	.L166:
 105:main.cpp      **** 			}			
 1188              		.loc 11 105 20 view .LVU322
 1189 006c B848     		ldr	r0, .L177+8
 1190              	.LBE339:
 1191              	.LBE379:
 499:main.cpp      **** 
 1192              		.loc 11 499 1 view .LVU323
 1193 006e 03B0     		add	sp, sp, #12
 1194              		.cfi_remember_state
 1195              		.cfi_def_cfa_offset 36
 1196              		@ sp needed
 1197 0070 BDE8F040 		pop	{r4, r5, r6, r7, lr}
 1198              		.cfi_restore 14
 1199              		.cfi_restore 7
 1200              		.cfi_restore 6
 1201              		.cfi_restore 5
 1202              		.cfi_restore 4
 1203              		.cfi_def_cfa_offset 16
 1204              	.LVL68:
 499:main.cpp      **** 
 1205              		.loc 11 499 1 view .LVU324
 1206 0074 04B0     		add	sp, sp, #16
 1207              		.cfi_def_cfa_offset 0
 1208              	.LBB380:
 1209              	.LBB342:
 105:main.cpp      **** 			}			
 1210              		.loc 11 105 20 view .LVU325
 1211 0076 FFF7FEBF 		b	_ZN5daisy9DaisySeed6SetLedEb
 1212              	.LVL69:
 1213              	.L70:
 1214              		.cfi_restore_state
 105:main.cpp      **** 			}			
 1215              		.loc 11 105 20 view .LVU326
 1216              	.LBE342:
 1217              	.LBE380:
 118:main.cpp      ****         {
ARM GAS  C:\Users\jcjco\AppData\Local\Temp\cc6lIF5P.s 			page 54


 1218              		.loc 11 118 9 is_stmt 1 view .LVU327
 119:main.cpp      ****             ControlChangeEvent p = m.AsControlChange();
 1219              		.loc 11 119 9 view .LVU328
 1220              	.LBB381:
 1221              	.LBB343:
 120:main.cpp      ****             switch(p.control_number)
 1222              		.loc 11 120 13 view .LVU329
 1223              	.LBB344:
 1224              	.LBI344:
 279:../../libDaisy/src/hid/MidiEvent.h ****     {
 1225              		.loc 14 279 24 view .LVU330
 1226              	.LBB345:
 281:../../libDaisy/src/hid/MidiEvent.h ****         m.channel        = channel;
 1227              		.loc 14 281 9 view .LVU331
 282:../../libDaisy/src/hid/MidiEvent.h ****         m.control_number = data[0];
 1228              		.loc 14 282 9 view .LVU332
 283:../../libDaisy/src/hid/MidiEvent.h ****         m.value          = data[1];
 1229              		.loc 14 283 9 view .LVU333
 284:../../libDaisy/src/hid/MidiEvent.h ****         return m;
 1230              		.loc 14 284 9 view .LVU334
 285:../../libDaisy/src/hid/MidiEvent.h ****     }
 1231              		.loc 14 285 9 view .LVU335
 285:../../libDaisy/src/hid/MidiEvent.h ****     }
 1232              		.loc 14 285 9 is_stmt 0 view .LVU336
 1233              	.LBE345:
 1234              	.LBE344:
 121:main.cpp      ****             {
 1235              		.loc 11 121 13 is_stmt 1 view .LVU337
 1236 007a 013C     		subs	r4, r4, #1
 1237              	.LVL70:
 121:main.cpp      ****             {
 1238              		.loc 11 121 13 is_stmt 0 view .LVU338
 1239 007c 772C     		cmp	r4, #119
 1240 007e DFD8     		bhi	.L65
 1241 0080 01A3     		adr	r3, .L79
 1242 0082 53F824F0 		ldr	pc, [r3, r4, lsl #2]
 1243 0086 00BF     		.p2align 2
 1244              	.L79:
 1245 0088 BB050000 		.word	.L108+1
 1246 008c 9B050000 		.word	.L107+1
 1247 0090 83050000 		.word	.L106+1
 1248 0094 6B050000 		.word	.L105+1
 1249 0098 4B050000 		.word	.L104+1
 1250 009c 29050000 		.word	.L103+1
 1251 00a0 11050000 		.word	.L102+1
 1252 00a4 F9040000 		.word	.L101+1
 1253 00a8 E1040000 		.word	.L100+1
 1254 00ac C9040000 		.word	.L99+1
 1255 00b0 B1040000 		.word	.L98+1
 1256 00b4 99040000 		.word	.L97+1
 1257 00b8 81040000 		.word	.L96+1
 1258 00bc 5F040000 		.word	.L95+1
 1259 00c0 9D060000 		.word	.L94+1
 1260 00c4 5F060000 		.word	.L93+1
 1261 00c8 47060000 		.word	.L92+1
 1262 00cc 2F060000 		.word	.L91+1
 1263 00d0 25060000 		.word	.L90+1
ARM GAS  C:\Users\jcjco\AppData\Local\Temp\cc6lIF5P.s 			page 55


 1264 00d4 0D060000 		.word	.L89+1
 1265 00d8 F5050000 		.word	.L88+1
 1266 00dc DD050000 		.word	.L87+1
 1267 00e0 3D040000 		.word	.L86+1
 1268 00e4 25040000 		.word	.L85+1
 1269 00e8 03040000 		.word	.L84+1
 1270 00ec E1030000 		.word	.L83+1
 1271 00f0 C3060000 		.word	.L82+1
 1272 00f4 B5060000 		.word	.L81+1
 1273 00f8 41000000 		.word	.L65+1
 1274 00fc 41000000 		.word	.L65+1
 1275 0100 41000000 		.word	.L65+1
 1276 0104 41000000 		.word	.L65+1
 1277 0108 41000000 		.word	.L65+1
 1278 010c 41000000 		.word	.L65+1
 1279 0110 41000000 		.word	.L65+1
 1280 0114 41000000 		.word	.L65+1
 1281 0118 41000000 		.word	.L65+1
 1282 011c 41000000 		.word	.L65+1
 1283 0120 41000000 		.word	.L65+1
 1284 0124 41000000 		.word	.L65+1
 1285 0128 41000000 		.word	.L65+1
 1286 012c 41000000 		.word	.L65+1
 1287 0130 41000000 		.word	.L65+1
 1288 0134 41000000 		.word	.L65+1
 1289 0138 41000000 		.word	.L65+1
 1290 013c 41000000 		.word	.L65+1
 1291 0140 41000000 		.word	.L65+1
 1292 0144 41000000 		.word	.L65+1
 1293 0148 41000000 		.word	.L65+1
 1294 014c 41000000 		.word	.L65+1
 1295 0150 41000000 		.word	.L65+1
 1296 0154 41000000 		.word	.L65+1
 1297 0158 41000000 		.word	.L65+1
 1298 015c 41000000 		.word	.L65+1
 1299 0160 41000000 		.word	.L65+1
 1300 0164 41000000 		.word	.L65+1
 1301 0168 41000000 		.word	.L65+1
 1302 016c 41000000 		.word	.L65+1
 1303 0170 41000000 		.word	.L65+1
 1304 0174 41000000 		.word	.L65+1
 1305 0178 41000000 		.word	.L65+1
 1306 017c 41000000 		.word	.L65+1
 1307 0180 41000000 		.word	.L65+1
 1308 0184 41000000 		.word	.L65+1
 1309 0188 41000000 		.word	.L65+1
 1310 018c 41000000 		.word	.L65+1
 1311 0190 41000000 		.word	.L65+1
 1312 0194 41000000 		.word	.L65+1
 1313 0198 41000000 		.word	.L65+1
 1314 019c 41000000 		.word	.L65+1
 1315 01a0 41000000 		.word	.L65+1
 1316 01a4 41000000 		.word	.L65+1
 1317 01a8 41000000 		.word	.L65+1
 1318 01ac 41000000 		.word	.L65+1
 1319 01b0 41000000 		.word	.L65+1
 1320 01b4 41000000 		.word	.L65+1
ARM GAS  C:\Users\jcjco\AppData\Local\Temp\cc6lIF5P.s 			page 56


 1321 01b8 41000000 		.word	.L65+1
 1322 01bc 41000000 		.word	.L65+1
 1323 01c0 41000000 		.word	.L65+1
 1324 01c4 41000000 		.word	.L65+1
 1325 01c8 41000000 		.word	.L65+1
 1326 01cc 41000000 		.word	.L65+1
 1327 01d0 41000000 		.word	.L65+1
 1328 01d4 41000000 		.word	.L65+1
 1329 01d8 41000000 		.word	.L65+1
 1330 01dc 41000000 		.word	.L65+1
 1331 01e0 41000000 		.word	.L65+1
 1332 01e4 41000000 		.word	.L65+1
 1333 01e8 41000000 		.word	.L65+1
 1334 01ec 41000000 		.word	.L65+1
 1335 01f0 41000000 		.word	.L65+1
 1336 01f4 41000000 		.word	.L65+1
 1337 01f8 41000000 		.word	.L65+1
 1338 01fc 41000000 		.word	.L65+1
 1339 0200 41000000 		.word	.L65+1
 1340 0204 41000000 		.word	.L65+1
 1341 0208 41000000 		.word	.L65+1
 1342 020c 41000000 		.word	.L65+1
 1343 0210 41000000 		.word	.L65+1
 1344 0214 41000000 		.word	.L65+1
 1345 0218 41000000 		.word	.L65+1
 1346 021c 41000000 		.word	.L65+1
 1347 0220 41000000 		.word	.L65+1
 1348 0224 41000000 		.word	.L65+1
 1349 0228 41000000 		.word	.L65+1
 1350 022c 41000000 		.word	.L65+1
 1351 0230 41000000 		.word	.L65+1
 1352 0234 41000000 		.word	.L65+1
 1353 0238 41000000 		.word	.L65+1
 1354 023c 41000000 		.word	.L65+1
 1355 0240 41000000 		.word	.L65+1
 1356 0244 41000000 		.word	.L65+1
 1357 0248 41000000 		.word	.L65+1
 1358 024c 41000000 		.word	.L65+1
 1359 0250 41000000 		.word	.L65+1
 1360 0254 41000000 		.word	.L65+1
 1361 0258 41000000 		.word	.L65+1
 1362 025c 41000000 		.word	.L65+1
 1363 0260 CB030000 		.word	.L80+1
 1364 0264 B5030000 		.word	.L78+1
 1365              	.LVL71:
 1366              		.p2align 1
 1367              	.L71:
 121:main.cpp      ****             {
 1368              		.loc 11 121 13 view .LVU339
 1369              	.LBE343:
 1370              	.LBE381:
  81:main.cpp      ****         {
 1371              		.loc 11 81 9 is_stmt 1 view .LVU340
  82:main.cpp      ****             NoteOnEvent p = m.AsNoteOn();
 1372              		.loc 11 82 9 view .LVU341
 1373              	.LBB382:
 1374              	.LBB346:
ARM GAS  C:\Users\jcjco\AppData\Local\Temp\cc6lIF5P.s 			page 57


  83:main.cpp      ****             if ((vasynth.midi_channel_ == MIDI_CHANNEL_ALL) || (p.channel == vasynth.midi_channel_)
 1375              		.loc 11 83 13 view .LVU342
 1376              	.LBB347:
 1377              	.LBI347:
 259:../../libDaisy/src/hid/MidiEvent.h ****     {
 1378              		.loc 14 259 17 view .LVU343
 1379              	.LBB348:
 261:../../libDaisy/src/hid/MidiEvent.h ****         m.channel  = channel;
 1380              		.loc 14 261 9 view .LVU344
 262:../../libDaisy/src/hid/MidiEvent.h ****         m.note     = data[0];
 1381              		.loc 14 262 9 view .LVU345
 263:../../libDaisy/src/hid/MidiEvent.h ****         m.velocity = data[1];
 1382              		.loc 14 263 9 view .LVU346
 264:../../libDaisy/src/hid/MidiEvent.h ****         return m;
 1383              		.loc 14 264 9 view .LVU347
 265:../../libDaisy/src/hid/MidiEvent.h ****     }
 1384              		.loc 14 265 9 view .LVU348
 265:../../libDaisy/src/hid/MidiEvent.h ****     }
 1385              		.loc 14 265 9 is_stmt 0 view .LVU349
 1386              	.LBE348:
 1387              	.LBE347:
  84:main.cpp      **** 			{
 1388              		.loc 11 84 13 is_stmt 1 view .LVU350
  84:main.cpp      **** 			{
 1389              		.loc 11 84 26 is_stmt 0 view .LVU351
 1390 0268 374B     		ldr	r3, .L177
 1391 026a 93F88930 		ldrb	r3, [r3, #137]	@ zero_extendqisi2
  84:main.cpp      **** 			{
 1392              		.loc 11 84 13 view .LVU352
 1393 026e 112B     		cmp	r3, #17
 1394 0270 02D0     		beq	.L73
  84:main.cpp      **** 			{
 1395              		.loc 11 84 61 discriminator 1 view .LVU353
 1396 0272 8B42     		cmp	r3, r1
 1397 0274 7FF4E4AE 		bne	.L65
 1398              	.L73:
  86:main.cpp      **** 				{
 1399              		.loc 11 86 5 is_stmt 1 view .LVU354
  86:main.cpp      **** 				{
 1400              		.loc 11 86 16 is_stmt 0 view .LVU355
 1401 0278 344B     		ldr	r3, .L177+4
  86:main.cpp      **** 				{
 1402              		.loc 11 86 5 view .LVU356
 1403 027a 1B88     		ldrh	r3, [r3]
 1404 027c 012B     		cmp	r3, #1
 1405 027e 00F06F82 		beq	.L176
 1406              	.LVL72:
 1407              	.L74:
  90:main.cpp      **** 				hardware.SetLed(true);
 1408              		.loc 11 90 5 is_stmt 1 view .LVU357
  90:main.cpp      **** 				hardware.SetLed(true);
 1409              		.loc 11 90 19 is_stmt 0 view .LVU358
 1410 0282 2146     		mov	r1, r4
 1411 0284 3048     		ldr	r0, .L177
 1412 0286 FFF7FEFF 		bl	_ZN7VASynth6NoteOnEhh
 1413              	.LVL73:
  91:main.cpp      **** 			}
ARM GAS  C:\Users\jcjco\AppData\Local\Temp\cc6lIF5P.s 			page 58


 1414              		.loc 11 91 5 is_stmt 1 view .LVU359
  91:main.cpp      **** 			}
 1415              		.loc 11 91 20 is_stmt 0 view .LVU360
 1416 028a 0121     		movs	r1, #1
 1417 028c EEE6     		b	.L166
 1418              	.LVL74:
 1419              	.L69:
  91:main.cpp      **** 			}
 1420              		.loc 11 91 20 view .LVU361
 1421              	.LBE346:
 1422              	.LBE382:
 342:main.cpp      ****         {
 1423              		.loc 11 342 3 is_stmt 1 view .LVU362
 343:main.cpp      ****             ProgramChangeEvent p = m.AsProgramChange();
 1424              		.loc 11 343 9 view .LVU363
 1425              	.LBB383:
 1426              	.LBB349:
 344:main.cpp      ****             if ((vasynth.midi_channel_ == MIDI_CHANNEL_ALL) || (p.channel == vasynth.midi_channel_)
 1427              		.loc 11 344 13 view .LVU364
 1428              	.LBB350:
 1429              	.LBI350:
 289:../../libDaisy/src/hid/MidiEvent.h ****     {
 1430              		.loc 14 289 24 view .LVU365
 1431              	.LBB351:
 291:../../libDaisy/src/hid/MidiEvent.h ****         m.channel = channel;
 1432              		.loc 14 291 9 view .LVU366
 292:../../libDaisy/src/hid/MidiEvent.h ****         m.program = data[0];
 1433              		.loc 14 292 9 view .LVU367
 293:../../libDaisy/src/hid/MidiEvent.h ****         return m;
 1434              		.loc 14 293 9 view .LVU368
 294:../../libDaisy/src/hid/MidiEvent.h ****     }
 1435              		.loc 14 294 9 view .LVU369
 294:../../libDaisy/src/hid/MidiEvent.h ****     }
 1436              		.loc 14 294 9 is_stmt 0 view .LVU370
 1437              	.LBE351:
 1438              	.LBE350:
 345:main.cpp      **** 			{
 1439              		.loc 11 345 13 is_stmt 1 view .LVU371
 345:main.cpp      **** 			{
 1440              		.loc 11 345 26 is_stmt 0 view .LVU372
 1441 028e 2E4B     		ldr	r3, .L177
 1442 0290 93F88930 		ldrb	r3, [r3, #137]	@ zero_extendqisi2
 345:main.cpp      **** 			{
 1443              		.loc 11 345 13 view .LVU373
 1444 0294 112B     		cmp	r3, #17
 1445 0296 02D0     		beq	.L126
 345:main.cpp      **** 			{
 1446              		.loc 11 345 61 discriminator 1 view .LVU374
 1447 0298 8B42     		cmp	r3, r1
 1448 029a 7FF4D1AE 		bne	.L65
 1449              	.L126:
 347:main.cpp      **** 				{
 1450              		.loc 11 347 5 is_stmt 1 view .LVU375
 1451 029e 1C2C     		cmp	r4, #28
 1452 02a0 40F25682 		bls	.L127
 349:main.cpp      **** 					{
 1453              		.loc 11 349 6 view .LVU376
ARM GAS  C:\Users\jcjco\AppData\Local\Temp\cc6lIF5P.s 			page 59


 1454 02a4 233C     		subs	r4, r4, #35
 1455              	.LVL75:
 349:main.cpp      **** 					{
 1456              		.loc 11 349 6 is_stmt 0 view .LVU377
 1457 02a6 172C     		cmp	r4, #23
 1458 02a8 3FF6CAAE 		bhi	.L65
 1459 02ac DFE804F0 		tbb	[pc, r4]
 1460              	.L129:
 1461 02b0 7B       		.byte	(.L152-.L129)/2
 1462 02b1 67       		.byte	(.L151-.L129)/2
 1463 02b2 5D       		.byte	(.L150-.L129)/2
 1464 02b3 52       		.byte	(.L149-.L129)/2
 1465 02b4 4A       		.byte	(.L148-.L129)/2
 1466 02b5 48       		.byte	(.L147-.L129)/2
 1467 02b6 46       		.byte	(.L146-.L129)/2
 1468 02b7 44       		.byte	(.L145-.L129)/2
 1469 02b8 42       		.byte	(.L144-.L129)/2
 1470 02b9 40       		.byte	(.L143-.L129)/2
 1471 02ba 3E       		.byte	(.L142-.L129)/2
 1472 02bb 3C       		.byte	(.L141-.L129)/2
 1473 02bc 3A       		.byte	(.L140-.L129)/2
 1474 02bd 32       		.byte	(.L139-.L129)/2
 1475 02be 30       		.byte	(.L138-.L129)/2
 1476 02bf 2E       		.byte	(.L137-.L129)/2
 1477 02c0 2C       		.byte	(.L136-.L129)/2
 1478 02c1 2A       		.byte	(.L135-.L129)/2
 1479 02c2 28       		.byte	(.L134-.L129)/2
 1480 02c3 26       		.byte	(.L133-.L129)/2
 1481 02c4 24       		.byte	(.L132-.L129)/2
 1482 02c5 22       		.byte	(.L131-.L129)/2
 1483 02c6 20       		.byte	(.L130-.L129)/2
 1484 02c7 18       		.byte	(.L128-.L129)/2
 1485              	.LVL76:
 1486              		.p2align 1
 1487              	.L77:
 349:main.cpp      **** 					{
 1488              		.loc 11 349 6 view .LVU378
 1489              	.LBE349:
 1490              	.LBB362:
 114:main.cpp      **** 			}			
 1491              		.loc 11 114 5 is_stmt 1 view .LVU379
 1492              	.LBB337:
 1493              	.LBB335:
 311:../../libDaisy/src/hid/MidiEvent.h ****         return m;
 1494              		.loc 14 311 46 is_stmt 0 view .LVU380
 1495 02c8 A4F50054 		sub	r4, r4, #8192
 1496              	.LVL77:
 311:../../libDaisy/src/hid/MidiEvent.h ****         return m;
 1497              		.loc 14 311 46 view .LVU381
 1498              	.LBE335:
 1499              	.LBE337:
 114:main.cpp      **** 			}			
 1500              		.loc 11 114 22 view .LVU382
 1501 02cc 1E48     		ldr	r0, .L177
 1502              	.LBB338:
 1503              	.LBB336:
 311:../../libDaisy/src/hid/MidiEvent.h ****         return m;
ARM GAS  C:\Users\jcjco\AppData\Local\Temp\cc6lIF5P.s 			page 60


 1504              		.loc 14 311 46 view .LVU383
 1505 02ce 04EBC214 		add	r4, r4, r2, lsl #7
 1506              	.LVL78:
 311:../../libDaisy/src/hid/MidiEvent.h ****         return m;
 1507              		.loc 14 311 46 view .LVU384
 1508              	.LBE336:
 1509              	.LBE338:
 114:main.cpp      **** 			}			
 1510              		.loc 11 114 22 view .LVU385
 1511 02d2 21B2     		sxth	r1, r4
 1512              	.LBE362:
 1513              	.LBE383:
 499:main.cpp      **** 
 1514              		.loc 11 499 1 view .LVU386
 1515 02d4 03B0     		add	sp, sp, #12
 1516              		.cfi_remember_state
 1517              		.cfi_def_cfa_offset 36
 1518              		@ sp needed
 1519 02d6 BDE8F040 		pop	{r4, r5, r6, r7, lr}
 1520              		.cfi_restore 14
 1521              		.cfi_restore 7
 1522              		.cfi_restore 6
 1523              		.cfi_restore 5
 1524              		.cfi_restore 4
 1525              		.cfi_def_cfa_offset 16
 1526 02da 04B0     		add	sp, sp, #16
 1527              		.cfi_def_cfa_offset 0
 1528              	.LBB384:
 1529              	.LBB363:
 114:main.cpp      **** 			}			
 1530              		.loc 11 114 22 view .LVU387
 1531 02dc FFF7FEBF 		b	_ZN7VASynth9PitchBendEs
 1532              	.LVL79:
 1533              	.L128:
 1534              		.cfi_restore_state
 114:main.cpp      **** 			}			
 1535              		.loc 11 114 22 view .LVU388
 1536              	.LBE363:
 1537              	.LBB364:
 483:main.cpp      **** 						{
 1538              		.loc 11 483 7 is_stmt 1 view .LVU389
 484:main.cpp      **** 							vasynth.FlashSave(9);
 1539              		.loc 11 484 7 view .LVU390
 485:main.cpp      **** 							break;
 1540              		.loc 11 485 8 view .LVU391
 485:main.cpp      **** 							break;
 1541              		.loc 11 485 25 is_stmt 0 view .LVU392
 1542 02e0 0921     		movs	r1, #9
 1543              	.L169:
 1544 02e2 1948     		ldr	r0, .L177
 1545              	.LBE364:
 1546              	.LBE384:
 499:main.cpp      **** 
 1547              		.loc 11 499 1 view .LVU393
 1548 02e4 03B0     		add	sp, sp, #12
 1549              		.cfi_remember_state
 1550              		.cfi_def_cfa_offset 36
ARM GAS  C:\Users\jcjco\AppData\Local\Temp\cc6lIF5P.s 			page 61


 1551              		@ sp needed
 1552 02e6 BDE8F040 		pop	{r4, r5, r6, r7, lr}
 1553              		.cfi_restore 14
 1554              		.cfi_restore 7
 1555              		.cfi_restore 6
 1556              		.cfi_restore 5
 1557              		.cfi_restore 4
 1558              		.cfi_def_cfa_offset 16
 1559              	.LVL80:
 499:main.cpp      **** 
 1560              		.loc 11 499 1 view .LVU394
 1561 02ea 04B0     		add	sp, sp, #16
 1562              		.cfi_def_cfa_offset 0
 1563              	.LBB385:
 1564              	.LBB365:
 485:main.cpp      **** 							break;
 1565              		.loc 11 485 25 view .LVU395
 1566 02ec FFF7FEBF 		b	_ZN7VASynth9FlashSaveEh
 1567              	.LVL81:
 1568              	.L130:
 1569              		.cfi_restore_state
 478:main.cpp      **** 						{
 1570              		.loc 11 478 7 is_stmt 1 view .LVU396
 479:main.cpp      **** 							vasynth.FlashSave(8);
 1571              		.loc 11 479 7 view .LVU397
 480:main.cpp      **** 							break;
 1572              		.loc 11 480 8 view .LVU398
 480:main.cpp      **** 							break;
 1573              		.loc 11 480 25 is_stmt 0 view .LVU399
 1574 02f0 0821     		movs	r1, #8
 1575 02f2 F6E7     		b	.L169
 1576              	.L131:
 473:main.cpp      **** 						{
 1577              		.loc 11 473 7 is_stmt 1 view .LVU400
 474:main.cpp      **** 							vasynth.FlashSave(7);
 1578              		.loc 11 474 7 view .LVU401
 475:main.cpp      **** 							break;
 1579              		.loc 11 475 8 view .LVU402
 475:main.cpp      **** 							break;
 1580              		.loc 11 475 25 is_stmt 0 view .LVU403
 1581 02f4 0721     		movs	r1, #7
 1582 02f6 F4E7     		b	.L169
 1583              	.L132:
 468:main.cpp      **** 						{
 1584              		.loc 11 468 7 is_stmt 1 view .LVU404
 469:main.cpp      **** 							vasynth.FlashSave(6);
 1585              		.loc 11 469 7 view .LVU405
 470:main.cpp      **** 							break;
 1586              		.loc 11 470 8 view .LVU406
 470:main.cpp      **** 							break;
 1587              		.loc 11 470 25 is_stmt 0 view .LVU407
 1588 02f8 0621     		movs	r1, #6
 1589 02fa F2E7     		b	.L169
 1590              	.L133:
 463:main.cpp      **** 						{
 1591              		.loc 11 463 7 is_stmt 1 view .LVU408
 464:main.cpp      **** 							vasynth.FlashSave(5);
ARM GAS  C:\Users\jcjco\AppData\Local\Temp\cc6lIF5P.s 			page 62


 1592              		.loc 11 464 7 view .LVU409
 465:main.cpp      **** 							break;
 1593              		.loc 11 465 8 view .LVU410
 465:main.cpp      **** 							break;
 1594              		.loc 11 465 25 is_stmt 0 view .LVU411
 1595 02fc 0521     		movs	r1, #5
 1596 02fe F0E7     		b	.L169
 1597              	.L134:
 458:main.cpp      **** 						{
 1598              		.loc 11 458 7 is_stmt 1 view .LVU412
 459:main.cpp      **** 							vasynth.FlashSave(4);
 1599              		.loc 11 459 7 view .LVU413
 460:main.cpp      **** 							break;
 1600              		.loc 11 460 8 view .LVU414
 460:main.cpp      **** 							break;
 1601              		.loc 11 460 25 is_stmt 0 view .LVU415
 1602 0300 0421     		movs	r1, #4
 1603 0302 EEE7     		b	.L169
 1604              	.L135:
 453:main.cpp      **** 						{
 1605              		.loc 11 453 7 is_stmt 1 view .LVU416
 454:main.cpp      **** 							vasynth.FlashSave(3);
 1606              		.loc 11 454 7 view .LVU417
 455:main.cpp      **** 							break;
 1607              		.loc 11 455 8 view .LVU418
 455:main.cpp      **** 							break;
 1608              		.loc 11 455 25 is_stmt 0 view .LVU419
 1609 0304 0321     		movs	r1, #3
 1610 0306 ECE7     		b	.L169
 1611              	.L136:
 448:main.cpp      **** 						{
 1612              		.loc 11 448 7 is_stmt 1 view .LVU420
 449:main.cpp      **** 							vasynth.FlashSave(2);
 1613              		.loc 11 449 7 view .LVU421
 450:main.cpp      **** 							break;
 1614              		.loc 11 450 8 view .LVU422
 450:main.cpp      **** 							break;
 1615              		.loc 11 450 25 is_stmt 0 view .LVU423
 1616 0308 0221     		movs	r1, #2
 1617 030a EAE7     		b	.L169
 1618              	.L137:
 443:main.cpp      **** 						{
 1619              		.loc 11 443 7 is_stmt 1 view .LVU424
 444:main.cpp      **** 							vasynth.FlashSave(1);
 1620              		.loc 11 444 7 view .LVU425
 445:main.cpp      **** 							break;
 1621              		.loc 11 445 8 view .LVU426
 445:main.cpp      **** 							break;
 1622              		.loc 11 445 25 is_stmt 0 view .LVU427
 1623 030c 0121     		movs	r1, #1
 1624 030e E8E7     		b	.L169
 1625              	.L138:
 438:main.cpp      **** 						{
 1626              		.loc 11 438 7 is_stmt 1 view .LVU428
 439:main.cpp      **** 							vasynth.FlashSave(0);
 1627              		.loc 11 439 7 view .LVU429
 440:main.cpp      **** 							break;
ARM GAS  C:\Users\jcjco\AppData\Local\Temp\cc6lIF5P.s 			page 63


 1628              		.loc 11 440 8 view .LVU430
 440:main.cpp      **** 							break;
 1629              		.loc 11 440 25 is_stmt 0 view .LVU431
 1630 0310 0021     		movs	r1, #0
 1631 0312 E6E7     		b	.L169
 1632              	.L139:
 433:main.cpp      **** 						{
 1633              		.loc 11 433 7 is_stmt 1 view .LVU432
 434:main.cpp      **** 							vasynth.FlashLoad(9);
 1634              		.loc 11 434 7 view .LVU433
 435:main.cpp      **** 							break;
 1635              		.loc 11 435 8 view .LVU434
 435:main.cpp      **** 							break;
 1636              		.loc 11 435 25 is_stmt 0 view .LVU435
 1637 0314 0921     		movs	r1, #9
 1638              	.L171:
 1639 0316 0C48     		ldr	r0, .L177
 1640              	.LBE365:
 1641              	.LBE385:
 499:main.cpp      **** 
 1642              		.loc 11 499 1 view .LVU436
 1643 0318 03B0     		add	sp, sp, #12
 1644              		.cfi_remember_state
 1645              		.cfi_def_cfa_offset 36
 1646              		@ sp needed
 1647 031a BDE8F040 		pop	{r4, r5, r6, r7, lr}
 1648              		.cfi_restore 14
 1649              		.cfi_restore 7
 1650              		.cfi_restore 6
 1651              		.cfi_restore 5
 1652              		.cfi_restore 4
 1653              		.cfi_def_cfa_offset 16
 1654 031e 04B0     		add	sp, sp, #16
 1655              		.cfi_def_cfa_offset 0
 1656              	.LBB386:
 1657              	.LBB366:
 435:main.cpp      **** 							break;
 1658              		.loc 11 435 25 view .LVU437
 1659 0320 FFF7FEBF 		b	_ZN7VASynth9FlashLoadEh
 1660              	.LVL82:
 1661              	.L140:
 1662              		.cfi_restore_state
 428:main.cpp      **** 						{
 1663              		.loc 11 428 7 is_stmt 1 view .LVU438
 429:main.cpp      **** 							vasynth.FlashLoad(8);
 1664              		.loc 11 429 7 view .LVU439
 430:main.cpp      **** 							break;
 1665              		.loc 11 430 8 view .LVU440
 430:main.cpp      **** 							break;
 1666              		.loc 11 430 25 is_stmt 0 view .LVU441
 1667 0324 0821     		movs	r1, #8
 1668 0326 F6E7     		b	.L171
 1669              	.L141:
 423:main.cpp      **** 						{
 1670              		.loc 11 423 7 is_stmt 1 view .LVU442
 424:main.cpp      **** 							vasynth.FlashLoad(7);
 1671              		.loc 11 424 7 view .LVU443
ARM GAS  C:\Users\jcjco\AppData\Local\Temp\cc6lIF5P.s 			page 64


 425:main.cpp      **** 							break;
 1672              		.loc 11 425 8 view .LVU444
 425:main.cpp      **** 							break;
 1673              		.loc 11 425 25 is_stmt 0 view .LVU445
 1674 0328 0721     		movs	r1, #7
 1675 032a F4E7     		b	.L171
 1676              	.L142:
 418:main.cpp      **** 						{
 1677              		.loc 11 418 7 is_stmt 1 view .LVU446
 419:main.cpp      **** 							vasynth.FlashLoad(6);
 1678              		.loc 11 419 7 view .LVU447
 420:main.cpp      **** 							break;
 1679              		.loc 11 420 8 view .LVU448
 420:main.cpp      **** 							break;
 1680              		.loc 11 420 25 is_stmt 0 view .LVU449
 1681 032c 0621     		movs	r1, #6
 1682 032e F2E7     		b	.L171
 1683              	.L143:
 413:main.cpp      **** 						{
 1684              		.loc 11 413 7 is_stmt 1 view .LVU450
 414:main.cpp      **** 							vasynth.FlashLoad(5);
 1685              		.loc 11 414 7 view .LVU451
 415:main.cpp      **** 							break;
 1686              		.loc 11 415 8 view .LVU452
 415:main.cpp      **** 							break;
 1687              		.loc 11 415 25 is_stmt 0 view .LVU453
 1688 0330 0521     		movs	r1, #5
 1689 0332 F0E7     		b	.L171
 1690              	.L144:
 408:main.cpp      **** 						{
 1691              		.loc 11 408 7 is_stmt 1 view .LVU454
 409:main.cpp      **** 							vasynth.FlashLoad(4);
 1692              		.loc 11 409 7 view .LVU455
 410:main.cpp      **** 							break;
 1693              		.loc 11 410 8 view .LVU456
 410:main.cpp      **** 							break;
 1694              		.loc 11 410 25 is_stmt 0 view .LVU457
 1695 0334 0421     		movs	r1, #4
 1696 0336 EEE7     		b	.L171
 1697              	.L145:
 403:main.cpp      **** 						{
 1698              		.loc 11 403 7 is_stmt 1 view .LVU458
 404:main.cpp      **** 							vasynth.FlashLoad(3);
 1699              		.loc 11 404 7 view .LVU459
 405:main.cpp      **** 							break;
 1700              		.loc 11 405 8 view .LVU460
 405:main.cpp      **** 							break;
 1701              		.loc 11 405 25 is_stmt 0 view .LVU461
 1702 0338 0321     		movs	r1, #3
 1703 033a ECE7     		b	.L171
 1704              	.L146:
 398:main.cpp      **** 						{
 1705              		.loc 11 398 7 is_stmt 1 view .LVU462
 399:main.cpp      **** 							vasynth.FlashLoad(2);
 1706              		.loc 11 399 7 view .LVU463
 400:main.cpp      **** 							break;
 1707              		.loc 11 400 8 view .LVU464
ARM GAS  C:\Users\jcjco\AppData\Local\Temp\cc6lIF5P.s 			page 65


 400:main.cpp      **** 							break;
 1708              		.loc 11 400 25 is_stmt 0 view .LVU465
 1709 033c 0221     		movs	r1, #2
 1710 033e EAE7     		b	.L171
 1711              	.L147:
 393:main.cpp      **** 						{
 1712              		.loc 11 393 7 is_stmt 1 view .LVU466
 394:main.cpp      **** 							vasynth.FlashLoad(1);
 1713              		.loc 11 394 7 view .LVU467
 395:main.cpp      **** 							break;
 1714              		.loc 11 395 8 view .LVU468
 395:main.cpp      **** 							break;
 1715              		.loc 11 395 25 is_stmt 0 view .LVU469
 1716 0340 0121     		movs	r1, #1
 1717 0342 E8E7     		b	.L171
 1718              	.L148:
 388:main.cpp      **** 						{
 1719              		.loc 11 388 7 is_stmt 1 view .LVU470
 389:main.cpp      **** 							vasynth.FlashLoad(0);
 1720              		.loc 11 389 7 view .LVU471
 390:main.cpp      **** 							break;
 1721              		.loc 11 390 8 view .LVU472
 390:main.cpp      **** 							break;
 1722              		.loc 11 390 25 is_stmt 0 view .LVU473
 1723 0344 0021     		movs	r1, #0
 1724 0346 E6E7     		b	.L171
 1725              	.L178:
 1726              		.align	2
 1727              	.L177:
 1728 0348 00000000 		.word	.LANCHOR1
 1729 034c 00000000 		.word	.LANCHOR8
 1730 0350 00000000 		.word	.LANCHOR9
 1731              	.L149:
 380:main.cpp      **** 						{
 1732              		.loc 11 380 7 is_stmt 1 view .LVU474
 381:main.cpp      **** 							// Sequencer Mode Play
 1733              		.loc 11 381 7 view .LVU475
 383:main.cpp      **** 							seqclock = 0;
 1734              		.loc 11 383 8 view .LVU476
 384:main.cpp      **** 							seqmem = 0x00010000;
 1735              		.loc 11 384 17 is_stmt 0 view .LVU477
 1736 0354 C84A     		ldr	r2, .L179
 1737              	.LVL83:
 384:main.cpp      **** 							seqmem = 0x00010000;
 1738              		.loc 11 384 17 view .LVU478
 1739 0356 0021     		movs	r1, #0
 383:main.cpp      **** 							seqclock = 0;
 1740              		.loc 11 383 16 view .LVU479
 1741 0358 C848     		ldr	r0, .L179+4
 1742 035a 0324     		movs	r4, #3
 385:main.cpp      **** 							break;
 1743              		.loc 11 385 15 view .LVU480
 1744 035c C84B     		ldr	r3, .L179+8
 384:main.cpp      **** 							seqmem = 0x00010000;
 1745              		.loc 11 384 17 view .LVU481
 1746 035e 1180     		strh	r1, [r2]	@ movhi
 385:main.cpp      **** 							break;
ARM GAS  C:\Users\jcjco\AppData\Local\Temp\cc6lIF5P.s 			page 66


 1747              		.loc 11 385 15 view .LVU482
 1748 0360 4FF48032 		mov	r2, #65536
 383:main.cpp      **** 							seqclock = 0;
 1749              		.loc 11 383 16 view .LVU483
 1750 0364 0480     		strh	r4, [r0]	@ movhi
 384:main.cpp      **** 							seqmem = 0x00010000;
 1751              		.loc 11 384 8 is_stmt 1 view .LVU484
 385:main.cpp      **** 							break;
 1752              		.loc 11 385 8 view .LVU485
 385:main.cpp      **** 							break;
 1753              		.loc 11 385 15 is_stmt 0 view .LVU486
 1754 0366 1A60     		str	r2, [r3]
 386:main.cpp      **** 						}
 1755              		.loc 11 386 8 is_stmt 1 view .LVU487
 1756 0368 6AE6     		b	.L65
 1757              	.LVL84:
 1758              	.L150:
 372:main.cpp      **** 						{
 1759              		.loc 11 372 7 view .LVU488
 373:main.cpp      **** 							// Sequencer Mode Stop
 1760              		.loc 11 373 7 view .LVU489
 375:main.cpp      **** 							seqclock = 0;
 1761              		.loc 11 375 8 view .LVU490
 375:main.cpp      **** 							seqclock = 0;
 1762              		.loc 11 375 16 is_stmt 0 view .LVU491
 1763 036a 0023     		movs	r3, #0
 1764 036c C34C     		ldr	r4, .L179+4
 376:main.cpp      **** 							seqmem = 0x00010000;
 1765              		.loc 11 376 17 view .LVU492
 1766 036e C248     		ldr	r0, .L179
 377:main.cpp      **** 							break;
 1767              		.loc 11 377 15 view .LVU493
 1768 0370 4FF48031 		mov	r1, #65536
 1769 0374 C24A     		ldr	r2, .L179+8
 1770              	.LVL85:
 375:main.cpp      **** 							seqclock = 0;
 1771              		.loc 11 375 16 view .LVU494
 1772 0376 2380     		strh	r3, [r4]	@ movhi
 376:main.cpp      **** 							seqmem = 0x00010000;
 1773              		.loc 11 376 8 is_stmt 1 view .LVU495
 376:main.cpp      **** 							seqmem = 0x00010000;
 1774              		.loc 11 376 17 is_stmt 0 view .LVU496
 1775 0378 0380     		strh	r3, [r0]	@ movhi
 377:main.cpp      **** 							break;
 1776              		.loc 11 377 8 is_stmt 1 view .LVU497
 377:main.cpp      **** 							break;
 1777              		.loc 11 377 15 is_stmt 0 view .LVU498
 1778 037a 1160     		str	r1, [r2]
 378:main.cpp      **** 						}
 1779              		.loc 11 378 8 is_stmt 1 view .LVU499
 1780 037c 60E6     		b	.L65
 1781              	.LVL86:
 1782              	.L151:
 358:main.cpp      **** 						{
 1783              		.loc 11 358 7 view .LVU500
 359:main.cpp      **** 							// Sequencer Mode Record End
 1784              		.loc 11 359 7 view .LVU501
ARM GAS  C:\Users\jcjco\AppData\Local\Temp\cc6lIF5P.s 			page 67


 361:main.cpp      **** 							// Place a time-stamp and stop marker at the current position and stop the sequencer
 1785              		.loc 11 361 8 view .LVU502
 363:main.cpp      **** 							seqmem++;
 1786              		.loc 11 363 8 view .LVU503
 363:main.cpp      **** 							seqmem++;
 1787              		.loc 11 363 21 is_stmt 0 view .LVU504
 1788 037e C04B     		ldr	r3, .L179+8
 1789              	.LBB352:
 1790              	.LBB353:
 608:main.cpp      **** }
 1791              		.loc 11 608 60 view .LVU505
 1792 0380 4FF6FF7E 		movw	lr, #65535
 1793              	.LBE353:
 1794              	.LBE352:
 363:main.cpp      **** 							seqmem++;
 1795              		.loc 11 363 21 view .LVU506
 1796 0384 BC4A     		ldr	r2, .L179
 1797              	.LVL87:
 367:main.cpp      **** 							seqclock = 0;
 1798              		.loc 11 367 16 view .LVU507
 1799 0386 0021     		movs	r1, #0
 363:main.cpp      **** 							seqmem++;
 1800              		.loc 11 363 21 view .LVU508
 1801 0388 1868     		ldr	r0, [r3]
 1802 038a 1688     		ldrh	r6, [r2]
 1803              	.LVL88:
 1804              	.LBB356:
 1805              	.LBI356:
 605:main.cpp      **** {
 1806              		.loc 11 605 6 is_stmt 1 view .LVU509
 1807              	.LBB357:
 608:main.cpp      **** }
 1808              		.loc 11 608 3 view .LVU510
 608:main.cpp      **** }
 1809              		.loc 11 608 48 is_stmt 0 view .LVU511
 1810 038c 00F10055 		add	r5, r0, #536870912
 1811              	.LBE357:
 1812              	.LBE356:
 1813              	.LBB359:
 1814              	.LBB354:
 1815 0390 BC4F     		ldr	r7, .L179+12
 1816              	.LBE354:
 1817              	.LBE359:
 367:main.cpp      **** 							seqclock = 0;
 1818              		.loc 11 367 16 view .LVU512
 1819 0392 BA4C     		ldr	r4, .L179+4
 1820              	.LBB360:
 1821              	.LBB358:
 608:main.cpp      **** }
 1822              		.loc 11 608 60 view .LVU513
 1823 0394 2E80     		strh	r6, [r5]	@ movhi
 1824              	.LVL89:
 608:main.cpp      **** }
 1825              		.loc 11 608 60 view .LVU514
 1826              	.LBE358:
 1827              	.LBE360:
 364:main.cpp      **** 							seqmem++;
ARM GAS  C:\Users\jcjco\AppData\Local\Temp\cc6lIF5P.s 			page 68


 1828              		.loc 11 364 8 is_stmt 1 view .LVU515
 365:main.cpp      **** 							writeSramWord(seqmem, 0xFFFF);
 1829              		.loc 11 365 8 view .LVU516
 366:main.cpp      **** 							seqmode = 0;
 1830              		.loc 11 366 8 view .LVU517
 1831              	.LBB361:
 1832              	.LBI352:
 605:main.cpp      **** {
 1833              		.loc 11 605 6 view .LVU518
 1834              	.LBB355:
 608:main.cpp      **** }
 1835              		.loc 11 608 3 view .LVU519
 608:main.cpp      **** }
 1836              		.loc 11 608 60 is_stmt 0 view .LVU520
 1837 0396 20F807E0 		strh	lr, [r0, r7]	@ movhi
 1838              	.LVL90:
 608:main.cpp      **** }
 1839              		.loc 11 608 60 view .LVU521
 1840              	.LBE355:
 1841              	.LBE361:
 367:main.cpp      **** 							seqclock = 0;
 1842              		.loc 11 367 8 is_stmt 1 view .LVU522
 369:main.cpp      **** 							break;
 1843              		.loc 11 369 15 is_stmt 0 view .LVU523
 1844 039a 4FF48030 		mov	r0, #65536
 367:main.cpp      **** 							seqclock = 0;
 1845              		.loc 11 367 16 view .LVU524
 1846 039e 2180     		strh	r1, [r4]	@ movhi
 368:main.cpp      **** 							seqmem = 0x00010000;
 1847              		.loc 11 368 8 is_stmt 1 view .LVU525
 368:main.cpp      **** 							seqmem = 0x00010000;
 1848              		.loc 11 368 17 is_stmt 0 view .LVU526
 1849 03a0 1180     		strh	r1, [r2]	@ movhi
 369:main.cpp      **** 							break;
 1850              		.loc 11 369 8 is_stmt 1 view .LVU527
 369:main.cpp      **** 							break;
 1851              		.loc 11 369 15 is_stmt 0 view .LVU528
 1852 03a2 1860     		str	r0, [r3]
 370:main.cpp      **** 						}
 1853              		.loc 11 370 8 is_stmt 1 view .LVU529
 1854 03a4 4CE6     		b	.L65
 1855              	.LVL91:
 1856              	.L152:
 351:main.cpp      **** 						{
 1857              		.loc 11 351 7 view .LVU530
 352:main.cpp      **** 							// Sequencer Mode Record
 1858              		.loc 11 352 7 view .LVU531
 354:main.cpp      **** 							seqclock = 0;
 1859              		.loc 11 354 8 view .LVU532
 354:main.cpp      **** 							seqclock = 0;
 1860              		.loc 11 354 16 is_stmt 0 view .LVU533
 1861 03a6 B549     		ldr	r1, .L179+4
 1862 03a8 0120     		movs	r0, #1
 355:main.cpp      **** 							break;
 1863              		.loc 11 355 17 view .LVU534
 1864 03aa B34B     		ldr	r3, .L179
 1865 03ac 0022     		movs	r2, #0
ARM GAS  C:\Users\jcjco\AppData\Local\Temp\cc6lIF5P.s 			page 69


 1866              	.LVL92:
 354:main.cpp      **** 							seqclock = 0;
 1867              		.loc 11 354 16 view .LVU535
 1868 03ae 0880     		strh	r0, [r1]	@ movhi
 355:main.cpp      **** 							break;
 1869              		.loc 11 355 8 is_stmt 1 view .LVU536
 355:main.cpp      **** 							break;
 1870              		.loc 11 355 17 is_stmt 0 view .LVU537
 1871 03b0 1A80     		strh	r2, [r3]	@ movhi
 356:main.cpp      **** 						}
 1872              		.loc 11 356 8 is_stmt 1 view .LVU538
 1873 03b2 45E6     		b	.L65
 1874              	.LVL93:
 1875              	.L78:
 356:main.cpp      **** 						}
 1876              		.loc 11 356 8 is_stmt 0 view .LVU539
 1877              	.LBE366:
 1878              	.LBB367:
 149:main.cpp      **** 						{
 1879              		.loc 11 149 7 is_stmt 1 discriminator 6 view .LVU540
 150:main.cpp      **** 							switch(p.value >> 5)
 1880              		.loc 11 150 7 discriminator 6 view .LVU541
 151:main.cpp      **** 							{
 1881              		.loc 11 151 8 discriminator 6 view .LVU542
 1882 03b4 5309     		lsrs	r3, r2, #5
 1883 03b6 013B     		subs	r3, r3, #1
 1884 03b8 032B     		cmp	r3, #3
 1885 03ba 00F2A681 		bhi	.L109
 1886 03be DFE813F0 		tbh	[pc, r3, lsl #1]
 1887              	.LVL94:
 1888              	.L116:
 1889 03c2 BF01     		.2byte	(.L119-.L116)/2
 1890 03c4 C301     		.2byte	(.L118-.L116)/2
 1891 03c6 BB01     		.2byte	(.L117-.L116)/2
 1892 03c8 B701     		.2byte	(.L115-.L116)/2
 1893              		.p2align 1
 1894              	.L80:
 127:main.cpp      **** 
 1895              		.loc 11 127 5 discriminator 5 view .LVU543
 129:main.cpp      **** 						{
 1896              		.loc 11 129 7 discriminator 5 view .LVU544
 130:main.cpp      **** 							switch(p.value >> 5)
 1897              		.loc 11 130 7 discriminator 5 view .LVU545
 131:main.cpp      **** 							{
 1898              		.loc 11 131 8 discriminator 5 view .LVU546
 1899 03ca 5309     		lsrs	r3, r2, #5
 1900 03cc 013B     		subs	r3, r3, #1
 1901 03ce 032B     		cmp	r3, #3
 1902 03d0 00F29B81 		bhi	.L109
 1903 03d4 DFE813F0 		tbh	[pc, r3, lsl #1]
 1904              	.LVL95:
 1905              	.L111:
 1906 03d8 A801     		.2byte	(.L114-.L111)/2
 1907 03da A401     		.2byte	(.L113-.L111)/2
 1908 03dc A001     		.2byte	(.L112-.L111)/2
 1909 03de 9601     		.2byte	(.L110-.L111)/2
 1910              		.p2align 1
ARM GAS  C:\Users\jcjco\AppData\Local\Temp\cc6lIF5P.s 			page 70


 1911              	.L83:
 304:main.cpp      **** 						{
 1912              		.loc 11 304 7 view .LVU547
 305:main.cpp      **** 							vasynth.vcavcflfo_freq_ = ((float)p.value / 127.0f);
 1913              		.loc 11 305 7 view .LVU548
 306:main.cpp      **** 							vasynth.SetVCAVCFLFO();
 1914              		.loc 11 306 8 view .LVU549
 306:main.cpp      **** 							vasynth.SetVCAVCFLFO();
 1915              		.loc 11 306 35 is_stmt 0 view .LVU550
 1916 03e0 07EE902A 		vmov	s15, r2	@ int
 306:main.cpp      **** 							vasynth.SetVCAVCFLFO();
 1917              		.loc 11 306 50 view .LVU551
 1918 03e4 9FEDAC7A 		vldr.32	s14, .L179+32
 306:main.cpp      **** 							vasynth.SetVCAVCFLFO();
 1919              		.loc 11 306 32 view .LVU552
 1920 03e8 A748     		ldr	r0, .L179+16
 306:main.cpp      **** 							vasynth.SetVCAVCFLFO();
 1921              		.loc 11 306 35 view .LVU553
 1922 03ea F8EE676A 		vcvt.f32.u32	s13, s15
 306:main.cpp      **** 							vasynth.SetVCAVCFLFO();
 1923              		.loc 11 306 50 view .LVU554
 1924 03ee C6EE877A 		vdiv.f32	s15, s13, s14
 306:main.cpp      **** 							vasynth.SetVCAVCFLFO();
 1925              		.loc 11 306 32 view .LVU555
 1926 03f2 C0ED1B7A 		vstr.32	s15, [r0, #108]
 307:main.cpp      **** 							break;
 1927              		.loc 11 307 8 is_stmt 1 view .LVU556
 1928              	.LVL96:
 1929              	.L172:
 307:main.cpp      **** 							break;
 1930              		.loc 11 307 8 is_stmt 0 view .LVU557
 1931              	.LBE367:
 1932              	.LBE386:
 499:main.cpp      **** 
 1933              		.loc 11 499 1 view .LVU558
 1934 03f6 03B0     		add	sp, sp, #12
 1935              		.cfi_remember_state
 1936              		.cfi_def_cfa_offset 36
 1937              		@ sp needed
 1938 03f8 BDE8F040 		pop	{r4, r5, r6, r7, lr}
 1939              		.cfi_restore 14
 1940              		.cfi_restore 7
 1941              		.cfi_restore 6
 1942              		.cfi_restore 5
 1943              		.cfi_restore 4
 1944              		.cfi_def_cfa_offset 16
 1945              	.LVL97:
 499:main.cpp      **** 
 1946              		.loc 11 499 1 view .LVU559
 1947 03fc 04B0     		add	sp, sp, #16
 1948              		.cfi_def_cfa_offset 0
 1949              	.LBB387:
 1950              	.LBB368:
 333:main.cpp      **** 							break;
 1951              		.loc 11 333 28 view .LVU560
 1952 03fe FFF7FEBF 		b	_ZN7VASynth12SetVCAVCFLFOEv
 1953              	.LVL98:
ARM GAS  C:\Users\jcjco\AppData\Local\Temp\cc6lIF5P.s 			page 71


 1954              	.L84:
 1955              		.cfi_restore_state
 298:main.cpp      **** 						{
 1956              		.loc 11 298 7 is_stmt 1 view .LVU561
 299:main.cpp      **** 							vasynth.pwm2lfo_amp_ = ((float)p.value / 511.0f);
 1957              		.loc 11 299 7 view .LVU562
 300:main.cpp      **** 							vasynth.SetPWM2LFO();
 1958              		.loc 11 300 8 view .LVU563
 300:main.cpp      **** 							vasynth.SetPWM2LFO();
 1959              		.loc 11 300 32 is_stmt 0 view .LVU564
 1960 0402 07EE902A 		vmov	s15, r2	@ int
 300:main.cpp      **** 							vasynth.SetPWM2LFO();
 1961              		.loc 11 300 47 view .LVU565
 1962 0406 9FEDA17A 		vldr.32	s14, .L179+20
 300:main.cpp      **** 							vasynth.SetPWM2LFO();
 1963              		.loc 11 300 29 view .LVU566
 1964 040a 9F48     		ldr	r0, .L179+16
 300:main.cpp      **** 							vasynth.SetPWM2LFO();
 1965              		.loc 11 300 32 view .LVU567
 1966 040c F8EE676A 		vcvt.f32.u32	s13, s15
 300:main.cpp      **** 							vasynth.SetPWM2LFO();
 1967              		.loc 11 300 47 view .LVU568
 1968 0410 C6EE877A 		vdiv.f32	s15, s13, s14
 300:main.cpp      **** 							vasynth.SetPWM2LFO();
 1969              		.loc 11 300 29 view .LVU569
 1970 0414 C0ED197A 		vstr.32	s15, [r0, #100]
 1971              	.L173:
 301:main.cpp      **** 							break;
 1972              		.loc 11 301 8 is_stmt 1 view .LVU570
 1973              	.LBE368:
 1974              	.LBE387:
 499:main.cpp      **** 
 1975              		.loc 11 499 1 is_stmt 0 view .LVU571
 1976 0418 03B0     		add	sp, sp, #12
 1977              		.cfi_remember_state
 1978              		.cfi_def_cfa_offset 36
 1979              		@ sp needed
 1980 041a BDE8F040 		pop	{r4, r5, r6, r7, lr}
 1981              		.cfi_restore 14
 1982              		.cfi_restore 7
 1983              		.cfi_restore 6
 1984              		.cfi_restore 5
 1985              		.cfi_restore 4
 1986              		.cfi_def_cfa_offset 16
 1987 041e 04B0     		add	sp, sp, #16
 1988              		.cfi_def_cfa_offset 0
 1989              	.LBB388:
 1990              	.LBB369:
 301:main.cpp      **** 							break;
 1991              		.loc 11 301 26 view .LVU572
 1992 0420 FFF7FEBF 		b	_ZN7VASynth10SetPWM2LFOEv
 1993              	.LVL99:
 1994              	.L85:
 1995              		.cfi_restore_state
 292:main.cpp      **** 						{
 1996              		.loc 11 292 7 is_stmt 1 view .LVU573
 293:main.cpp      **** 							vasynth.pwm2lfo_freq_ = ((float)p.value / 127.0f);
ARM GAS  C:\Users\jcjco\AppData\Local\Temp\cc6lIF5P.s 			page 72


 1997              		.loc 11 293 7 view .LVU574
 294:main.cpp      **** 							vasynth.SetPWM2LFO();
 1998              		.loc 11 294 8 view .LVU575
 294:main.cpp      **** 							vasynth.SetPWM2LFO();
 1999              		.loc 11 294 33 is_stmt 0 view .LVU576
 2000 0424 07EE902A 		vmov	s15, r2	@ int
 294:main.cpp      **** 							vasynth.SetPWM2LFO();
 2001              		.loc 11 294 48 view .LVU577
 2002 0428 9FED9B7A 		vldr.32	s14, .L179+32
 294:main.cpp      **** 							vasynth.SetPWM2LFO();
 2003              		.loc 11 294 30 view .LVU578
 2004 042c 9648     		ldr	r0, .L179+16
 294:main.cpp      **** 							vasynth.SetPWM2LFO();
 2005              		.loc 11 294 33 view .LVU579
 2006 042e F8EE676A 		vcvt.f32.u32	s13, s15
 294:main.cpp      **** 							vasynth.SetPWM2LFO();
 2007              		.loc 11 294 48 view .LVU580
 2008 0432 C6EE877A 		vdiv.f32	s15, s13, s14
 294:main.cpp      **** 							vasynth.SetPWM2LFO();
 2009              		.loc 11 294 30 view .LVU581
 2010 0436 C0ED187A 		vstr.32	s15, [r0, #96]
 295:main.cpp      **** 							break;
 2011              		.loc 11 295 8 is_stmt 1 view .LVU582
 2012 043a EDE7     		b	.L173
 2013              	.L86:
 286:main.cpp      **** 						{
 2014              		.loc 11 286 7 view .LVU583
 287:main.cpp      **** 							vasynth.pwmlfo_amp_ = ((float)p.value / 511.0f);
 2015              		.loc 11 287 7 view .LVU584
 288:main.cpp      **** 							vasynth.SetPWMLFO();
 2016              		.loc 11 288 8 view .LVU585
 288:main.cpp      **** 							vasynth.SetPWMLFO();
 2017              		.loc 11 288 31 is_stmt 0 view .LVU586
 2018 043c 07EE902A 		vmov	s15, r2	@ int
 288:main.cpp      **** 							vasynth.SetPWMLFO();
 2019              		.loc 11 288 46 view .LVU587
 2020 0440 9FED927A 		vldr.32	s14, .L179+20
 288:main.cpp      **** 							vasynth.SetPWMLFO();
 2021              		.loc 11 288 28 view .LVU588
 2022 0444 9048     		ldr	r0, .L179+16
 288:main.cpp      **** 							vasynth.SetPWMLFO();
 2023              		.loc 11 288 31 view .LVU589
 2024 0446 F8EE676A 		vcvt.f32.u32	s13, s15
 288:main.cpp      **** 							vasynth.SetPWMLFO();
 2025              		.loc 11 288 46 view .LVU590
 2026 044a C6EE877A 		vdiv.f32	s15, s13, s14
 288:main.cpp      **** 							vasynth.SetPWMLFO();
 2027              		.loc 11 288 28 view .LVU591
 2028 044e C0ED167A 		vstr.32	s15, [r0, #88]
 2029              	.L174:
 289:main.cpp      **** 							break;
 2030              		.loc 11 289 8 is_stmt 1 view .LVU592
 2031              	.LBE369:
 2032              	.LBE388:
 499:main.cpp      **** 
 2033              		.loc 11 499 1 is_stmt 0 view .LVU593
 2034 0452 03B0     		add	sp, sp, #12
ARM GAS  C:\Users\jcjco\AppData\Local\Temp\cc6lIF5P.s 			page 73


 2035              		.cfi_remember_state
 2036              		.cfi_def_cfa_offset 36
 2037              		@ sp needed
 2038 0454 BDE8F040 		pop	{r4, r5, r6, r7, lr}
 2039              		.cfi_restore 14
 2040              		.cfi_restore 7
 2041              		.cfi_restore 6
 2042              		.cfi_restore 5
 2043              		.cfi_restore 4
 2044              		.cfi_def_cfa_offset 16
 2045 0458 04B0     		add	sp, sp, #16
 2046              		.cfi_def_cfa_offset 0
 2047              	.LBB389:
 2048              	.LBB370:
 289:main.cpp      **** 							break;
 2049              		.loc 11 289 25 view .LVU594
 2050 045a FFF7FEBF 		b	_ZN7VASynth9SetPWMLFOEv
 2051              	.LVL100:
 2052              	.L95:
 2053              		.cfi_restore_state
 236:main.cpp      **** 						{
 2054              		.loc 11 236 7 is_stmt 1 view .LVU595
 237:main.cpp      **** 							vasynth.eg_a_decay_ = ((float)p.value / 127.0f);
 2055              		.loc 11 237 7 view .LVU596
 238:main.cpp      **** 							vasynth.SetEG();
 2056              		.loc 11 238 8 view .LVU597
 238:main.cpp      **** 							vasynth.SetEG();
 2057              		.loc 11 238 31 is_stmt 0 view .LVU598
 2058 045e 07EE902A 		vmov	s15, r2	@ int
 238:main.cpp      **** 							vasynth.SetEG();
 2059              		.loc 11 238 46 view .LVU599
 2060 0462 9FED8D7A 		vldr.32	s14, .L179+32
 238:main.cpp      **** 							vasynth.SetEG();
 2061              		.loc 11 238 28 view .LVU600
 2062 0466 8848     		ldr	r0, .L179+16
 238:main.cpp      **** 							vasynth.SetEG();
 2063              		.loc 11 238 31 view .LVU601
 2064 0468 F8EE676A 		vcvt.f32.u32	s13, s15
 238:main.cpp      **** 							vasynth.SetEG();
 2065              		.loc 11 238 46 view .LVU602
 2066 046c C6EE877A 		vdiv.f32	s15, s13, s14
 238:main.cpp      **** 							vasynth.SetEG();
 2067              		.loc 11 238 28 view .LVU603
 2068 0470 C0ED0A7A 		vstr.32	s15, [r0, #40]
 239:main.cpp      **** 							break;
 2069              		.loc 11 239 8 is_stmt 1 view .LVU604
 2070              	.L170:
 215:main.cpp      **** 							break;
 2071              		.loc 11 215 8 view .LVU605
 2072              	.LBE370:
 2073              	.LBE389:
 499:main.cpp      **** 
 2074              		.loc 11 499 1 is_stmt 0 view .LVU606
 2075 0474 03B0     		add	sp, sp, #12
 2076              		.cfi_remember_state
 2077              		.cfi_def_cfa_offset 36
 2078              		@ sp needed
ARM GAS  C:\Users\jcjco\AppData\Local\Temp\cc6lIF5P.s 			page 74


 2079 0476 BDE8F040 		pop	{r4, r5, r6, r7, lr}
 2080              		.cfi_restore 14
 2081              		.cfi_restore 7
 2082              		.cfi_restore 6
 2083              		.cfi_restore 5
 2084              		.cfi_restore 4
 2085              		.cfi_def_cfa_offset 16
 2086 047a 04B0     		add	sp, sp, #16
 2087              		.cfi_def_cfa_offset 0
 2088              	.LBB390:
 2089              	.LBB371:
 215:main.cpp      **** 							break;
 2090              		.loc 11 215 21 view .LVU607
 2091 047c FFF7FEBF 		b	_ZN7VASynth5SetEGEv
 2092              	.LVL101:
 2093              	.L96:
 2094              		.cfi_restore_state
 230:main.cpp      **** 						{
 2095              		.loc 11 230 7 is_stmt 1 view .LVU608
 231:main.cpp      **** 							vasynth.eg_a_attack_ = ((float)p.value / 127.0f);
 2096              		.loc 11 231 7 view .LVU609
 232:main.cpp      **** 							vasynth.SetEG();
 2097              		.loc 11 232 8 view .LVU610
 232:main.cpp      **** 							vasynth.SetEG();
 2098              		.loc 11 232 32 is_stmt 0 view .LVU611
 2099 0480 07EE902A 		vmov	s15, r2	@ int
 232:main.cpp      **** 							vasynth.SetEG();
 2100              		.loc 11 232 47 view .LVU612
 2101 0484 9FED847A 		vldr.32	s14, .L179+32
 232:main.cpp      **** 							vasynth.SetEG();
 2102              		.loc 11 232 29 view .LVU613
 2103 0488 7F48     		ldr	r0, .L179+16
 232:main.cpp      **** 							vasynth.SetEG();
 2104              		.loc 11 232 32 view .LVU614
 2105 048a F8EE676A 		vcvt.f32.u32	s13, s15
 232:main.cpp      **** 							vasynth.SetEG();
 2106              		.loc 11 232 47 view .LVU615
 2107 048e C6EE877A 		vdiv.f32	s15, s13, s14
 232:main.cpp      **** 							vasynth.SetEG();
 2108              		.loc 11 232 29 view .LVU616
 2109 0492 C0ED097A 		vstr.32	s15, [r0, #36]
 233:main.cpp      **** 							break;
 2110              		.loc 11 233 8 is_stmt 1 view .LVU617
 2111 0496 EDE7     		b	.L170
 2112              	.L97:
 224:main.cpp      **** 						{
 2113              		.loc 11 224 7 view .LVU618
 225:main.cpp      **** 							vasynth.eg_f_release_ = ((float)p.value / 127.0f);
 2114              		.loc 11 225 7 view .LVU619
 226:main.cpp      **** 							vasynth.SetEG();
 2115              		.loc 11 226 8 view .LVU620
 226:main.cpp      **** 							vasynth.SetEG();
 2116              		.loc 11 226 33 is_stmt 0 view .LVU621
 2117 0498 07EE902A 		vmov	s15, r2	@ int
 226:main.cpp      **** 							vasynth.SetEG();
 2118              		.loc 11 226 48 view .LVU622
 2119 049c 9FED7E7A 		vldr.32	s14, .L179+32
ARM GAS  C:\Users\jcjco\AppData\Local\Temp\cc6lIF5P.s 			page 75


 226:main.cpp      **** 							vasynth.SetEG();
 2120              		.loc 11 226 30 view .LVU623
 2121 04a0 7948     		ldr	r0, .L179+16
 226:main.cpp      **** 							vasynth.SetEG();
 2122              		.loc 11 226 33 view .LVU624
 2123 04a2 F8EE676A 		vcvt.f32.u32	s13, s15
 226:main.cpp      **** 							vasynth.SetEG();
 2124              		.loc 11 226 48 view .LVU625
 2125 04a6 C6EE877A 		vdiv.f32	s15, s13, s14
 226:main.cpp      **** 							vasynth.SetEG();
 2126              		.loc 11 226 30 view .LVU626
 2127 04aa C0ED107A 		vstr.32	s15, [r0, #64]
 227:main.cpp      **** 							break;
 2128              		.loc 11 227 8 is_stmt 1 view .LVU627
 2129 04ae E1E7     		b	.L170
 2130              	.L98:
 218:main.cpp      **** 						{
 2131              		.loc 11 218 7 view .LVU628
 219:main.cpp      **** 							vasynth.eg_f_sustain_ = ((float)p.value / 127.0f);
 2132              		.loc 11 219 7 view .LVU629
 220:main.cpp      **** 							vasynth.SetEG();
 2133              		.loc 11 220 8 view .LVU630
 220:main.cpp      **** 							vasynth.SetEG();
 2134              		.loc 11 220 33 is_stmt 0 view .LVU631
 2135 04b0 07EE902A 		vmov	s15, r2	@ int
 220:main.cpp      **** 							vasynth.SetEG();
 2136              		.loc 11 220 48 view .LVU632
 2137 04b4 9FED787A 		vldr.32	s14, .L179+32
 220:main.cpp      **** 							vasynth.SetEG();
 2138              		.loc 11 220 30 view .LVU633
 2139 04b8 7348     		ldr	r0, .L179+16
 220:main.cpp      **** 							vasynth.SetEG();
 2140              		.loc 11 220 33 view .LVU634
 2141 04ba F8EE676A 		vcvt.f32.u32	s13, s15
 220:main.cpp      **** 							vasynth.SetEG();
 2142              		.loc 11 220 48 view .LVU635
 2143 04be C6EE877A 		vdiv.f32	s15, s13, s14
 220:main.cpp      **** 							vasynth.SetEG();
 2144              		.loc 11 220 30 view .LVU636
 2145 04c2 C0ED0F7A 		vstr.32	s15, [r0, #60]
 221:main.cpp      **** 							break;
 2146              		.loc 11 221 8 is_stmt 1 view .LVU637
 2147 04c6 D5E7     		b	.L170
 2148              	.L99:
 212:main.cpp      **** 						{
 2149              		.loc 11 212 7 view .LVU638
 213:main.cpp      **** 							vasynth.eg_f_decay_ = ((float)p.value / 127.0f);
 2150              		.loc 11 213 7 view .LVU639
 214:main.cpp      **** 							vasynth.SetEG();
 2151              		.loc 11 214 8 view .LVU640
 214:main.cpp      **** 							vasynth.SetEG();
 2152              		.loc 11 214 31 is_stmt 0 view .LVU641
 2153 04c8 07EE902A 		vmov	s15, r2	@ int
 214:main.cpp      **** 							vasynth.SetEG();
 2154              		.loc 11 214 46 view .LVU642
 2155 04cc 9FED727A 		vldr.32	s14, .L179+32
 214:main.cpp      **** 							vasynth.SetEG();
ARM GAS  C:\Users\jcjco\AppData\Local\Temp\cc6lIF5P.s 			page 76


 2156              		.loc 11 214 28 view .LVU643
 2157 04d0 6D48     		ldr	r0, .L179+16
 214:main.cpp      **** 							vasynth.SetEG();
 2158              		.loc 11 214 31 view .LVU644
 2159 04d2 F8EE676A 		vcvt.f32.u32	s13, s15
 214:main.cpp      **** 							vasynth.SetEG();
 2160              		.loc 11 214 46 view .LVU645
 2161 04d6 C6EE877A 		vdiv.f32	s15, s13, s14
 214:main.cpp      **** 							vasynth.SetEG();
 2162              		.loc 11 214 28 view .LVU646
 2163 04da C0ED0E7A 		vstr.32	s15, [r0, #56]
 2164 04de C9E7     		b	.L170
 2165              	.L100:
 206:main.cpp      **** 						{
 2166              		.loc 11 206 7 is_stmt 1 view .LVU647
 207:main.cpp      **** 							vasynth.eg_f_attack_ = ((float)p.value / 127.0f);
 2167              		.loc 11 207 7 view .LVU648
 208:main.cpp      **** 							vasynth.SetEG();
 2168              		.loc 11 208 8 view .LVU649
 208:main.cpp      **** 							vasynth.SetEG();
 2169              		.loc 11 208 32 is_stmt 0 view .LVU650
 2170 04e0 07EE902A 		vmov	s15, r2	@ int
 208:main.cpp      **** 							vasynth.SetEG();
 2171              		.loc 11 208 47 view .LVU651
 2172 04e4 9FED6C7A 		vldr.32	s14, .L179+32
 208:main.cpp      **** 							vasynth.SetEG();
 2173              		.loc 11 208 29 view .LVU652
 2174 04e8 6748     		ldr	r0, .L179+16
 208:main.cpp      **** 							vasynth.SetEG();
 2175              		.loc 11 208 32 view .LVU653
 2176 04ea F8EE676A 		vcvt.f32.u32	s13, s15
 208:main.cpp      **** 							vasynth.SetEG();
 2177              		.loc 11 208 47 view .LVU654
 2178 04ee C6EE877A 		vdiv.f32	s15, s13, s14
 208:main.cpp      **** 							vasynth.SetEG();
 2179              		.loc 11 208 29 view .LVU655
 2180 04f2 C0ED0D7A 		vstr.32	s15, [r0, #52]
 209:main.cpp      **** 							break;
 2181              		.loc 11 209 8 is_stmt 1 view .LVU656
 2182 04f6 BDE7     		b	.L170
 2183              	.L101:
 201:main.cpp      **** 						{
 2184              		.loc 11 201 7 view .LVU657
 202:main.cpp      **** 							vasynth.osc2_pw_ = ((float)p.value / 255.0f);
 2185              		.loc 11 202 7 view .LVU658
 203:main.cpp      **** 							break;
 2186              		.loc 11 203 8 view .LVU659
 203:main.cpp      **** 							break;
 2187              		.loc 11 203 28 is_stmt 0 view .LVU660
 2188 04f8 07EE902A 		vmov	s15, r2	@ int
 203:main.cpp      **** 							break;
 2189              		.loc 11 203 43 view .LVU661
 2190 04fc 9FED647A 		vldr.32	s14, .L179+24
 203:main.cpp      **** 							break;
 2191              		.loc 11 203 25 view .LVU662
 2192 0500 614B     		ldr	r3, .L179+16
 203:main.cpp      **** 							break;
ARM GAS  C:\Users\jcjco\AppData\Local\Temp\cc6lIF5P.s 			page 77


 2193              		.loc 11 203 28 view .LVU663
 2194 0502 F8EE676A 		vcvt.f32.u32	s13, s15
 203:main.cpp      **** 							break;
 2195              		.loc 11 203 43 view .LVU664
 2196 0506 C6EE877A 		vdiv.f32	s15, s13, s14
 203:main.cpp      **** 							break;
 2197              		.loc 11 203 25 view .LVU665
 2198 050a C3ED087A 		vstr.32	s15, [r3, #32]
 204:main.cpp      **** 						}
 2199              		.loc 11 204 8 is_stmt 1 view .LVU666
 2200 050e 97E5     		b	.L65
 2201              	.L102:
 196:main.cpp      **** 						{
 2202              		.loc 11 196 7 view .LVU667
 197:main.cpp      **** 							vasynth.osc_pw_ = ((float)p.value / 255.0f);
 2203              		.loc 11 197 7 view .LVU668
 198:main.cpp      **** 							break;
 2204              		.loc 11 198 8 view .LVU669
 198:main.cpp      **** 							break;
 2205              		.loc 11 198 27 is_stmt 0 view .LVU670
 2206 0510 07EE902A 		vmov	s15, r2	@ int
 198:main.cpp      **** 							break;
 2207              		.loc 11 198 42 view .LVU671
 2208 0514 9FED5E7A 		vldr.32	s14, .L179+24
 198:main.cpp      **** 							break;
 2209              		.loc 11 198 24 view .LVU672
 2210 0518 5B4B     		ldr	r3, .L179+16
 198:main.cpp      **** 							break;
 2211              		.loc 11 198 27 view .LVU673
 2212 051a F8EE676A 		vcvt.f32.u32	s13, s15
 198:main.cpp      **** 							break;
 2213              		.loc 11 198 42 view .LVU674
 2214 051e C6EE877A 		vdiv.f32	s15, s13, s14
 198:main.cpp      **** 							break;
 2215              		.loc 11 198 24 view .LVU675
 2216 0522 C3ED047A 		vstr.32	s15, [r3, #16]
 199:main.cpp      **** 						}
 2217              		.loc 11 199 8 is_stmt 1 view .LVU676
 2218 0526 8BE5     		b	.L65
 2219              	.L103:
 190:main.cpp      **** 						{
 2220              		.loc 11 190 7 view .LVU677
 191:main.cpp      **** 							vasynth.filter_res_ = ((float)p.value / 127.0f);
 2221              		.loc 11 191 7 view .LVU678
 192:main.cpp      ****                     		vasynth.SetFilter();
 2222              		.loc 11 192 8 view .LVU679
 192:main.cpp      ****                     		vasynth.SetFilter();
 2223              		.loc 11 192 31 is_stmt 0 view .LVU680
 2224 0528 07EE902A 		vmov	s15, r2	@ int
 192:main.cpp      ****                     		vasynth.SetFilter();
 2225              		.loc 11 192 46 view .LVU681
 2226 052c 9FED5A7A 		vldr.32	s14, .L179+32
 192:main.cpp      ****                     		vasynth.SetFilter();
 2227              		.loc 11 192 28 view .LVU682
 2228 0530 5548     		ldr	r0, .L179+16
 192:main.cpp      ****                     		vasynth.SetFilter();
 2229              		.loc 11 192 31 view .LVU683
ARM GAS  C:\Users\jcjco\AppData\Local\Temp\cc6lIF5P.s 			page 78


 2230 0532 F8EE676A 		vcvt.f32.u32	s13, s15
 192:main.cpp      ****                     		vasynth.SetFilter();
 2231              		.loc 11 192 46 view .LVU684
 2232 0536 C6EE877A 		vdiv.f32	s15, s13, s14
 192:main.cpp      ****                     		vasynth.SetFilter();
 2233              		.loc 11 192 28 view .LVU685
 2234 053a C0ED1F7A 		vstr.32	s15, [r0, #124]
 2235              	.L168:
 193:main.cpp      **** 							break;
 2236              		.loc 11 193 23 is_stmt 1 view .LVU686
 2237              	.LBE371:
 2238              	.LBE390:
 499:main.cpp      **** 
 2239              		.loc 11 499 1 is_stmt 0 view .LVU687
 2240 053e 03B0     		add	sp, sp, #12
 2241              		.cfi_remember_state
 2242              		.cfi_def_cfa_offset 36
 2243              		@ sp needed
 2244 0540 BDE8F040 		pop	{r4, r5, r6, r7, lr}
 2245              		.cfi_restore 14
 2246              		.cfi_restore 7
 2247              		.cfi_restore 6
 2248              		.cfi_restore 5
 2249              		.cfi_restore 4
 2250              		.cfi_def_cfa_offset 16
 2251 0544 04B0     		add	sp, sp, #16
 2252              		.cfi_def_cfa_offset 0
 2253              	.LBB391:
 2254              	.LBB372:
 193:main.cpp      **** 							break;
 2255              		.loc 11 193 40 view .LVU688
 2256 0546 FFF7FEBF 		b	_ZN7VASynth9SetFilterEv
 2257              	.LVL102:
 2258              	.L104:
 2259              		.cfi_restore_state
 185:main.cpp      **** 						{
 2260              		.loc 11 185 7 is_stmt 1 view .LVU689
 186:main.cpp      **** 							vasynth.osc2_transpose_ = (1.0f + ((float)p.value / 127.0f));
 2261              		.loc 11 186 7 view .LVU690
 187:main.cpp      **** 							break;
 2262              		.loc 11 187 8 view .LVU691
 187:main.cpp      **** 							break;
 2263              		.loc 11 187 43 is_stmt 0 view .LVU692
 2264 054a 07EE902A 		vmov	s15, r2	@ int
 187:main.cpp      **** 							break;
 2265              		.loc 11 187 58 view .LVU693
 2266 054e DFED526A 		vldr.32	s13, .L179+32
 187:main.cpp      **** 							break;
 2267              		.loc 11 187 40 view .LVU694
 2268 0552 B7EE007A 		vmov.f32	s14, #1.0e+0
 187:main.cpp      **** 							break;
 2269              		.loc 11 187 32 view .LVU695
 2270 0556 4C4B     		ldr	r3, .L179+16
 187:main.cpp      **** 							break;
 2271              		.loc 11 187 43 view .LVU696
 2272 0558 B8EE676A 		vcvt.f32.u32	s12, s15
 187:main.cpp      **** 							break;
ARM GAS  C:\Users\jcjco\AppData\Local\Temp\cc6lIF5P.s 			page 79


 2273              		.loc 11 187 58 view .LVU697
 2274 055c C6EE267A 		vdiv.f32	s15, s12, s13
 187:main.cpp      **** 							break;
 2275              		.loc 11 187 40 view .LVU698
 2276 0560 77EE877A 		vadd.f32	s15, s15, s14
 187:main.cpp      **** 							break;
 2277              		.loc 11 187 32 view .LVU699
 2278 0564 C3ED077A 		vstr.32	s15, [r3, #28]
 188:main.cpp      **** 						}
 2279              		.loc 11 188 8 is_stmt 1 view .LVU700
 2280 0568 6AE5     		b	.L65
 2281              	.L105:
 180:main.cpp      **** 						{
 2282              		.loc 11 180 7 view .LVU701
 181:main.cpp      **** 							vasynth.osc2_detune_ = ((float)p.value / 255.0f);
 2283              		.loc 11 181 7 view .LVU702
 182:main.cpp      **** 							break;
 2284              		.loc 11 182 8 view .LVU703
 182:main.cpp      **** 							break;
 2285              		.loc 11 182 32 is_stmt 0 view .LVU704
 2286 056a 07EE902A 		vmov	s15, r2	@ int
 182:main.cpp      **** 							break;
 2287              		.loc 11 182 47 view .LVU705
 2288 056e 9FED487A 		vldr.32	s14, .L179+24
 182:main.cpp      **** 							break;
 2289              		.loc 11 182 29 view .LVU706
 2290 0572 454B     		ldr	r3, .L179+16
 182:main.cpp      **** 							break;
 2291              		.loc 11 182 32 view .LVU707
 2292 0574 F8EE676A 		vcvt.f32.u32	s13, s15
 182:main.cpp      **** 							break;
 2293              		.loc 11 182 47 view .LVU708
 2294 0578 C6EE877A 		vdiv.f32	s15, s13, s14
 182:main.cpp      **** 							break;
 2295              		.loc 11 182 29 view .LVU709
 2296 057c C3ED067A 		vstr.32	s15, [r3, #24]
 183:main.cpp      **** 						}
 2297              		.loc 11 183 8 is_stmt 1 view .LVU710
 2298 0580 5EE5     		b	.L65
 2299              	.L106:
 175:main.cpp      **** 						{
 2300              		.loc 11 175 7 view .LVU711
 176:main.cpp      **** 							vasynth.osc_mix_ = ((float)p.value / 127.0f);
 2301              		.loc 11 176 7 view .LVU712
 177:main.cpp      **** 							break;
 2302              		.loc 11 177 8 view .LVU713
 177:main.cpp      **** 							break;
 2303              		.loc 11 177 28 is_stmt 0 view .LVU714
 2304 0582 07EE902A 		vmov	s15, r2	@ int
 177:main.cpp      **** 							break;
 2305              		.loc 11 177 43 view .LVU715
 2306 0586 9FED447A 		vldr.32	s14, .L179+32
 177:main.cpp      **** 							break;
 2307              		.loc 11 177 25 view .LVU716
 2308 058a 3F4B     		ldr	r3, .L179+16
 177:main.cpp      **** 							break;
 2309              		.loc 11 177 28 view .LVU717
ARM GAS  C:\Users\jcjco\AppData\Local\Temp\cc6lIF5P.s 			page 80


 2310 058c F8EE676A 		vcvt.f32.u32	s13, s15
 177:main.cpp      **** 							break;
 2311              		.loc 11 177 43 view .LVU718
 2312 0590 C6EE877A 		vdiv.f32	s15, s13, s14
 177:main.cpp      **** 							break;
 2313              		.loc 11 177 25 view .LVU719
 2314 0594 C3ED027A 		vstr.32	s15, [r3, #8]
 178:main.cpp      **** 						}
 2315              		.loc 11 178 8 is_stmt 1 view .LVU720
 2316 0598 52E5     		b	.L65
 2317              	.L107:
 169:main.cpp      **** 						{					
 2318              		.loc 11 169 7 view .LVU721
 170:main.cpp      **** 					vasynth.filter_cutoff_ = ((float)p.value / 127.0f) * FILTER_CUTOFF_MAX;
 2319              		.loc 11 170 7 view .LVU722
 171:main.cpp      ****                     vasynth.SetFilter();			
 2320              		.loc 11 171 6 view .LVU723
 171:main.cpp      ****                     vasynth.SetFilter();			
 2321              		.loc 11 171 32 is_stmt 0 view .LVU724
 2322 059a 07EE902A 		vmov	s15, r2	@ int
 171:main.cpp      ****                     vasynth.SetFilter();			
 2323              		.loc 11 171 47 view .LVU725
 2324 059e DFED3E6A 		vldr.32	s13, .L179+32
 171:main.cpp      ****                     vasynth.SetFilter();			
 2325              		.loc 11 171 57 view .LVU726
 2326 05a2 9FED3C7A 		vldr.32	s14, .L179+28
 171:main.cpp      ****                     vasynth.SetFilter();			
 2327              		.loc 11 171 32 view .LVU727
 2328 05a6 B8EE676A 		vcvt.f32.u32	s12, s15
 171:main.cpp      ****                     vasynth.SetFilter();			
 2329              		.loc 11 171 29 view .LVU728
 2330 05aa 3748     		ldr	r0, .L179+16
 171:main.cpp      ****                     vasynth.SetFilter();			
 2331              		.loc 11 171 47 view .LVU729
 2332 05ac C6EE267A 		vdiv.f32	s15, s12, s13
 171:main.cpp      ****                     vasynth.SetFilter();			
 2333              		.loc 11 171 57 view .LVU730
 2334 05b0 67EE877A 		vmul.f32	s15, s15, s14
 171:main.cpp      ****                     vasynth.SetFilter();			
 2335              		.loc 11 171 29 view .LVU731
 2336 05b4 C0ED207A 		vstr.32	s15, [r0, #128]
 172:main.cpp      **** 						 	break;		
 2337              		.loc 11 172 21 is_stmt 1 view .LVU732
 2338 05b8 C1E7     		b	.L168
 2339              	.L108:
 123:main.cpp      **** 					vasynth.lfo_amp_ = ((float)p.value/127.0f);
 2340              		.loc 11 123 5 view .LVU733
 124:main.cpp      ****                     vasynth.SetLFO();
 2341              		.loc 11 124 6 view .LVU734
 124:main.cpp      ****                     vasynth.SetLFO();
 2342              		.loc 11 124 26 is_stmt 0 view .LVU735
 2343 05ba 07EE902A 		vmov	s15, r2	@ int
 124:main.cpp      ****                     vasynth.SetLFO();
 2344              		.loc 11 124 40 view .LVU736
 2345 05be 9FED367A 		vldr.32	s14, .L179+32
 124:main.cpp      ****                     vasynth.SetLFO();
 2346              		.loc 11 124 23 view .LVU737
ARM GAS  C:\Users\jcjco\AppData\Local\Temp\cc6lIF5P.s 			page 81


 2347 05c2 3148     		ldr	r0, .L179+16
 124:main.cpp      ****                     vasynth.SetLFO();
 2348              		.loc 11 124 26 view .LVU738
 2349 05c4 F8EE676A 		vcvt.f32.u32	s13, s15
 124:main.cpp      ****                     vasynth.SetLFO();
 2350              		.loc 11 124 40 view .LVU739
 2351 05c8 C6EE877A 		vdiv.f32	s15, s13, s14
 124:main.cpp      ****                     vasynth.SetLFO();
 2352              		.loc 11 124 23 view .LVU740
 2353 05cc C0ED137A 		vstr.32	s15, [r0, #76]
 125:main.cpp      ****                     break;
 2354              		.loc 11 125 21 is_stmt 1 view .LVU741
 2355              	.L167:
 277:main.cpp      **** 							break;
 2356              		.loc 11 277 8 view .LVU742
 2357              	.LBE372:
 2358              	.LBE391:
 499:main.cpp      **** 
 2359              		.loc 11 499 1 is_stmt 0 view .LVU743
 2360 05d0 03B0     		add	sp, sp, #12
 2361              		.cfi_remember_state
 2362              		.cfi_def_cfa_offset 36
 2363              		@ sp needed
 2364 05d2 BDE8F040 		pop	{r4, r5, r6, r7, lr}
 2365              		.cfi_restore 14
 2366              		.cfi_restore 7
 2367              		.cfi_restore 6
 2368              		.cfi_restore 5
 2369              		.cfi_restore 4
 2370              		.cfi_def_cfa_offset 16
 2371 05d6 04B0     		add	sp, sp, #16
 2372              		.cfi_def_cfa_offset 0
 2373              	.LBB392:
 2374              	.LBB373:
 277:main.cpp      **** 							break;
 2375              		.loc 11 277 22 view .LVU744
 2376 05d8 FFF7FEBF 		b	_ZN7VASynth6SetLFOEv
 2377              	.LVL103:
 2378              	.L87:
 2379              		.cfi_restore_state
 280:main.cpp      **** 						{
 2380              		.loc 11 280 7 is_stmt 1 view .LVU745
 281:main.cpp      **** 							vasynth.pwmlfo_freq_ = ((float)p.value / 127.0f);
 2381              		.loc 11 281 7 view .LVU746
 282:main.cpp      **** 							vasynth.SetPWMLFO();
 2382              		.loc 11 282 8 view .LVU747
 282:main.cpp      **** 							vasynth.SetPWMLFO();
 2383              		.loc 11 282 32 is_stmt 0 view .LVU748
 2384 05dc 07EE902A 		vmov	s15, r2	@ int
 282:main.cpp      **** 							vasynth.SetPWMLFO();
 2385              		.loc 11 282 47 view .LVU749
 2386 05e0 9FED2D7A 		vldr.32	s14, .L179+32
 282:main.cpp      **** 							vasynth.SetPWMLFO();
 2387              		.loc 11 282 29 view .LVU750
 2388 05e4 2848     		ldr	r0, .L179+16
 282:main.cpp      **** 							vasynth.SetPWMLFO();
 2389              		.loc 11 282 32 view .LVU751
ARM GAS  C:\Users\jcjco\AppData\Local\Temp\cc6lIF5P.s 			page 82


 2390 05e6 F8EE676A 		vcvt.f32.u32	s13, s15
 282:main.cpp      **** 							vasynth.SetPWMLFO();
 2391              		.loc 11 282 47 view .LVU752
 2392 05ea C6EE877A 		vdiv.f32	s15, s13, s14
 282:main.cpp      **** 							vasynth.SetPWMLFO();
 2393              		.loc 11 282 29 view .LVU753
 2394 05ee C0ED157A 		vstr.32	s15, [r0, #84]
 283:main.cpp      **** 							break;
 2395              		.loc 11 283 8 is_stmt 1 view .LVU754
 2396 05f2 2EE7     		b	.L174
 2397              	.L88:
 274:main.cpp      **** 						{
 2398              		.loc 11 274 7 view .LVU755
 275:main.cpp      **** 							vasynth.lfo_freq_ = ((float)p.value / 127.0f);
 2399              		.loc 11 275 7 view .LVU756
 276:main.cpp      **** 							vasynth.SetLFO();
 2400              		.loc 11 276 8 view .LVU757
 276:main.cpp      **** 							vasynth.SetLFO();
 2401              		.loc 11 276 29 is_stmt 0 view .LVU758
 2402 05f4 07EE902A 		vmov	s15, r2	@ int
 276:main.cpp      **** 							vasynth.SetLFO();
 2403              		.loc 11 276 44 view .LVU759
 2404 05f8 9FED277A 		vldr.32	s14, .L179+32
 276:main.cpp      **** 							vasynth.SetLFO();
 2405              		.loc 11 276 26 view .LVU760
 2406 05fc 2248     		ldr	r0, .L179+16
 276:main.cpp      **** 							vasynth.SetLFO();
 2407              		.loc 11 276 29 view .LVU761
 2408 05fe F8EE676A 		vcvt.f32.u32	s13, s15
 276:main.cpp      **** 							vasynth.SetLFO();
 2409              		.loc 11 276 44 view .LVU762
 2410 0602 C6EE877A 		vdiv.f32	s15, s13, s14
 276:main.cpp      **** 							vasynth.SetLFO();
 2411              		.loc 11 276 26 view .LVU763
 2412 0606 C0ED127A 		vstr.32	s15, [r0, #72]
 2413 060a E1E7     		b	.L167
 2414              	.L89:
 269:main.cpp      **** 						{
 2415              		.loc 11 269 7 is_stmt 1 view .LVU764
 270:main.cpp      **** 							vasynth.eg_f_amount_ = ((float)p.value / 127.0f);
 2416              		.loc 11 270 7 view .LVU765
 271:main.cpp      **** 							break;
 2417              		.loc 11 271 8 view .LVU766
 271:main.cpp      **** 							break;
 2418              		.loc 11 271 32 is_stmt 0 view .LVU767
 2419 060c 07EE902A 		vmov	s15, r2	@ int
 271:main.cpp      **** 							break;
 2420              		.loc 11 271 47 view .LVU768
 2421 0610 9FED217A 		vldr.32	s14, .L179+32
 271:main.cpp      **** 							break;
 2422              		.loc 11 271 29 view .LVU769
 2423 0614 1C4B     		ldr	r3, .L179+16
 271:main.cpp      **** 							break;
 2424              		.loc 11 271 32 view .LVU770
 2425 0616 F8EE676A 		vcvt.f32.u32	s13, s15
 271:main.cpp      **** 							break;
 2426              		.loc 11 271 47 view .LVU771
ARM GAS  C:\Users\jcjco\AppData\Local\Temp\cc6lIF5P.s 			page 83


 2427 061a C6EE877A 		vdiv.f32	s15, s13, s14
 271:main.cpp      **** 							break;
 2428              		.loc 11 271 29 view .LVU772
 2429 061e C3ED217A 		vstr.32	s15, [r3, #132]
 272:main.cpp      **** 						}
 2430              		.loc 11 272 8 is_stmt 1 view .LVU773
 2431 0622 0DE5     		b	.L65
 2432              	.L90:
 264:main.cpp      **** 						{
 2433              		.loc 11 264 7 view .LVU774
 265:main.cpp      **** 							vasynth.vel_select_ = p.value >> 5;
 2434              		.loc 11 265 7 view .LVU775
 266:main.cpp      **** 							break;
 2435              		.loc 11 266 8 view .LVU776
 266:main.cpp      **** 							break;
 2436              		.loc 11 266 28 is_stmt 0 view .LVU777
 2437 0624 184B     		ldr	r3, .L179+16
 266:main.cpp      **** 							break;
 2438              		.loc 11 266 38 view .LVU778
 2439 0626 5209     		lsrs	r2, r2, #5
 2440              	.LVL104:
 266:main.cpp      **** 							break;
 2441              		.loc 11 266 28 view .LVU779
 2442 0628 83F88820 		strb	r2, [r3, #136]
 267:main.cpp      **** 						}
 2443              		.loc 11 267 8 is_stmt 1 view .LVU780
 2444 062c 08E5     		b	.L65
 2445              	.LVL105:
 2446              	.L91:
 259:main.cpp      **** 						{
 2447              		.loc 11 259 7 view .LVU781
 260:main.cpp      **** 							vasynth.env_kbd_follow_ = ((float)p.value / 127.0f);
 2448              		.loc 11 260 7 view .LVU782
 261:main.cpp      **** 							break;
 2449              		.loc 11 261 8 view .LVU783
 261:main.cpp      **** 							break;
 2450              		.loc 11 261 35 is_stmt 0 view .LVU784
 2451 062e 07EE902A 		vmov	s15, r2	@ int
 261:main.cpp      **** 							break;
 2452              		.loc 11 261 50 view .LVU785
 2453 0632 9FED197A 		vldr.32	s14, .L179+32
 261:main.cpp      **** 							break;
 2454              		.loc 11 261 32 view .LVU786
 2455 0636 144B     		ldr	r3, .L179+16
 261:main.cpp      **** 							break;
 2456              		.loc 11 261 35 view .LVU787
 2457 0638 F8EE676A 		vcvt.f32.u32	s13, s15
 261:main.cpp      **** 							break;
 2458              		.loc 11 261 50 view .LVU788
 2459 063c C6EE877A 		vdiv.f32	s15, s13, s14
 261:main.cpp      **** 							break;
 2460              		.loc 11 261 32 view .LVU789
 2461 0640 C3ED1E7A 		vstr.32	s15, [r3, #120]
 262:main.cpp      **** 						}
 2462              		.loc 11 262 8 is_stmt 1 view .LVU790
 2463 0644 FCE4     		b	.L65
 2464              	.L92:
ARM GAS  C:\Users\jcjco\AppData\Local\Temp\cc6lIF5P.s 			page 84


 254:main.cpp      **** 						{
 2465              		.loc 11 254 7 view .LVU791
 255:main.cpp      **** 							vasynth.vcf_kbd_follow_= ((float)p.value / 127.0f);
 2466              		.loc 11 255 7 view .LVU792
 256:main.cpp      **** 							break;
 2467              		.loc 11 256 8 view .LVU793
 256:main.cpp      **** 							break;
 2468              		.loc 11 256 34 is_stmt 0 view .LVU794
 2469 0646 07EE902A 		vmov	s15, r2	@ int
 256:main.cpp      **** 							break;
 2470              		.loc 11 256 49 view .LVU795
 2471 064a 9FED137A 		vldr.32	s14, .L179+32
 256:main.cpp      **** 							break;
 2472              		.loc 11 256 31 view .LVU796
 2473 064e 0E4B     		ldr	r3, .L179+16
 256:main.cpp      **** 							break;
 2474              		.loc 11 256 34 view .LVU797
 2475 0650 F8EE676A 		vcvt.f32.u32	s13, s15
 256:main.cpp      **** 							break;
 2476              		.loc 11 256 49 view .LVU798
 2477 0654 C6EE877A 		vdiv.f32	s15, s13, s14
 256:main.cpp      **** 							break;
 2478              		.loc 11 256 31 view .LVU799
 2479 0658 C3ED1D7A 		vstr.32	s15, [r3, #116]
 257:main.cpp      **** 						}
 2480              		.loc 11 257 8 is_stmt 1 view .LVU800
 2481 065c F0E4     		b	.L65
 2482              	.L93:
 248:main.cpp      **** 						{
 2483              		.loc 11 248 7 view .LVU801
 249:main.cpp      **** 							vasynth.eg_a_release_ = ((float)p.value / 127.0f);
 2484              		.loc 11 249 7 view .LVU802
 250:main.cpp      **** 							vasynth.SetEG();
 2485              		.loc 11 250 8 view .LVU803
 250:main.cpp      **** 							vasynth.SetEG();
 2486              		.loc 11 250 33 is_stmt 0 view .LVU804
 2487 065e 07EE902A 		vmov	s15, r2	@ int
 250:main.cpp      **** 							vasynth.SetEG();
 2488              		.loc 11 250 48 view .LVU805
 2489 0662 9FED0D7A 		vldr.32	s14, .L179+32
 250:main.cpp      **** 							vasynth.SetEG();
 2490              		.loc 11 250 30 view .LVU806
 2491 0666 0848     		ldr	r0, .L179+16
 250:main.cpp      **** 							vasynth.SetEG();
 2492              		.loc 11 250 33 view .LVU807
 2493 0668 F8EE676A 		vcvt.f32.u32	s13, s15
 250:main.cpp      **** 							vasynth.SetEG();
 2494              		.loc 11 250 48 view .LVU808
 2495 066c C6EE877A 		vdiv.f32	s15, s13, s14
 250:main.cpp      **** 							vasynth.SetEG();
 2496              		.loc 11 250 30 view .LVU809
 2497 0670 C0ED0C7A 		vstr.32	s15, [r0, #48]
 251:main.cpp      **** 							break;
 2498              		.loc 11 251 8 is_stmt 1 view .LVU810
 2499 0674 FEE6     		b	.L170
 2500              	.L180:
 2501 0676 00BF     		.align	2
ARM GAS  C:\Users\jcjco\AppData\Local\Temp\cc6lIF5P.s 			page 85


 2502              	.L179:
 2503 0678 00000000 		.word	.LANCHOR4
 2504 067c 00000000 		.word	.LANCHOR8
 2505 0680 00000000 		.word	.LANCHOR2
 2506 0684 02000020 		.word	536870914
 2507 0688 00000000 		.word	.LANCHOR1
 2508 068c 0080FF43 		.word	1140817920
 2509 0690 00007F43 		.word	1132396544
 2510 0694 00A08C46 		.word	1183621120
 2511 0698 0000FE42 		.word	1123942400
 2512              	.L94:
 242:main.cpp      **** 						{
 2513              		.loc 11 242 7 view .LVU811
 243:main.cpp      **** 							vasynth.eg_a_sustain_ = ((float)p.value / 127.0f);
 2514              		.loc 11 243 7 view .LVU812
 244:main.cpp      **** 							vasynth.SetEG();
 2515              		.loc 11 244 8 view .LVU813
 244:main.cpp      **** 							vasynth.SetEG();
 2516              		.loc 11 244 33 is_stmt 0 view .LVU814
 2517 069c 07EE902A 		vmov	s15, r2	@ int
 244:main.cpp      **** 							vasynth.SetEG();
 2518              		.loc 11 244 48 view .LVU815
 2519 06a0 1FED037A 		vldr.32	s14, .L179+32
 244:main.cpp      **** 							vasynth.SetEG();
 2520              		.loc 11 244 30 view .LVU816
 2521 06a4 3548     		ldr	r0, .L181
 244:main.cpp      **** 							vasynth.SetEG();
 2522              		.loc 11 244 33 view .LVU817
 2523 06a6 F8EE676A 		vcvt.f32.u32	s13, s15
 244:main.cpp      **** 							vasynth.SetEG();
 2524              		.loc 11 244 48 view .LVU818
 2525 06aa C6EE877A 		vdiv.f32	s15, s13, s14
 244:main.cpp      **** 							vasynth.SetEG();
 2526              		.loc 11 244 30 view .LVU819
 2527 06ae C0ED0B7A 		vstr.32	s15, [r0, #44]
 245:main.cpp      **** 							break;
 2528              		.loc 11 245 8 is_stmt 1 view .LVU820
 2529 06b2 DFE6     		b	.L170
 2530              	.L81:
 316:main.cpp      **** 						{
 2531              		.loc 11 316 7 discriminator 4 view .LVU821
 317:main.cpp      **** 							switch(p.value >> 5)
 2532              		.loc 11 317 7 discriminator 4 view .LVU822
 318:main.cpp      **** 							{
 2533              		.loc 11 318 8 discriminator 4 view .LVU823
 2534 06b4 5209     		lsrs	r2, r2, #5
 2535              	.LVL106:
 318:main.cpp      **** 							{
 2536              		.loc 11 318 8 is_stmt 0 discriminator 4 view .LVU824
 2537 06b6 032A     		cmp	r2, #3
 2538 06b8 13D8     		bhi	.L120
 2539 06ba DFE802F0 		tbb	[pc, r2]
 2540              	.L122:
 2541 06be 19       		.byte	(.L125-.L122)/2
 2542 06bf 1E       		.byte	(.L124-.L122)/2
 2543 06c0 14       		.byte	(.L123-.L122)/2
 2544 06c1 0E       		.byte	(.L121-.L122)/2
ARM GAS  C:\Users\jcjco\AppData\Local\Temp\cc6lIF5P.s 			page 86


 2545              	.LVL107:
 2546              		.p2align 1
 2547              	.L82:
 310:main.cpp      **** 						{
 2548              		.loc 11 310 7 is_stmt 1 view .LVU825
 311:main.cpp      **** 							vasynth.vcavcflfo_amp_ = ((float)p.value / 127.0f);
 2549              		.loc 11 311 7 view .LVU826
 312:main.cpp      **** 							vasynth.SetVCAVCFLFO();
 2550              		.loc 11 312 8 view .LVU827
 312:main.cpp      **** 							vasynth.SetVCAVCFLFO();
 2551              		.loc 11 312 34 is_stmt 0 view .LVU828
 2552 06c2 07EE902A 		vmov	s15, r2	@ int
 312:main.cpp      **** 							vasynth.SetVCAVCFLFO();
 2553              		.loc 11 312 49 view .LVU829
 2554 06c6 9FED2E7A 		vldr.32	s14, .L181+4
 312:main.cpp      **** 							vasynth.SetVCAVCFLFO();
 2555              		.loc 11 312 31 view .LVU830
 2556 06ca 2C48     		ldr	r0, .L181
 312:main.cpp      **** 							vasynth.SetVCAVCFLFO();
 2557              		.loc 11 312 34 view .LVU831
 2558 06cc F8EE676A 		vcvt.f32.u32	s13, s15
 312:main.cpp      **** 							vasynth.SetVCAVCFLFO();
 2559              		.loc 11 312 49 view .LVU832
 2560 06d0 C6EE877A 		vdiv.f32	s15, s13, s14
 312:main.cpp      **** 							vasynth.SetVCAVCFLFO();
 2561              		.loc 11 312 31 view .LVU833
 2562 06d4 C0ED1C7A 		vstr.32	s15, [r0, #112]
 313:main.cpp      **** 							break;
 2563              		.loc 11 313 8 is_stmt 1 view .LVU834
 2564 06d8 8DE6     		b	.L172
 2565              	.LVL108:
 2566              	.L121:
 329:main.cpp      **** 									vasynth.vcavcflfo_waveform_ = WAVE_POLYBLEP_SAW;
 2567              		.loc 11 329 9 view .LVU835
 330:main.cpp      **** 									break;
 2568              		.loc 11 330 10 view .LVU836
 330:main.cpp      **** 									break;
 2569              		.loc 11 330 38 is_stmt 0 view .LVU837
 2570 06da 284B     		ldr	r3, .L181
 2571 06dc 0622     		movs	r2, #6
 2572 06de 83F86820 		strb	r2, [r3, #104]
 331:main.cpp      **** 							}
 2573              		.loc 11 331 10 is_stmt 1 view .LVU838
 2574              	.L120:
 333:main.cpp      **** 							break;
 2575              		.loc 11 333 8 view .LVU839
 333:main.cpp      **** 							break;
 2576              		.loc 11 333 28 is_stmt 0 view .LVU840
 2577 06e2 2648     		ldr	r0, .L181
 2578 06e4 87E6     		b	.L172
 2579              	.L123:
 326:main.cpp      **** 									vasynth.vcavcflfo_waveform_ = WAVE_SQUARE;
 2580              		.loc 11 326 9 is_stmt 1 view .LVU841
 327:main.cpp      **** 									break;
 2581              		.loc 11 327 10 view .LVU842
 327:main.cpp      **** 									break;
 2582              		.loc 11 327 38 is_stmt 0 view .LVU843
ARM GAS  C:\Users\jcjco\AppData\Local\Temp\cc6lIF5P.s 			page 87


 2583 06e6 254B     		ldr	r3, .L181
 2584 06e8 0422     		movs	r2, #4
 2585 06ea 83F86820 		strb	r2, [r3, #104]
 328:main.cpp      **** 								case 3:
 2586              		.loc 11 328 10 is_stmt 1 view .LVU844
 2587 06ee F8E7     		b	.L120
 2588              	.L125:
 320:main.cpp      **** 									vasynth.vcavcflfo_waveform_ = WAVE_TRI;
 2589              		.loc 11 320 9 view .LVU845
 321:main.cpp      **** 									break;
 2590              		.loc 11 321 10 view .LVU846
 321:main.cpp      **** 									break;
 2591              		.loc 11 321 38 is_stmt 0 view .LVU847
 2592 06f0 224B     		ldr	r3, .L181
 2593 06f2 0122     		movs	r2, #1
 2594 06f4 83F86820 		strb	r2, [r3, #104]
 322:main.cpp      **** 								case 1:
 2595              		.loc 11 322 10 is_stmt 1 view .LVU848
 2596 06f8 F3E7     		b	.L120
 2597              	.L124:
 323:main.cpp      **** 									vasynth.vcavcflfo_waveform_ = WAVE_SAW;
 2598              		.loc 11 323 9 view .LVU849
 324:main.cpp      **** 									break;
 2599              		.loc 11 324 10 view .LVU850
 324:main.cpp      **** 									break;
 2600              		.loc 11 324 38 is_stmt 0 view .LVU851
 2601 06fa 204B     		ldr	r3, .L181
 2602 06fc 0222     		movs	r2, #2
 2603 06fe 83F86820 		strb	r2, [r3, #104]
 325:main.cpp      **** 								case 2:
 2604              		.loc 11 325 10 is_stmt 1 view .LVU852
 2605 0702 EEE7     		b	.L120
 2606              	.L110:
 136:main.cpp      **** 									vasynth.waveform_ = WAVE_SAW;
 2607              		.loc 11 136 9 view .LVU853
 137:main.cpp      **** 									break;
 2608              		.loc 11 137 10 view .LVU854
 137:main.cpp      **** 									break;
 2609              		.loc 11 137 28 is_stmt 0 view .LVU855
 2610 0704 1D4B     		ldr	r3, .L181
 2611 0706 0222     		movs	r2, #2
 2612 0708 1A71     		strb	r2, [r3, #4]
 138:main.cpp      **** 								case 3:
 2613              		.loc 11 138 10 is_stmt 1 view .LVU856
 2614              	.L109:
 146:main.cpp      **** 							break;
 2615              		.loc 11 146 8 view .LVU857
 146:main.cpp      **** 							break;
 2616              		.loc 11 146 27 is_stmt 0 view .LVU858
 2617 070a 1C48     		ldr	r0, .L181
 2618              	.LBE373:
 2619              	.LBE392:
 499:main.cpp      **** 
 2620              		.loc 11 499 1 view .LVU859
 2621 070c 03B0     		add	sp, sp, #12
 2622              		.cfi_remember_state
 2623              		.cfi_def_cfa_offset 36
ARM GAS  C:\Users\jcjco\AppData\Local\Temp\cc6lIF5P.s 			page 88


 2624              		@ sp needed
 2625 070e BDE8F040 		pop	{r4, r5, r6, r7, lr}
 2626              		.cfi_restore 14
 2627              		.cfi_restore 7
 2628              		.cfi_restore 6
 2629              		.cfi_restore 5
 2630              		.cfi_restore 4
 2631              		.cfi_def_cfa_offset 16
 2632 0712 04B0     		add	sp, sp, #16
 2633              		.cfi_def_cfa_offset 0
 2634              	.LBB393:
 2635              	.LBB374:
 146:main.cpp      **** 							break;
 2636              		.loc 11 146 27 view .LVU860
 2637 0714 FFF7FEBF 		b	_ZN7VASynth11SetWaveformEv
 2638              	.LVL109:
 2639              	.L112:
 2640              		.cfi_restore_state
 139:main.cpp      **** 									vasynth.waveform_ = WAVE_SQUARE;
 2641              		.loc 11 139 9 is_stmt 1 view .LVU861
 140:main.cpp      **** 									break;
 2642              		.loc 11 140 10 view .LVU862
 140:main.cpp      **** 									break;
 2643              		.loc 11 140 28 is_stmt 0 view .LVU863
 2644 0718 184B     		ldr	r3, .L181
 2645 071a 0422     		movs	r2, #4
 2646 071c 1A71     		strb	r2, [r3, #4]
 141:main.cpp      **** 								case 2:
 2647              		.loc 11 141 10 is_stmt 1 view .LVU864
 2648 071e F4E7     		b	.L109
 2649              	.L113:
 142:main.cpp      **** 									vasynth.waveform_ = WAVE_POLYBLEP_SAW;
 2650              		.loc 11 142 9 view .LVU865
 143:main.cpp      **** 									break;
 2651              		.loc 11 143 10 view .LVU866
 143:main.cpp      **** 									break;
 2652              		.loc 11 143 28 is_stmt 0 view .LVU867
 2653 0720 164B     		ldr	r3, .L181
 2654 0722 0622     		movs	r2, #6
 2655 0724 1A71     		strb	r2, [r3, #4]
 144:main.cpp      **** 							}
 2656              		.loc 11 144 10 is_stmt 1 view .LVU868
 2657 0726 F0E7     		b	.L109
 2658              	.L114:
 133:main.cpp      **** 									vasynth.waveform_ = WAVE_TRI;
 2659              		.loc 11 133 9 view .LVU869
 134:main.cpp      **** 									break;
 2660              		.loc 11 134 10 view .LVU870
 134:main.cpp      **** 									break;
 2661              		.loc 11 134 28 is_stmt 0 view .LVU871
 2662 0728 144B     		ldr	r3, .L181
 2663 072a 0122     		movs	r2, #1
 2664 072c 1A71     		strb	r2, [r3, #4]
 135:main.cpp      **** 								case 4:
 2665              		.loc 11 135 10 is_stmt 1 view .LVU872
 2666 072e ECE7     		b	.L109
 2667              	.L115:
ARM GAS  C:\Users\jcjco\AppData\Local\Temp\cc6lIF5P.s 			page 89


 162:main.cpp      **** 									vasynth.osc2_waveform_ = WAVE_POLYBLEP_SAW;
 2668              		.loc 11 162 9 view .LVU873
 163:main.cpp      **** 									break;
 2669              		.loc 11 163 10 view .LVU874
 163:main.cpp      **** 									break;
 2670              		.loc 11 163 33 is_stmt 0 view .LVU875
 2671 0730 124B     		ldr	r3, .L181
 2672 0732 0622     		movs	r2, #6
 2673 0734 1A75     		strb	r2, [r3, #20]
 164:main.cpp      **** 							}
 2674              		.loc 11 164 10 is_stmt 1 view .LVU876
 2675 0736 E8E7     		b	.L109
 2676              	.L117:
 159:main.cpp      **** 									vasynth.osc2_waveform_ = WAVE_SQUARE;
 2677              		.loc 11 159 9 view .LVU877
 160:main.cpp      **** 									break;
 2678              		.loc 11 160 10 view .LVU878
 160:main.cpp      **** 									break;
 2679              		.loc 11 160 33 is_stmt 0 view .LVU879
 2680 0738 104B     		ldr	r3, .L181
 2681 073a 0422     		movs	r2, #4
 2682 073c 1A75     		strb	r2, [r3, #20]
 161:main.cpp      **** 								case 4:
 2683              		.loc 11 161 10 is_stmt 1 view .LVU880
 2684 073e E4E7     		b	.L109
 2685              	.L119:
 153:main.cpp      **** 									vasynth.osc2_waveform_ = WAVE_TRI;
 2686              		.loc 11 153 9 view .LVU881
 154:main.cpp      **** 									break;
 2687              		.loc 11 154 10 view .LVU882
 154:main.cpp      **** 									break;
 2688              		.loc 11 154 33 is_stmt 0 view .LVU883
 2689 0740 0E4B     		ldr	r3, .L181
 2690 0742 0122     		movs	r2, #1
 2691 0744 1A75     		strb	r2, [r3, #20]
 155:main.cpp      **** 								case 2:
 2692              		.loc 11 155 10 is_stmt 1 view .LVU884
 2693 0746 E0E7     		b	.L109
 2694              	.L118:
 156:main.cpp      **** 									vasynth.osc2_waveform_ = WAVE_SAW;
 2695              		.loc 11 156 9 view .LVU885
 157:main.cpp      **** 									break;
 2696              		.loc 11 157 10 view .LVU886
 157:main.cpp      **** 									break;
 2697              		.loc 11 157 33 is_stmt 0 view .LVU887
 2698 0748 0C4B     		ldr	r3, .L181
 2699 074a 0222     		movs	r2, #2
 2700 074c 1A75     		strb	r2, [r3, #20]
 158:main.cpp      **** 								case 3:
 2701              		.loc 11 158 10 is_stmt 1 view .LVU888
 2702 074e DCE7     		b	.L109
 2703              	.LVL110:
 2704              	.L127:
 158:main.cpp      **** 								case 3:
 2705              		.loc 11 158 10 is_stmt 0 view .LVU889
 2706              	.LBE374:
 2707              	.LBB375:
ARM GAS  C:\Users\jcjco\AppData\Local\Temp\cc6lIF5P.s 			page 90


 492:main.cpp      **** 					break;				
 2708              		.loc 11 492 6 is_stmt 1 view .LVU890
 492:main.cpp      **** 					break;				
 2709              		.loc 11 492 27 is_stmt 0 view .LVU891
 2710 0750 2146     		mov	r1, r4
 2711 0752 0A48     		ldr	r0, .L181
 2712              	.LBE375:
 2713              	.LBE393:
 499:main.cpp      **** 
 2714              		.loc 11 499 1 view .LVU892
 2715 0754 03B0     		add	sp, sp, #12
 2716              		.cfi_remember_state
 2717              		.cfi_def_cfa_offset 36
 2718              		@ sp needed
 2719 0756 BDE8F040 		pop	{r4, r5, r6, r7, lr}
 2720              		.cfi_restore 14
 2721              		.cfi_restore 7
 2722              		.cfi_restore 6
 2723              		.cfi_restore 5
 2724              		.cfi_restore 4
 2725              		.cfi_def_cfa_offset 16
 2726              	.LVL111:
 499:main.cpp      **** 
 2727              		.loc 11 499 1 view .LVU893
 2728 075a 04B0     		add	sp, sp, #16
 2729              		.cfi_def_cfa_offset 0
 2730              	.LBB394:
 2731              	.LBB376:
 492:main.cpp      **** 					break;				
 2732              		.loc 11 492 27 view .LVU894
 2733 075c FFF7FEBF 		b	_ZN7VASynth13ProgramChangeEh
 2734              	.LVL112:
 2735              	.L176:
 2736              		.cfi_restore_state
 492:main.cpp      **** 					break;				
 2737              		.loc 11 492 27 view .LVU895
 2738              	.LBE376:
 2739              	.LBB377:
  88:main.cpp      **** 				}
 2740              		.loc 11 88 6 is_stmt 1 view .LVU896
  88:main.cpp      **** 				}
 2741              		.loc 11 88 21 is_stmt 0 view .LVU897
 2742 0760 1146     		mov	r1, r2
 2743 0762 44F08000 		orr	r0, r4, #128
 2744 0766 0192     		str	r2, [sp, #4]
 2745 0768 FFF7FEFF 		bl	_Z15SequencerRecordhh
 2746              	.LVL113:
  88:main.cpp      **** 				}
 2747              		.loc 11 88 21 view .LVU898
 2748 076c 019A     		ldr	r2, [sp, #4]
 2749 076e 88E5     		b	.L74
 2750              	.LVL114:
 2751              	.L175:
  88:main.cpp      **** 				}
 2752              		.loc 11 88 21 view .LVU899
 2753              	.LBE377:
 2754              	.LBB378:
ARM GAS  C:\Users\jcjco\AppData\Local\Temp\cc6lIF5P.s 			page 91


 102:main.cpp      **** 				}
 2755              		.loc 11 102 6 is_stmt 1 view .LVU900
 102:main.cpp      **** 				}
 2756              		.loc 11 102 21 is_stmt 0 view .LVU901
 2757 0770 0021     		movs	r1, #0
 2758 0772 2046     		mov	r0, r4
 2759 0774 FFF7FEFF 		bl	_Z15SequencerRecordhh
 2760              	.LVL115:
 102:main.cpp      **** 				}
 2761              		.loc 11 102 21 view .LVU902
 2762 0778 73E4     		b	.L76
 2763              	.L182:
 2764 077a 00BF     		.align	2
 2765              	.L181:
 2766 077c 00000000 		.word	.LANCHOR1
 2767 0780 0000FE42 		.word	1123942400
 2768              	.LBE378:
 2769              	.LBE394:
 2770              		.cfi_endproc
 2771              	.LFE4793:
 2773              		.section	.text._Z9writeSrammh,"ax",%progbits
 2774              		.align	1
 2775              		.p2align 2,,3
 2776              		.global	_Z9writeSrammh
 2777              		.syntax unified
 2778              		.thumb
 2779              		.thumb_func
 2780              		.fpu fpv5-d16
 2782              	_Z9writeSrammh:
 2783              	.LVL116:
 2784              	.LFB4796:
 590:main.cpp      ****   /* Pointer write on specific location of backup SRAM */
 2785              		.loc 11 590 1 is_stmt 1 view -0
 2786              		.cfi_startproc
 2787              		@ args = 0, pretend = 0, frame = 0
 2788              		@ frame_needed = 0, uses_anonymous_args = 0
 2789              		@ link register save eliminated.
 592:main.cpp      **** }
 2790              		.loc 11 592 3 view .LVU904
 592:main.cpp      **** }
 2791              		.loc 11 592 47 is_stmt 0 view .LVU905
 2792 0000 00F10050 		add	r0, r0, #536870912
 2793              	.LVL117:
 592:main.cpp      **** }
 2794              		.loc 11 592 57 view .LVU906
 2795 0004 0170     		strb	r1, [r0]
 593:main.cpp      **** 
 2796              		.loc 11 593 1 view .LVU907
 2797 0006 7047     		bx	lr
 2798              		.cfi_endproc
 2799              	.LFE4796:
 2801              		.section	.text._Z8readSramm,"ax",%progbits
 2802              		.align	1
 2803              		.p2align 2,,3
 2804              		.global	_Z8readSramm
 2805              		.syntax unified
 2806              		.thumb
ARM GAS  C:\Users\jcjco\AppData\Local\Temp\cc6lIF5P.s 			page 92


 2807              		.thumb_func
 2808              		.fpu fpv5-d16
 2810              	_Z8readSramm:
 2811              	.LVL118:
 2812              	.LFB4797:
 596:main.cpp      ****   uint8_t i_retval;
 2813              		.loc 11 596 1 is_stmt 1 view -0
 2814              		.cfi_startproc
 2815              		@ args = 0, pretend = 0, frame = 0
 2816              		@ frame_needed = 0, uses_anonymous_args = 0
 2817              		@ link register save eliminated.
 597:main.cpp      **** 	
 2818              		.loc 11 597 3 view .LVU909
 600:main.cpp      **** 	
 2819              		.loc 11 600 3 view .LVU910
 600:main.cpp      **** 	
 2820              		.loc 11 600 59 is_stmt 0 view .LVU911
 2821 0000 00F10050 		add	r0, r0, #536870912
 2822              	.LVL119:
 600:main.cpp      **** 	
 2823              		.loc 11 600 12 view .LVU912
 2824 0004 0078     		ldrb	r0, [r0]	@ zero_extendqisi2
 2825              	.LVL120:
 602:main.cpp      **** }
 2826              		.loc 11 602 3 is_stmt 1 view .LVU913
 603:main.cpp      **** 
 2827              		.loc 11 603 1 is_stmt 0 view .LVU914
 2828 0006 7047     		bx	lr
 2829              		.cfi_endproc
 2830              	.LFE4797:
 2832              		.section	.text._Z13writeSramWordmt,"ax",%progbits
 2833              		.align	1
 2834              		.p2align 2,,3
 2835              		.global	_Z13writeSramWordmt
 2836              		.syntax unified
 2837              		.thumb
 2838              		.thumb_func
 2839              		.fpu fpv5-d16
 2841              	_Z13writeSramWordmt:
 2842              	.LVL121:
 2843              	.LFB4798:
 606:main.cpp      ****   /* Pointer write on specific location of backup SRAM */
 2844              		.loc 11 606 1 is_stmt 1 view -0
 2845              		.cfi_startproc
 2846              		@ args = 0, pretend = 0, frame = 0
 2847              		@ frame_needed = 0, uses_anonymous_args = 0
 2848              		@ link register save eliminated.
 608:main.cpp      **** }
 2849              		.loc 11 608 3 view .LVU916
 608:main.cpp      **** }
 2850              		.loc 11 608 48 is_stmt 0 view .LVU917
 2851 0000 00F10050 		add	r0, r0, #536870912
 2852              	.LVL122:
 608:main.cpp      **** }
 2853              		.loc 11 608 60 view .LVU918
 2854 0004 0180     		strh	r1, [r0]	@ movhi
 609:main.cpp      **** 
ARM GAS  C:\Users\jcjco\AppData\Local\Temp\cc6lIF5P.s 			page 93


 2855              		.loc 11 609 1 view .LVU919
 2856 0006 7047     		bx	lr
 2857              		.cfi_endproc
 2858              	.LFE4798:
 2860              		.section	.text._Z12readSramWordm,"ax",%progbits
 2861              		.align	1
 2862              		.p2align 2,,3
 2863              		.global	_Z12readSramWordm
 2864              		.syntax unified
 2865              		.thumb
 2866              		.thumb_func
 2867              		.fpu fpv5-d16
 2869              	_Z12readSramWordm:
 2870              	.LVL123:
 2871              	.LFB4799:
 612:main.cpp      ****   uint16_t i_retval_w;
 2872              		.loc 11 612 1 is_stmt 1 view -0
 2873              		.cfi_startproc
 2874              		@ args = 0, pretend = 0, frame = 0
 2875              		@ frame_needed = 0, uses_anonymous_args = 0
 2876              		@ link register save eliminated.
 613:main.cpp      **** 	
 2877              		.loc 11 613 3 view .LVU921
 616:main.cpp      **** 	
 2878              		.loc 11 616 3 view .LVU922
 616:main.cpp      **** 	
 2879              		.loc 11 616 62 is_stmt 0 view .LVU923
 2880 0000 00F10050 		add	r0, r0, #536870912
 2881              	.LVL124:
 616:main.cpp      **** 	
 2882              		.loc 11 616 14 view .LVU924
 2883 0004 0088     		ldrh	r0, [r0]
 2884              	.LVL125:
 618:main.cpp      **** }
 2885              		.loc 11 618 3 is_stmt 1 view .LVU925
 619:main.cpp      **** 
 2886              		.loc 11 619 1 is_stmt 0 view .LVU926
 2887 0006 80B2     		uxth	r0, r0
 619:main.cpp      **** 
 2888              		.loc 11 619 1 view .LVU927
 2889 0008 7047     		bx	lr
 2890              		.cfi_endproc
 2891              	.LFE4799:
 2893 000a 00BF     		.section	.text._Z15SeqTimer_Configv,"ax",%progbits
 2894              		.align	1
 2895              		.p2align 2,,3
 2896              		.global	_Z15SeqTimer_Configv
 2897              		.syntax unified
 2898              		.thumb
 2899              		.thumb_func
 2900              		.fpu fpv5-d16
 2902              	_Z15SeqTimer_Configv:
 2903              	.LFB4801:
 626:main.cpp      **** 
 627:main.cpp      **** void SeqTimer_Config(void)
 628:main.cpp      **** {
 2904              		.loc 11 628 1 is_stmt 1 view -0
ARM GAS  C:\Users\jcjco\AppData\Local\Temp\cc6lIF5P.s 			page 94


 2905              		.cfi_startproc
 2906              		@ args = 0, pretend = 0, frame = 24
 2907              		@ frame_needed = 0, uses_anonymous_args = 0
 629:main.cpp      **** 	/* Create Timer Handle and Config */
 630:main.cpp      ****     TimerHandle         tim5;
 2908              		.loc 11 630 5 view .LVU929
 628:main.cpp      **** 	/* Create Timer Handle and Config */
 2909              		.loc 11 628 1 is_stmt 0 view .LVU930
 2910 0000 10B5     		push	{r4, lr}
 2911              		.cfi_def_cfa_offset 8
 2912              		.cfi_offset 4, -8
 2913              		.cfi_offset 14, -4
 631:main.cpp      ****     TimerHandle::Config tim_cfg;
 632:main.cpp      **** 
 633:main.cpp      ****     /** TIM5 with IRQ enabled */
 634:main.cpp      ****     tim_cfg.periph     = TimerHandle::Config::Peripheral::TIM_5;
 2914              		.loc 11 634 24 view .LVU931
 2915 0002 0322     		movs	r2, #3
 628:main.cpp      **** 	/* Create Timer Handle and Config */
 2916              		.loc 11 628 1 view .LVU932
 2917 0004 86B0     		sub	sp, sp, #24
 2918              		.cfi_def_cfa_offset 32
 2919              	.LVL126:
 2920              	.LBB395:
 2921              	.LBI395:
 2922              		.file 15 "../../libDaisy/src/per/tim.h"
   1:../../libDaisy/src/per/tim.h **** #pragma once
   2:../../libDaisy/src/per/tim.h **** #ifndef DSY_TIM_H
   3:../../libDaisy/src/per/tim.h **** #define DSY_TIM_H
   4:../../libDaisy/src/per/tim.h **** 
   5:../../libDaisy/src/per/tim.h **** #include <cstdint>
   6:../../libDaisy/src/per/tim.h **** 
   7:../../libDaisy/src/per/tim.h **** namespace daisy
   8:../../libDaisy/src/per/tim.h **** {
   9:../../libDaisy/src/per/tim.h **** /** @brief Hardare timer peripheral support.
  10:../../libDaisy/src/per/tim.h ****  ** 
  11:../../libDaisy/src/per/tim.h ****  ** Supports general-function TIM peripherals:
  12:../../libDaisy/src/per/tim.h ****  ** - TIM2, TIM3, TIM4, TIM5
  13:../../libDaisy/src/per/tim.h ****  **
  14:../../libDaisy/src/per/tim.h ****  ** DaisySeed, and many internal peripherals utilize TIM2 for timing/delay purposes.
  15:../../libDaisy/src/per/tim.h ****  ** It is configured to be at the maximum frequency: typically 200MHz or 240MHz (boost) 
  16:../../libDaisy/src/per/tim.h ****  ** for measuring/delaying for very short periods. 
  17:../../libDaisy/src/per/tim.h ****  **
  18:../../libDaisy/src/per/tim.h ****  ** The GetUs/GetMs functions are available for convenience (and backwards compatibility),
  19:../../libDaisy/src/per/tim.h ****  ** but to avoid wrapping errors on math when doing time-delta calculations, using ticks is 
  20:../../libDaisy/src/per/tim.h ****  ** recommended. The data can be converted to the final time-base after getting the difference in t
  21:../../libDaisy/src/per/tim.h ****  ** (Using GetFreq() can be used for these time-base calculations).
  22:../../libDaisy/src/per/tim.h ****  **
  23:../../libDaisy/src/per/tim.h ****  ** User callbacks can be set, and changed at any point during operation. However,
  24:../../libDaisy/src/per/tim.h ****  ** the Config::enable_irq must be set to true when initializing for the interrupts
  25:../../libDaisy/src/per/tim.h ****  ** to turn on and function.
  26:../../libDaisy/src/per/tim.h ****  **
  27:../../libDaisy/src/per/tim.h ****  ** @todo Fix issues with realtime getters, and wrapping of the timer(s).
  28:../../libDaisy/src/per/tim.h ****  **     - This very noticeable with default settings for the 16-bit counters.
  29:../../libDaisy/src/per/tim.h ****  ** @todo Other General purpose timers
  30:../../libDaisy/src/per/tim.h ****  ** @todo Non-internal clock sources
  31:../../libDaisy/src/per/tim.h ****  ** @todo Use of the four-tim channels per tim
ARM GAS  C:\Users\jcjco\AppData\Local\Temp\cc6lIF5P.s 			page 95


  32:../../libDaisy/src/per/tim.h ****  **     - PWM, etc.
  33:../../libDaisy/src/per/tim.h ****  **     - InputCapture/OutputCompare, etc.
  34:../../libDaisy/src/per/tim.h ****  ** @todo HRTIM
  35:../../libDaisy/src/per/tim.h ****  ** @todo Advanced timers (TIM1/TIM8)
  36:../../libDaisy/src/per/tim.h ****  ** */
  37:../../libDaisy/src/per/tim.h **** class TimerHandle
  38:../../libDaisy/src/per/tim.h **** {
  39:../../libDaisy/src/per/tim.h ****   public:
  40:../../libDaisy/src/per/tim.h ****     /** @brief Configuration struct for the Peripheral
  41:../../libDaisy/src/per/tim.h ****      *  @note These settings are used during initialization
  42:../../libDaisy/src/per/tim.h ****      *   and changing them afterwards may not have the desired effect.
  43:../../libDaisy/src/per/tim.h ****      */
  44:../../libDaisy/src/per/tim.h ****     struct Config
  45:../../libDaisy/src/per/tim.h ****     {
  46:../../libDaisy/src/per/tim.h ****         /** @brief Hardware Timer to configure, and use. */
  47:../../libDaisy/src/per/tim.h ****         enum class Peripheral
  48:../../libDaisy/src/per/tim.h ****         {
  49:../../libDaisy/src/per/tim.h ****             TIM_2 = 0, /**< 32-bit counter */
  50:../../libDaisy/src/per/tim.h ****             TIM_3,     /**< 16-bit counter */
  51:../../libDaisy/src/per/tim.h ****             TIM_4,     /**< 16-bit counter */
  52:../../libDaisy/src/per/tim.h ****             TIM_5,     /**< 32-bit counter*/
  53:../../libDaisy/src/per/tim.h ****         };
  54:../../libDaisy/src/per/tim.h **** 
  55:../../libDaisy/src/per/tim.h ****         /** @brief Direction of the auto-reload counter. 
  56:../../libDaisy/src/per/tim.h ****          ** @todo Add support for the various  
  57:../../libDaisy/src/per/tim.h ****          ** versions of Up/Down counters.
  58:../../libDaisy/src/per/tim.h ****          ** */
  59:../../libDaisy/src/per/tim.h ****         enum class CounterDir
  60:../../libDaisy/src/per/tim.h ****         {
  61:../../libDaisy/src/per/tim.h ****             UP = 0,
  62:../../libDaisy/src/per/tim.h ****             DOWN,
  63:../../libDaisy/src/per/tim.h ****         };
  64:../../libDaisy/src/per/tim.h **** 
  65:../../libDaisy/src/per/tim.h ****         Peripheral periph; /**< Hardware Peripheral */
  66:../../libDaisy/src/per/tim.h ****         CounterDir dir;    /**< Counter direction */
  67:../../libDaisy/src/per/tim.h **** 
  68:../../libDaisy/src/per/tim.h ****         /** @brief period in ticks at TIM frequency that counter will reset based on dir
  69:../../libDaisy/src/per/tim.h ****          *  @note TIM3 and TIM4 are both 16-bit timers. So the period maximum is 0xffff.
  70:../../libDaisy/src/per/tim.h ****         */
  71:../../libDaisy/src/per/tim.h ****         uint32_t period;
  72:../../libDaisy/src/per/tim.h ****         bool     enable_irq; /**< Enable interrupt for user based callback */
  73:../../libDaisy/src/per/tim.h **** 
  74:../../libDaisy/src/per/tim.h ****         /* @brief Constructor for default states */
  75:../../libDaisy/src/per/tim.h ****         Config()
  76:../../libDaisy/src/per/tim.h ****         : periph(Peripheral::TIM_2),
  77:../../libDaisy/src/per/tim.h ****           dir(CounterDir::UP),
  78:../../libDaisy/src/per/tim.h ****           period(0xffffffff),
  79:../../libDaisy/src/per/tim.h ****           enable_irq(false)
  80:../../libDaisy/src/per/tim.h ****         {
  81:../../libDaisy/src/per/tim.h ****         }
  82:../../libDaisy/src/per/tim.h ****     };
  83:../../libDaisy/src/per/tim.h **** 
  84:../../libDaisy/src/per/tim.h ****     /** @brief Return values for TIM funcitons. */
  85:../../libDaisy/src/per/tim.h ****     enum class Result
  86:../../libDaisy/src/per/tim.h ****     {
  87:../../libDaisy/src/per/tim.h ****         OK,
  88:../../libDaisy/src/per/tim.h ****         ERR,
ARM GAS  C:\Users\jcjco\AppData\Local\Temp\cc6lIF5P.s 			page 96


  89:../../libDaisy/src/per/tim.h ****     };
  90:../../libDaisy/src/per/tim.h **** 
  91:../../libDaisy/src/per/tim.h ****     /** @brief User Callback type that will fire at the end of each timer 
  92:../../libDaisy/src/per/tim.h ****      *   period. This requires that Config::enable_irq is true before Init
  93:../../libDaisy/src/per/tim.h ****      *  @param data pointer to arbitrary user-provided data
  94:../../libDaisy/src/per/tim.h ****     */
  95:../../libDaisy/src/per/tim.h ****     typedef void (*PeriodElapsedCallback)(void* data);
  96:../../libDaisy/src/per/tim.h **** 
  97:../../libDaisy/src/per/tim.h ****     TimerHandle() : pimpl_(nullptr) {}
 2923              		.loc 15 97 5 is_stmt 1 view .LVU933
 2924              	.LBB396:
 2925              	.LBB397:
 2926              		.loc 15 97 35 is_stmt 0 view .LVU934
 2927 0006 0024     		movs	r4, #0
 2928              	.LBE397:
 2929              	.LBE396:
 2930              	.LBE395:
 2931              	.LBB400:
 2932              	.LBB401:
 2933              	.LBB402:
  79:../../libDaisy/src/per/tim.h ****         {
 2934              		.loc 15 79 27 view .LVU935
 2935 0008 4FF0FF31 		mov	r1, #-1
 2936              	.LBE402:
 2937              	.LBE401:
 2938              	.LBE400:
 635:main.cpp      ****     tim_cfg.enable_irq = true;
 2939              		.loc 11 635 24 view .LVU936
 2940 000c 0123     		movs	r3, #1
 634:main.cpp      ****     tim_cfg.enable_irq = true;
 2941              		.loc 11 634 24 view .LVU937
 2942 000e 0292     		str	r2, [sp, #8]
 2943              	.LBB405:
 2944              	.LBB399:
 2945              	.LBB398:
 2946              		.loc 15 97 35 view .LVU938
 2947 0010 0194     		str	r4, [sp, #4]
 2948              	.LVL127:
 2949              		.loc 15 97 35 view .LVU939
 2950              	.LBE398:
 2951              	.LBE399:
 2952              	.LBE405:
 631:main.cpp      **** 
 2953              		.loc 11 631 5 is_stmt 1 view .LVU940
 2954              	.LBB406:
 2955              	.LBI400:
  75:../../libDaisy/src/per/tim.h ****         : periph(Peripheral::TIM_2),
 2956              		.loc 15 75 9 view .LVU941
 2957              	.LBE406:
 2958              		.loc 11 635 24 is_stmt 0 view .LVU942
 2959 0012 8DF81430 		strb	r3, [sp, #20]
 2960              	.LBB407:
 2961              	.LBB404:
 2962              	.LBB403:
  79:../../libDaisy/src/per/tim.h ****         {
 2963              		.loc 15 79 27 view .LVU943
 2964 0016 CDE90341 		strd	r4, r1, [sp, #12]
ARM GAS  C:\Users\jcjco\AppData\Local\Temp\cc6lIF5P.s 			page 97


 2965              	.LVL128:
  79:../../libDaisy/src/per/tim.h ****         {
 2966              		.loc 15 79 27 view .LVU944
 2967              	.LBE403:
 2968              	.LBE404:
 2969              	.LBE407:
 634:main.cpp      ****     tim_cfg.enable_irq = true;
 2970              		.loc 11 634 5 is_stmt 1 view .LVU945
 2971              		.loc 11 635 5 view .LVU946
 636:main.cpp      **** 
 637:main.cpp      ****     /** Configure frequency (240Hz) */
 638:main.cpp      ****     auto tim_target_freq = 240;
 2972              		.loc 11 638 5 view .LVU947
 639:main.cpp      ****     auto tim_base_freq   = System::GetPClk2Freq();
 2973              		.loc 11 639 5 view .LVU948
 2974              		.loc 11 639 48 is_stmt 0 view .LVU949
 2975 001a FFF7FEFF 		bl	_ZN5daisy6System12GetPClk2FreqEv
 2976              	.LVL129:
 640:main.cpp      ****     tim_cfg.period       = tim_base_freq / tim_target_freq;
 2977              		.loc 11 640 42 view .LVU950
 2978 001e 094B     		ldr	r3, .L189
 641:main.cpp      **** 
 642:main.cpp      ****     /** Initialize timer */
 643:main.cpp      ****     tim5.Init(tim_cfg);
 2979              		.loc 11 643 14 view .LVU951
 2980 0020 02A9     		add	r1, sp, #8
 2981              	.LVL130:
 640:main.cpp      ****     tim_cfg.period       = tim_base_freq / tim_target_freq;
 2982              		.loc 11 640 5 is_stmt 1 view .LVU952
 640:main.cpp      ****     tim_cfg.period       = tim_base_freq / tim_target_freq;
 2983              		.loc 11 640 42 is_stmt 0 view .LVU953
 2984 0022 A3FB0030 		umull	r3, r0, r3, r0
 2985              	.LVL131:
 640:main.cpp      ****     tim_cfg.period       = tim_base_freq / tim_target_freq;
 2986              		.loc 11 640 42 view .LVU954
 2987 0026 C009     		lsrs	r0, r0, #7
 640:main.cpp      ****     tim_cfg.period       = tim_base_freq / tim_target_freq;
 2988              		.loc 11 640 26 view .LVU955
 2989 0028 0490     		str	r0, [sp, #16]
 2990              		.loc 11 643 5 is_stmt 1 view .LVU956
 2991              		.loc 11 643 14 is_stmt 0 view .LVU957
 2992 002a 01A8     		add	r0, sp, #4
 2993 002c FFF7FEFF 		bl	_ZN5daisy11TimerHandle4InitERKNS0_6ConfigE
 2994              	.LVL132:
 644:main.cpp      ****     tim5.SetCallback(Callback);
 2995              		.loc 11 644 5 is_stmt 1 view .LVU958
 2996              		.loc 11 644 21 is_stmt 0 view .LVU959
 2997 0030 2246     		mov	r2, r4
 2998 0032 0549     		ldr	r1, .L189+4
 2999 0034 01A8     		add	r0, sp, #4
 3000 0036 FFF7FEFF 		bl	_ZN5daisy11TimerHandle11SetCallbackEPFvPvES1_
 3001              	.LVL133:
 645:main.cpp      **** 
 646:main.cpp      ****     /** Start the timer, and generate callbacks at the end of each period */
 647:main.cpp      ****     tim5.Start();
 3002              		.loc 11 647 5 is_stmt 1 view .LVU960
 3003              		.loc 11 647 15 is_stmt 0 view .LVU961
ARM GAS  C:\Users\jcjco\AppData\Local\Temp\cc6lIF5P.s 			page 98


 3004 003a 01A8     		add	r0, sp, #4
 3005 003c FFF7FEFF 		bl	_ZN5daisy11TimerHandle5StartEv
 3006              	.LVL134:
 3007              	.LBB408:
 3008              	.LBI408:
  98:../../libDaisy/src/per/tim.h ****     TimerHandle(const TimerHandle& other) = default;
  99:../../libDaisy/src/per/tim.h ****     TimerHandle& operator=(const TimerHandle& other) = default;
 100:../../libDaisy/src/per/tim.h ****     ~TimerHandle() {}
 3009              		.loc 15 100 5 is_stmt 1 view .LVU962
 3010              		.loc 15 100 5 is_stmt 0 view .LVU963
 3011              	.LBE408:
 648:main.cpp      **** }
 3012              		.loc 11 648 1 view .LVU964
 3013 0040 06B0     		add	sp, sp, #24
 3014              		.cfi_def_cfa_offset 8
 3015              		@ sp needed
 3016 0042 10BD     		pop	{r4, pc}
 3017              	.L190:
 3018              		.align	2
 3019              	.L189:
 3020 0044 89888888 		.word	-2004318071
 3021 0048 00000000 		.word	_Z8CallbackPv
 3022              		.cfi_endproc
 3023              	.LFE4801:
 3025              		.section	.text._ZN5daisy11MidiHandlerINS_16MidiUsbTransportEE5ParseEh,"axG",%progbits,_ZN5daisy11M
 3026              		.align	1
 3027              		.p2align 2,,3
 3028              		.weak	_ZN5daisy11MidiHandlerINS_16MidiUsbTransportEE5ParseEh
 3029              		.syntax unified
 3030              		.thumb
 3031              		.thumb_func
 3032              		.fpu fpv5-d16
 3034              	_ZN5daisy11MidiHandlerINS_16MidiUsbTransportEE5ParseEh:
 3035              	.LVL135:
 3036              	.LFB5240:
  86:../../libDaisy/src/hid/midi.h **** 
  87:../../libDaisy/src/hid/midi.h ****     struct Config
  88:../../libDaisy/src/hid/midi.h ****     {
  89:../../libDaisy/src/hid/midi.h ****         typename Transport::Config transport_config;
  90:../../libDaisy/src/hid/midi.h ****     };
  91:../../libDaisy/src/hid/midi.h **** 
  92:../../libDaisy/src/hid/midi.h ****     /** Initializes the MidiHandler 
  93:../../libDaisy/src/hid/midi.h ****      *  \param config Configuration structure used to define specifics to the MIDI Handler.
  94:../../libDaisy/src/hid/midi.h ****      */
  95:../../libDaisy/src/hid/midi.h ****     void Init(Config config)
  96:../../libDaisy/src/hid/midi.h ****     {
  97:../../libDaisy/src/hid/midi.h ****         config_ = config;
  98:../../libDaisy/src/hid/midi.h **** 
  99:../../libDaisy/src/hid/midi.h ****         transport_.Init(config_.transport_config);
 100:../../libDaisy/src/hid/midi.h **** 
 101:../../libDaisy/src/hid/midi.h ****         event_q_.Init();
 102:../../libDaisy/src/hid/midi.h ****         incoming_message_.type = MessageLast;
 103:../../libDaisy/src/hid/midi.h ****         pstate_                = ParserEmpty;
 104:../../libDaisy/src/hid/midi.h ****     }
 105:../../libDaisy/src/hid/midi.h **** 
 106:../../libDaisy/src/hid/midi.h ****     /** Starts listening on the selected input mode(s). MidiEvent Queue will begin to fill, and can
 107:../../libDaisy/src/hid/midi.h ****     void StartReceive() { transport_.StartRx(); }
ARM GAS  C:\Users\jcjco\AppData\Local\Temp\cc6lIF5P.s 			page 99


 108:../../libDaisy/src/hid/midi.h **** 
 109:../../libDaisy/src/hid/midi.h ****     /** Start listening */
 110:../../libDaisy/src/hid/midi.h ****     void Listen()
 111:../../libDaisy/src/hid/midi.h ****     {
 112:../../libDaisy/src/hid/midi.h ****         uint32_t now;
 113:../../libDaisy/src/hid/midi.h ****         now = System::GetNow();
 114:../../libDaisy/src/hid/midi.h ****         while(transport_.Readable())
 115:../../libDaisy/src/hid/midi.h ****         {
 116:../../libDaisy/src/hid/midi.h ****             last_read_ = now;
 117:../../libDaisy/src/hid/midi.h ****             Parse(transport_.Rx());
 118:../../libDaisy/src/hid/midi.h ****         }
 119:../../libDaisy/src/hid/midi.h **** 
 120:../../libDaisy/src/hid/midi.h ****         // In case of UART Error, (particularly
 121:../../libDaisy/src/hid/midi.h ****         //  overrun error), UART disables itself.
 122:../../libDaisy/src/hid/midi.h ****         // Flush the buff, and restart.
 123:../../libDaisy/src/hid/midi.h ****         if(!transport_.RxActive())
 124:../../libDaisy/src/hid/midi.h ****         {
 125:../../libDaisy/src/hid/midi.h ****             pstate_ = ParserEmpty;
 126:../../libDaisy/src/hid/midi.h ****             transport_.FlushRx();
 127:../../libDaisy/src/hid/midi.h ****             StartReceive();
 128:../../libDaisy/src/hid/midi.h ****         }
 129:../../libDaisy/src/hid/midi.h ****     }
 130:../../libDaisy/src/hid/midi.h **** 
 131:../../libDaisy/src/hid/midi.h ****     /** Checks if there are unhandled messages in the queue 
 132:../../libDaisy/src/hid/midi.h ****     \return True if there are events to be handled, else false.
 133:../../libDaisy/src/hid/midi.h ****      */
 134:../../libDaisy/src/hid/midi.h ****     bool HasEvents() const { return event_q_.readable(); }
 135:../../libDaisy/src/hid/midi.h **** 
 136:../../libDaisy/src/hid/midi.h **** 
 137:../../libDaisy/src/hid/midi.h ****     /** Pops the oldest unhandled MidiEvent from the internal queue
 138:../../libDaisy/src/hid/midi.h ****     \return The event to be handled
 139:../../libDaisy/src/hid/midi.h ****      */
 140:../../libDaisy/src/hid/midi.h ****     MidiEvent PopEvent() { return event_q_.Read(); }
 141:../../libDaisy/src/hid/midi.h **** 
 142:../../libDaisy/src/hid/midi.h ****     /** SendMessage
 143:../../libDaisy/src/hid/midi.h ****     Send raw bytes as message
 144:../../libDaisy/src/hid/midi.h ****     */
 145:../../libDaisy/src/hid/midi.h ****     void SendMessage(uint8_t* bytes, size_t size)
 146:../../libDaisy/src/hid/midi.h ****     {
 147:../../libDaisy/src/hid/midi.h ****         transport_.Tx(bytes, size);
 148:../../libDaisy/src/hid/midi.h ****     }
 149:../../libDaisy/src/hid/midi.h **** 
 150:../../libDaisy/src/hid/midi.h ****     /** Feed in bytes to state machine from a queue.
 151:../../libDaisy/src/hid/midi.h ****     Populates internal FIFO queue with MIDI Messages
 152:../../libDaisy/src/hid/midi.h ****     For example with uart:
 153:../../libDaisy/src/hid/midi.h ****     midi.Parse(uart.PopRx());
 154:../../libDaisy/src/hid/midi.h ****     \param byte &
 155:../../libDaisy/src/hid/midi.h ****     */
 156:../../libDaisy/src/hid/midi.h ****     void Parse(uint8_t byte)
 3037              		.loc 8 156 10 is_stmt 1 view -0
 3038              		.cfi_startproc
 3039              		@ args = 0, pretend = 0, frame = 288
 3040              		@ frame_needed = 0, uses_anonymous_args = 0
 3041              		.loc 8 156 10 is_stmt 0 view .LVU966
 3042 0000 2DE9F041 		push	{r4, r5, r6, r7, r8, lr}
 3043              		.cfi_def_cfa_offset 24
 3044              		.cfi_offset 4, -24
ARM GAS  C:\Users\jcjco\AppData\Local\Temp\cc6lIF5P.s 			page 100


 3045              		.cfi_offset 5, -20
 3046              		.cfi_offset 6, -16
 3047              		.cfi_offset 7, -12
 3048              		.cfi_offset 8, -8
 3049              		.cfi_offset 14, -4
 157:../../libDaisy/src/hid/midi.h ****     {
 158:../../libDaisy/src/hid/midi.h ****         // reset parser when status byte is received
 159:../../libDaisy/src/hid/midi.h ****         if((byte & kStatusByteMask) && pstate_ != ParserSysEx)
 3050              		.loc 8 159 20 view .LVU967
 3051 0004 00F51044 		add	r4, r0, #36864
 156:../../libDaisy/src/hid/midi.h ****     {
 3052              		.loc 8 156 10 view .LVU968
 3053 0008 C8B0     		sub	sp, sp, #288
 3054              		.cfi_def_cfa_offset 312
 156:../../libDaisy/src/hid/midi.h ****     {
 3055              		.loc 8 156 10 view .LVU969
 3056 000a 0546     		mov	r5, r0
 3057              		.loc 8 159 18 view .LVU970
 3058 000c 94F8AC30 		ldrb	r3, [r4, #172]	@ zero_extendqisi2
 3059              		.loc 8 159 9 view .LVU971
 3060 0010 1942     		tst	r1, r3
 3061              		.loc 8 159 37 view .LVU972
 3062 0012 0379     		ldrb	r3, [r0, #4]	@ zero_extendqisi2
 3063              		.loc 8 159 9 view .LVU973
 3064 0014 18D0     		beq	.L192
 3065              		.loc 8 159 37 discriminator 1 view .LVU974
 3066 0016 032B     		cmp	r3, #3
 3067 0018 1CD0     		beq	.L193
 160:../../libDaisy/src/hid/midi.h ****         {
 161:../../libDaisy/src/hid/midi.h ****             pstate_ = ParserEmpty;
 3068              		.loc 8 161 21 view .LVU975
 3069 001a 0022     		movs	r2, #0
 3070 001c 0271     		strb	r2, [r0, #4]
 162:../../libDaisy/src/hid/midi.h ****         }
 163:../../libDaisy/src/hid/midi.h ****         switch(pstate_)
 164:../../libDaisy/src/hid/midi.h ****         {
 165:../../libDaisy/src/hid/midi.h ****             case ParserEmpty:
 166:../../libDaisy/src/hid/midi.h ****                 // check byte for valid Status Byte
 167:../../libDaisy/src/hid/midi.h ****                 if(byte & kStatusByteMask)
 168:../../libDaisy/src/hid/midi.h ****                 {
 169:../../libDaisy/src/hid/midi.h ****                     // Get MessageType, and Channel
 170:../../libDaisy/src/hid/midi.h ****                     incoming_message_.channel = byte & kChannelMask;
 3071              		.loc 8 170 54 view .LVU976
 3072 001e 94F8B030 		ldrb	r3, [r4, #176]	@ zero_extendqisi2
 3073 0022 0B40     		ands	r3, r3, r1
 3074 0024 C360     		str	r3, [r0, #12]
 171:../../libDaisy/src/hid/midi.h ****                     incoming_message_.type    = static_cast<MidiMessageType>(
 172:../../libDaisy/src/hid/midi.h ****                         (byte & kMessageMask) >> 4);
 3075              		.loc 8 172 31 view .LVU977
 3076 0026 94F8AD30 		ldrb	r3, [r4, #173]	@ zero_extendqisi2
 3077              		.loc 8 172 47 view .LVU978
 3078 002a 0B40     		ands	r3, r3, r1
 3079 002c 1B09     		lsrs	r3, r3, #4
 173:../../libDaisy/src/hid/midi.h **** 
 174:../../libDaisy/src/hid/midi.h ****                     // Validate, and move on.
 175:../../libDaisy/src/hid/midi.h ****                     if(incoming_message_.type < MessageLast)
 3080              		.loc 8 175 21 view .LVU979
ARM GAS  C:\Users\jcjco\AppData\Local\Temp\cc6lIF5P.s 			page 101


 3081 002e 092B     		cmp	r3, #9
 171:../../libDaisy/src/hid/midi.h ****                     incoming_message_.type    = static_cast<MidiMessageType>(
 3082              		.loc 8 171 47 view .LVU980
 3083 0030 0372     		strb	r3, [r0, #8]
 3084              		.loc 8 175 21 view .LVU981
 3085 0032 06D8     		bhi	.L191
 176:../../libDaisy/src/hid/midi.h ****                     {
 177:../../libDaisy/src/hid/midi.h ****                         pstate_ = ParserHasStatus;
 3086              		.loc 8 177 33 view .LVU982
 3087 0034 0120     		movs	r0, #1
 3088              	.LVL136:
 178:../../libDaisy/src/hid/midi.h ****                         // Mark this status byte as running_status
 179:../../libDaisy/src/hid/midi.h ****                         running_status_ = incoming_message_.type;
 180:../../libDaisy/src/hid/midi.h **** 
 181:../../libDaisy/src/hid/midi.h ****                         if(running_status_ == SystemCommon)
 3089              		.loc 8 181 25 view .LVU983
 3090 0036 072B     		cmp	r3, #7
 177:../../libDaisy/src/hid/midi.h ****                         // Mark this status byte as running_status
 3091              		.loc 8 177 33 view .LVU984
 3092 0038 2871     		strb	r0, [r5, #4]
 179:../../libDaisy/src/hid/midi.h **** 
 3093              		.loc 8 179 41 view .LVU985
 3094 003a 84F8A430 		strb	r3, [r4, #164]
 3095              		.loc 8 181 25 view .LVU986
 3096 003e 00F0E880 		beq	.L249
 3097              	.LVL137:
 3098              	.L191:
 182:../../libDaisy/src/hid/midi.h ****                         {
 183:../../libDaisy/src/hid/midi.h ****                             incoming_message_.channel = 0;
 184:../../libDaisy/src/hid/midi.h ****                             //system real time = 1111 1xxx
 185:../../libDaisy/src/hid/midi.h ****                             if(byte & 0x08)
 186:../../libDaisy/src/hid/midi.h ****                             {
 187:../../libDaisy/src/hid/midi.h ****                                 incoming_message_.type = SystemRealTime;
 188:../../libDaisy/src/hid/midi.h ****                                 running_status_        = SystemRealTime;
 189:../../libDaisy/src/hid/midi.h ****                                 incoming_message_.srt_type
 190:../../libDaisy/src/hid/midi.h ****                                     = static_cast<SystemRealTimeType>(
 191:../../libDaisy/src/hid/midi.h ****                                         byte & kSystemRealTimeMask);
 192:../../libDaisy/src/hid/midi.h **** 
 193:../../libDaisy/src/hid/midi.h ****                                 //short circuit to start
 194:../../libDaisy/src/hid/midi.h ****                                 pstate_ = ParserEmpty;
 195:../../libDaisy/src/hid/midi.h ****                                 event_q_.Write(incoming_message_);
 196:../../libDaisy/src/hid/midi.h ****                             }
 197:../../libDaisy/src/hid/midi.h ****                             //system common
 198:../../libDaisy/src/hid/midi.h ****                             else
 199:../../libDaisy/src/hid/midi.h ****                             {
 200:../../libDaisy/src/hid/midi.h ****                                 incoming_message_.sc_type
 201:../../libDaisy/src/hid/midi.h ****                                     = static_cast<SystemCommonType>(byte
 202:../../libDaisy/src/hid/midi.h ****                                                                     & 0x07);
 203:../../libDaisy/src/hid/midi.h ****                                 //sysex
 204:../../libDaisy/src/hid/midi.h ****                                 if(incoming_message_.sc_type == SystemExclusive)
 205:../../libDaisy/src/hid/midi.h ****                                 {
 206:../../libDaisy/src/hid/midi.h ****                                     pstate_ = ParserSysEx;
 207:../../libDaisy/src/hid/midi.h ****                                     incoming_message_.sysex_message_len = 0;
 208:../../libDaisy/src/hid/midi.h ****                                 }
 209:../../libDaisy/src/hid/midi.h ****                                 //short circuit
 210:../../libDaisy/src/hid/midi.h ****                                 else if(incoming_message_.sc_type > SongSelect)
 211:../../libDaisy/src/hid/midi.h ****                                 {
ARM GAS  C:\Users\jcjco\AppData\Local\Temp\cc6lIF5P.s 			page 102


 212:../../libDaisy/src/hid/midi.h ****                                     pstate_ = ParserEmpty;
 213:../../libDaisy/src/hid/midi.h ****                                     event_q_.Write(incoming_message_);
 214:../../libDaisy/src/hid/midi.h ****                                 }
 215:../../libDaisy/src/hid/midi.h ****                             }
 216:../../libDaisy/src/hid/midi.h ****                         }
 217:../../libDaisy/src/hid/midi.h ****                     }
 218:../../libDaisy/src/hid/midi.h ****                     // Else we'll keep waiting for a valid incoming status byte
 219:../../libDaisy/src/hid/midi.h ****                 }
 220:../../libDaisy/src/hid/midi.h ****                 else
 221:../../libDaisy/src/hid/midi.h ****                 {
 222:../../libDaisy/src/hid/midi.h ****                     // Handle as running status
 223:../../libDaisy/src/hid/midi.h ****                     incoming_message_.type    = running_status_;
 224:../../libDaisy/src/hid/midi.h ****                     incoming_message_.data[0] = byte & kDataByteMask;
 225:../../libDaisy/src/hid/midi.h ****                     //check for single byte running status, really this only applies to channel pre
 226:../../libDaisy/src/hid/midi.h ****                     if(running_status_ == ChannelPressure
 227:../../libDaisy/src/hid/midi.h ****                        || running_status_ == ProgramChange
 228:../../libDaisy/src/hid/midi.h ****                        || incoming_message_.sc_type == MTCQuarterFrame
 229:../../libDaisy/src/hid/midi.h ****                        || incoming_message_.sc_type == SongSelect)
 230:../../libDaisy/src/hid/midi.h ****                     {
 231:../../libDaisy/src/hid/midi.h ****                         //Send the single byte update
 232:../../libDaisy/src/hid/midi.h ****                         pstate_ = ParserEmpty;
 233:../../libDaisy/src/hid/midi.h ****                         event_q_.Write(incoming_message_);
 234:../../libDaisy/src/hid/midi.h ****                     }
 235:../../libDaisy/src/hid/midi.h ****                     else
 236:../../libDaisy/src/hid/midi.h ****                     {
 237:../../libDaisy/src/hid/midi.h ****                         pstate_
 238:../../libDaisy/src/hid/midi.h ****                             = ParserHasData0; //we need to get the 2nd byte yet.
 239:../../libDaisy/src/hid/midi.h ****                     }
 240:../../libDaisy/src/hid/midi.h ****                 }
 241:../../libDaisy/src/hid/midi.h ****                 break;
 242:../../libDaisy/src/hid/midi.h ****             case ParserHasStatus:
 243:../../libDaisy/src/hid/midi.h ****                 if((byte & kStatusByteMask) == 0)
 244:../../libDaisy/src/hid/midi.h ****                 {
 245:../../libDaisy/src/hid/midi.h ****                     incoming_message_.data[0] = byte & kDataByteMask;
 246:../../libDaisy/src/hid/midi.h ****                     if(running_status_ == ChannelPressure
 247:../../libDaisy/src/hid/midi.h ****                        || running_status_ == ProgramChange
 248:../../libDaisy/src/hid/midi.h ****                        || incoming_message_.sc_type == MTCQuarterFrame
 249:../../libDaisy/src/hid/midi.h ****                        || incoming_message_.sc_type == SongSelect)
 250:../../libDaisy/src/hid/midi.h ****                     {
 251:../../libDaisy/src/hid/midi.h ****                         //these are just one data byte, so we short circuit back to start
 252:../../libDaisy/src/hid/midi.h ****                         pstate_ = ParserEmpty;
 253:../../libDaisy/src/hid/midi.h ****                         event_q_.Write(incoming_message_);
 254:../../libDaisy/src/hid/midi.h ****                     }
 255:../../libDaisy/src/hid/midi.h ****                     else
 256:../../libDaisy/src/hid/midi.h ****                     {
 257:../../libDaisy/src/hid/midi.h ****                         pstate_ = ParserHasData0;
 258:../../libDaisy/src/hid/midi.h ****                     }
 259:../../libDaisy/src/hid/midi.h **** 
 260:../../libDaisy/src/hid/midi.h ****                     //ChannelModeMessages (reserved Control Changes)
 261:../../libDaisy/src/hid/midi.h ****                     if(running_status_ == ControlChange
 262:../../libDaisy/src/hid/midi.h ****                        && incoming_message_.data[0] > 119)
 263:../../libDaisy/src/hid/midi.h ****                     {
 264:../../libDaisy/src/hid/midi.h ****                         incoming_message_.type = ChannelMode;
 265:../../libDaisy/src/hid/midi.h ****                         running_status_        = ChannelMode;
 266:../../libDaisy/src/hid/midi.h ****                         incoming_message_.cm_type
 267:../../libDaisy/src/hid/midi.h ****                             = static_cast<ChannelModeType>(
 268:../../libDaisy/src/hid/midi.h ****                                 incoming_message_.data[0] - 120);
ARM GAS  C:\Users\jcjco\AppData\Local\Temp\cc6lIF5P.s 			page 103


 269:../../libDaisy/src/hid/midi.h ****                     }
 270:../../libDaisy/src/hid/midi.h ****                 }
 271:../../libDaisy/src/hid/midi.h ****                 else
 272:../../libDaisy/src/hid/midi.h ****                 {
 273:../../libDaisy/src/hid/midi.h ****                     // invalid message go back to start ;p
 274:../../libDaisy/src/hid/midi.h ****                     pstate_ = ParserEmpty;
 275:../../libDaisy/src/hid/midi.h ****                 }
 276:../../libDaisy/src/hid/midi.h ****                 break;
 277:../../libDaisy/src/hid/midi.h ****             case ParserHasData0:
 278:../../libDaisy/src/hid/midi.h ****                 if((byte & kStatusByteMask) == 0)
 279:../../libDaisy/src/hid/midi.h ****                 {
 280:../../libDaisy/src/hid/midi.h ****                     incoming_message_.data[1] = byte & kDataByteMask;
 281:../../libDaisy/src/hid/midi.h **** 
 282:../../libDaisy/src/hid/midi.h ****                     //velocity 0 NoteOns are NoteOffs
 283:../../libDaisy/src/hid/midi.h ****                     if(running_status_ == NoteOn
 284:../../libDaisy/src/hid/midi.h ****                        && incoming_message_.data[1] == 0)
 285:../../libDaisy/src/hid/midi.h ****                     {
 286:../../libDaisy/src/hid/midi.h ****                         incoming_message_.type = NoteOff;
 287:../../libDaisy/src/hid/midi.h ****                     }
 288:../../libDaisy/src/hid/midi.h **** 
 289:../../libDaisy/src/hid/midi.h ****                     // At this point the message is valid, and we can add this MidiEvent to the que
 290:../../libDaisy/src/hid/midi.h ****                     event_q_.Write(incoming_message_);
 291:../../libDaisy/src/hid/midi.h ****                 }
 292:../../libDaisy/src/hid/midi.h ****                 else
 293:../../libDaisy/src/hid/midi.h ****                 {
 294:../../libDaisy/src/hid/midi.h ****                     // invalid message go back to start ;p
 295:../../libDaisy/src/hid/midi.h ****                     pstate_ = ParserEmpty;
 296:../../libDaisy/src/hid/midi.h ****                 }
 297:../../libDaisy/src/hid/midi.h ****                 // Regardless, of whether the data was valid or not we go back to empty
 298:../../libDaisy/src/hid/midi.h ****                 // because either the message is queued for handling or its not.
 299:../../libDaisy/src/hid/midi.h ****                 pstate_ = ParserEmpty;
 300:../../libDaisy/src/hid/midi.h ****                 break;
 301:../../libDaisy/src/hid/midi.h ****             case ParserSysEx:
 302:../../libDaisy/src/hid/midi.h ****                 // end of sysex
 303:../../libDaisy/src/hid/midi.h ****                 if(byte == 0xf7)
 304:../../libDaisy/src/hid/midi.h ****                 {
 305:../../libDaisy/src/hid/midi.h ****                     pstate_ = ParserEmpty;
 306:../../libDaisy/src/hid/midi.h ****                     event_q_.Write(incoming_message_);
 307:../../libDaisy/src/hid/midi.h ****                 }
 308:../../libDaisy/src/hid/midi.h ****                 else if(incoming_message_.sysex_message_len < SYSEX_BUFFER_LEN)
 309:../../libDaisy/src/hid/midi.h ****                 {
 310:../../libDaisy/src/hid/midi.h ****                     incoming_message_
 311:../../libDaisy/src/hid/midi.h ****                         .sysex_data[incoming_message_.sysex_message_len]
 312:../../libDaisy/src/hid/midi.h ****                         = byte;
 313:../../libDaisy/src/hid/midi.h ****                     incoming_message_.sysex_message_len++;
 314:../../libDaisy/src/hid/midi.h ****                 }
 315:../../libDaisy/src/hid/midi.h ****                 break;
 316:../../libDaisy/src/hid/midi.h ****             default: break;
 317:../../libDaisy/src/hid/midi.h ****         }
 318:../../libDaisy/src/hid/midi.h ****     }
 3099              		.loc 8 318 5 view .LVU987
 3100 0042 48B0     		add	sp, sp, #288
 3101              		.cfi_remember_state
 3102              		.cfi_def_cfa_offset 24
 3103              		@ sp needed
 3104 0044 BDE8F081 		pop	{r4, r5, r6, r7, r8, pc}
 3105              	.LVL138:
ARM GAS  C:\Users\jcjco\AppData\Local\Temp\cc6lIF5P.s 			page 104


 3106              	.L192:
 3107              		.cfi_restore_state
 3108              		.loc 8 318 5 view .LVU988
 3109 0048 032B     		cmp	r3, #3
 3110 004a FAD8     		bhi	.L191
 3111 004c DFE803F0 		tbb	[pc, r3]
 3112              	.L215:
 3113 0050 8D       		.byte	(.L201-.L215)/2
 3114 0051 11       		.byte	(.L205-.L215)/2
 3115 0052 58       		.byte	(.L210-.L215)/2
 3116 0053 02       		.byte	(.L193-.L215)/2
 3117              		.p2align 1
 3118              	.L193:
 303:../../libDaisy/src/hid/midi.h ****                 {
 3119              		.loc 8 303 17 view .LVU989
 3120 0054 F729     		cmp	r1, #247
 3121 0056 00F0C380 		beq	.L250
 308:../../libDaisy/src/hid/midi.h ****                 {
 3122              		.loc 8 308 22 view .LVU990
 3123 005a 95F99220 		ldrsb	r2, [r5, #146]
 308:../../libDaisy/src/hid/midi.h ****                 {
 3124              		.loc 8 308 43 view .LVU991
 3125 005e 95F89230 		ldrb	r3, [r5, #146]	@ zero_extendqisi2
 308:../../libDaisy/src/hid/midi.h ****                 {
 3126              		.loc 8 308 22 view .LVU992
 3127 0062 002A     		cmp	r2, #0
 3128 0064 EDDB     		blt	.L191
 312:../../libDaisy/src/hid/midi.h ****                     incoming_message_.sysex_message_len++;
 3129              		.loc 8 312 25 view .LVU993
 3130 0066 EA18     		adds	r2, r5, r3
 313:../../libDaisy/src/hid/midi.h ****                 }
 3131              		.loc 8 313 21 view .LVU994
 3132 0068 0133     		adds	r3, r3, #1
 312:../../libDaisy/src/hid/midi.h ****                     incoming_message_.sysex_message_len++;
 3133              		.loc 8 312 25 view .LVU995
 3134 006a 9174     		strb	r1, [r2, #18]
 313:../../libDaisy/src/hid/midi.h ****                 }
 3135              		.loc 8 313 21 view .LVU996
 3136 006c 85F89230 		strb	r3, [r5, #146]
 3137              		.loc 8 318 5 view .LVU997
 3138 0070 E7E7     		b	.L191
 3139              	.L205:
 245:../../libDaisy/src/hid/midi.h ****                     if(running_status_ == ChannelPressure
 3140              		.loc 8 245 54 view .LVU998
 3141 0072 94F8AE80 		ldrb	r8, [r4, #174]	@ zero_extendqisi2
 3142 0076 01EA0808 		and	r8, r1, r8
 245:../../libDaisy/src/hid/midi.h ****                     if(running_status_ == ChannelPressure
 3143              		.loc 8 245 47 view .LVU999
 3144 007a 85F81080 		strb	r8, [r5, #16]
 246:../../libDaisy/src/hid/midi.h ****                        || running_status_ == ProgramChange
 3145              		.loc 8 246 24 view .LVU1000
 3146 007e 94F8A470 		ldrb	r7, [r4, #164]	@ zero_extendqisi2
 246:../../libDaisy/src/hid/midi.h ****                        || running_status_ == ProgramChange
 3147              		.loc 8 246 21 view .LVU1001
 3148 0082 3B1F     		subs	r3, r7, #4
 3149 0084 012B     		cmp	r3, #1
 3150 0086 06D9     		bls	.L206
ARM GAS  C:\Users\jcjco\AppData\Local\Temp\cc6lIF5P.s 			page 105


 248:../../libDaisy/src/hid/midi.h ****                        || incoming_message_.sc_type == SongSelect)
 3151              		.loc 8 248 24 view .LVU1002
 3152 0088 95F89330 		ldrb	r3, [r5, #147]	@ zero_extendqisi2
 249:../../libDaisy/src/hid/midi.h ****                     {
 3153              		.loc 8 249 24 view .LVU1003
 3154 008c 03F0FD03 		and	r3, r3, #253
 3155 0090 012B     		cmp	r3, #1
 3156 0092 40F0BB80 		bne	.L207
 3157              	.L206:
 252:../../libDaisy/src/hid/midi.h ****                         event_q_.Write(incoming_message_);
 3158              		.loc 8 252 33 view .LVU1004
 3159 0096 0023     		movs	r3, #0
 3160 0098 6E46     		mov	r6, sp
 3161 009a 9022     		movs	r2, #144
 3162 009c 05F10801 		add	r1, r5, #8
 3163              	.LVL139:
 252:../../libDaisy/src/hid/midi.h ****                         event_q_.Write(incoming_message_);
 3164              		.loc 8 252 33 view .LVU1005
 3165 00a0 3046     		mov	r0, r6
 3166              	.LVL140:
 252:../../libDaisy/src/hid/midi.h ****                         event_q_.Write(incoming_message_);
 3167              		.loc 8 252 33 view .LVU1006
 3168 00a2 2B71     		strb	r3, [r5, #4]
 3169              	.LVL141:
 252:../../libDaisy/src/hid/midi.h ****                         event_q_.Write(incoming_message_);
 3170              		.loc 8 252 33 view .LVU1007
 3171 00a4 FFF7FEFF 		bl	memcpy
 3172              	.LVL142:
 3173              	.LBB445:
 3174              	.LBI445:
 3175              		.file 16 "../../libDaisy/src/util/ringbuffer.h"
   1:../../libDaisy/src/util/ringbuffer.h **** #pragma once
   2:../../libDaisy/src/util/ringbuffer.h **** #ifndef DSY_RINGBUFFER_H
   3:../../libDaisy/src/util/ringbuffer.h **** #define DSY_RINGBUFFER_H
   4:../../libDaisy/src/util/ringbuffer.h **** 
   5:../../libDaisy/src/util/ringbuffer.h **** #include <algorithm>
   6:../../libDaisy/src/util/ringbuffer.h **** 
   7:../../libDaisy/src/util/ringbuffer.h **** namespace daisy
   8:../../libDaisy/src/util/ringbuffer.h **** {
   9:../../libDaisy/src/util/ringbuffer.h **** /** @addtogroup utility
  10:../../libDaisy/src/util/ringbuffer.h ****     @{
  11:../../libDaisy/src/util/ringbuffer.h **** */
  12:../../libDaisy/src/util/ringbuffer.h **** 
  13:../../libDaisy/src/util/ringbuffer.h **** /**
  14:../../libDaisy/src/util/ringbuffer.h **** Utility Ring Buffer \n 
  15:../../libDaisy/src/util/ringbuffer.h **** imported from pichenettes/stmlib
  16:../../libDaisy/src/util/ringbuffer.h **** */
  17:../../libDaisy/src/util/ringbuffer.h **** template <typename T, size_t size>
  18:../../libDaisy/src/util/ringbuffer.h **** class RingBuffer
  19:../../libDaisy/src/util/ringbuffer.h **** {
  20:../../libDaisy/src/util/ringbuffer.h ****   public:
  21:../../libDaisy/src/util/ringbuffer.h ****     RingBuffer() {}
  22:../../libDaisy/src/util/ringbuffer.h **** 
  23:../../libDaisy/src/util/ringbuffer.h ****     /** Initializes the Ring Buffer */
  24:../../libDaisy/src/util/ringbuffer.h ****     inline void Init() { read_ptr_ = write_ptr_ = 0; }
  25:../../libDaisy/src/util/ringbuffer.h **** 
  26:../../libDaisy/src/util/ringbuffer.h ****     /** \return The total size of the ring buffer */
ARM GAS  C:\Users\jcjco\AppData\Local\Temp\cc6lIF5P.s 			page 106


  27:../../libDaisy/src/util/ringbuffer.h ****     inline size_t capacity() const { return size; }
  28:../../libDaisy/src/util/ringbuffer.h **** 
  29:../../libDaisy/src/util/ringbuffer.h ****     /** \return the number of samples that can be written to ring buffer without overwriting unread
  30:../../libDaisy/src/util/ringbuffer.h ****     inline size_t writable() const
  31:../../libDaisy/src/util/ringbuffer.h ****     {
  32:../../libDaisy/src/util/ringbuffer.h ****         return (read_ptr_ - write_ptr_ - 1) % size;
  33:../../libDaisy/src/util/ringbuffer.h ****     }
  34:../../libDaisy/src/util/ringbuffer.h **** 
  35:../../libDaisy/src/util/ringbuffer.h ****     /** \return number of unread elements in ring buffer */
  36:../../libDaisy/src/util/ringbuffer.h ****     inline size_t readable() const { return (write_ptr_ - read_ptr_) % size; }
  37:../../libDaisy/src/util/ringbuffer.h **** 
  38:../../libDaisy/src/util/ringbuffer.h ****     /** \returns True, if the buffer is empty. */
  39:../../libDaisy/src/util/ringbuffer.h ****     inline bool isEmpty() const { return write_ptr_ == read_ptr_; }
  40:../../libDaisy/src/util/ringbuffer.h **** 
  41:../../libDaisy/src/util/ringbuffer.h ****     /** Writes the value to the next available position in the ring buffer
  42:../../libDaisy/src/util/ringbuffer.h ****     \param v Value to write
  43:../../libDaisy/src/util/ringbuffer.h ****     */
  44:../../libDaisy/src/util/ringbuffer.h ****     inline void Write(T v)
 3176              		.loc 16 44 17 is_stmt 1 view .LVU1008
 3177              	.L208:
 3178              	.LBB446:
  45:../../libDaisy/src/util/ringbuffer.h ****     {
  46:../../libDaisy/src/util/ringbuffer.h ****         while(!writable())
 3179              		.loc 16 46 24 view .LVU1009
 3180              	.LBB447:
 3181              	.LBI447:
  30:../../libDaisy/src/util/ringbuffer.h ****     {
 3182              		.loc 16 30 19 view .LVU1010
 3183              	.LBB448:
  32:../../libDaisy/src/util/ringbuffer.h ****     }
 3184              		.loc 16 32 17 is_stmt 0 view .LVU1011
 3185 00a8 D4F89830 		ldr	r3, [r4, #152]
  32:../../libDaisy/src/util/ringbuffer.h ****     }
 3186              		.loc 16 32 29 view .LVU1012
 3187 00ac D4F89C20 		ldr	r2, [r4, #156]
 3188              	.LVL143:
  32:../../libDaisy/src/util/ringbuffer.h ****     }
 3189              		.loc 16 32 40 view .LVU1013
 3190 00b0 013B     		subs	r3, r3, #1
 3191 00b2 9B1A     		subs	r3, r3, r2
  32:../../libDaisy/src/util/ringbuffer.h ****     }
 3192              		.loc 16 32 47 view .LVU1014
 3193 00b4 DBB2     		uxtb	r3, r3
 3194              	.LBE448:
 3195              	.LBE447:
 3196              		.loc 16 46 24 view .LVU1015
 3197 00b6 002B     		cmp	r3, #0
 3198 00b8 F6D0     		beq	.L208
 3199              	.LVL144:
 3200              		.loc 16 46 24 view .LVU1016
 3201 00ba 9022     		movs	r2, #144
 3202 00bc 3146     		mov	r1, r6
 3203 00be 0DEB0200 		add	r0, sp, r2
 3204 00c2 FFF7FEFF 		bl	memcpy
 3205              	.LVL145:
 3206              	.LBB449:
 3207              	.LBI449:
ARM GAS  C:\Users\jcjco\AppData\Local\Temp\cc6lIF5P.s 			page 107


  47:../../libDaisy/src/util/ringbuffer.h ****             ;
  48:../../libDaisy/src/util/ringbuffer.h ****         Overwrite(v);
  49:../../libDaisy/src/util/ringbuffer.h ****     }
  50:../../libDaisy/src/util/ringbuffer.h **** 
  51:../../libDaisy/src/util/ringbuffer.h ****     /** Writes the new element to the ring buffer, overwriting unread data if necessary. 
  52:../../libDaisy/src/util/ringbuffer.h ****     \param v Value to overwrite
  53:../../libDaisy/src/util/ringbuffer.h ****      */
  54:../../libDaisy/src/util/ringbuffer.h ****     inline void Overwrite(T v)
 3208              		.loc 16 54 17 is_stmt 1 view .LVU1017
 3209              	.LBB450:
  55:../../libDaisy/src/util/ringbuffer.h ****     {
  56:../../libDaisy/src/util/ringbuffer.h ****         size_t w   = write_ptr_;
 3210              		.loc 16 56 16 is_stmt 0 view .LVU1018
 3211 00c6 D4F89C60 		ldr	r6, [r4, #156]
 3212              	.LVL146:
  57:../../libDaisy/src/util/ringbuffer.h ****         buffer_[w] = v;
 3213              		.loc 16 57 9 view .LVU1019
 3214 00ca 24A9     		add	r1, sp, #144
 3215 00cc 9022     		movs	r2, #144
 3216 00ce 06EBC600 		add	r0, r6, r6, lsl #3
  58:../../libDaisy/src/util/ringbuffer.h ****         write_ptr_ = (w + 1) % size;
 3217              		.loc 16 58 25 view .LVU1020
 3218 00d2 0136     		adds	r6, r6, #1
 3219              	.LVL147:
  57:../../libDaisy/src/util/ringbuffer.h ****         buffer_[w] = v;
 3220              		.loc 16 57 9 view .LVU1021
 3221 00d4 05EB0010 		add	r0, r5, r0, lsl #4
 3222              		.loc 16 58 30 view .LVU1022
 3223 00d8 F6B2     		uxtb	r6, r6
 3224              	.LVL148:
  57:../../libDaisy/src/util/ringbuffer.h ****         buffer_[w] = v;
 3225              		.loc 16 57 9 view .LVU1023
 3226 00da 9830     		adds	r0, r0, #152
 3227 00dc FFF7FEFF 		bl	memcpy
 3228              	.LVL149:
 3229              		.loc 16 58 20 view .LVU1024
 3230 00e0 C4F89C60 		str	r6, [r4, #156]
 3231              	.LVL150:
 3232              	.L209:
 3233              		.loc 16 58 20 view .LVU1025
 3234              	.LBE450:
 3235              	.LBE449:
 3236              	.LBE446:
 3237              	.LBE445:
 262:../../libDaisy/src/hid/midi.h ****                     {
 3238              		.loc 8 262 24 view .LVU1026
 3239 00e4 B8F1770F 		cmp	r8, #119
 3240 00e8 ABD9     		bls	.L191
 3241 00ea 032F     		cmp	r7, #3
 3242 00ec A9D1     		bne	.L191
 264:../../libDaisy/src/hid/midi.h ****                         running_status_        = ChannelMode;
 3243              		.loc 8 264 48 view .LVU1027
 3244 00ee 0923     		movs	r3, #9
 268:../../libDaisy/src/hid/midi.h ****                     }
 3245              		.loc 8 268 59 view .LVU1028
 3246 00f0 A8F17801 		sub	r1, r8, #120
 264:../../libDaisy/src/hid/midi.h ****                         running_status_        = ChannelMode;
ARM GAS  C:\Users\jcjco\AppData\Local\Temp\cc6lIF5P.s 			page 108


 3247              		.loc 8 264 48 view .LVU1029
 3248 00f4 2B72     		strb	r3, [r5, #8]
 265:../../libDaisy/src/hid/midi.h ****                         incoming_message_.cm_type
 3249              		.loc 8 265 48 view .LVU1030
 3250 00f6 84F8A430 		strb	r3, [r4, #164]
 267:../../libDaisy/src/hid/midi.h ****                                 incoming_message_.data[0] - 120);
 3251              		.loc 8 267 29 view .LVU1031
 3252 00fa 85F89510 		strb	r1, [r5, #149]
 3253 00fe A0E7     		b	.L191
 3254              	.LVL151:
 3255              	.L210:
 280:../../libDaisy/src/hid/midi.h **** 
 3256              		.loc 8 280 54 view .LVU1032
 3257 0100 94F8AE30 		ldrb	r3, [r4, #174]	@ zero_extendqisi2
 3258 0104 1940     		ands	r1, r1, r3
 3259              	.LVL152:
 280:../../libDaisy/src/hid/midi.h **** 
 3260              		.loc 8 280 47 view .LVU1033
 3261 0106 6974     		strb	r1, [r5, #17]
 283:../../libDaisy/src/hid/midi.h ****                        && incoming_message_.data[1] == 0)
 3262              		.loc 8 283 21 view .LVU1034
 3263 0108 94F8A430 		ldrb	r3, [r4, #164]	@ zero_extendqisi2
 284:../../libDaisy/src/hid/midi.h ****                     {
 3264              		.loc 8 284 24 view .LVU1035
 3265 010c 012B     		cmp	r3, #1
 3266 010e 02D1     		bne	.L211
 3267 0110 0029     		cmp	r1, #0
 3268 0112 00F08C80 		beq	.L251
 3269              	.L211:
 3270              	.LVL153:
 284:../../libDaisy/src/hid/midi.h ****                     {
 3271              		.loc 8 284 24 view .LVU1036
 3272 0116 6E46     		mov	r6, sp
 3273 0118 9022     		movs	r2, #144
 3274 011a 05F10801 		add	r1, r5, #8
 3275 011e 3046     		mov	r0, r6
 3276              	.LVL154:
 284:../../libDaisy/src/hid/midi.h ****                     {
 3277              		.loc 8 284 24 view .LVU1037
 3278 0120 FFF7FEFF 		bl	memcpy
 3279              	.LVL155:
 3280              	.LBB451:
 3281              	.LBI451:
  44:../../libDaisy/src/util/ringbuffer.h ****     {
 3282              		.loc 16 44 17 is_stmt 1 view .LVU1038
 3283              	.L212:
 3284              	.LBB452:
  46:../../libDaisy/src/util/ringbuffer.h ****             ;
 3285              		.loc 16 46 24 view .LVU1039
 3286              	.LBB453:
 3287              	.LBI453:
  30:../../libDaisy/src/util/ringbuffer.h ****     {
 3288              		.loc 16 30 19 view .LVU1040
 3289              	.LBB454:
  32:../../libDaisy/src/util/ringbuffer.h ****     }
 3290              		.loc 16 32 17 is_stmt 0 view .LVU1041
 3291 0124 D4F89830 		ldr	r3, [r4, #152]
ARM GAS  C:\Users\jcjco\AppData\Local\Temp\cc6lIF5P.s 			page 109


  32:../../libDaisy/src/util/ringbuffer.h ****     }
 3292              		.loc 16 32 29 view .LVU1042
 3293 0128 D4F89C20 		ldr	r2, [r4, #156]
 3294              	.LVL156:
  32:../../libDaisy/src/util/ringbuffer.h ****     }
 3295              		.loc 16 32 40 view .LVU1043
 3296 012c 013B     		subs	r3, r3, #1
 3297 012e 9B1A     		subs	r3, r3, r2
  32:../../libDaisy/src/util/ringbuffer.h ****     }
 3298              		.loc 16 32 47 view .LVU1044
 3299 0130 DBB2     		uxtb	r3, r3
 3300              	.LBE454:
 3301              	.LBE453:
  46:../../libDaisy/src/util/ringbuffer.h ****             ;
 3302              		.loc 16 46 24 view .LVU1045
 3303 0132 002B     		cmp	r3, #0
 3304 0134 F6D0     		beq	.L212
 3305              	.LVL157:
  46:../../libDaisy/src/util/ringbuffer.h ****             ;
 3306              		.loc 16 46 24 view .LVU1046
 3307 0136 9022     		movs	r2, #144
 3308 0138 3146     		mov	r1, r6
 3309 013a 0DEB0200 		add	r0, sp, r2
 3310 013e FFF7FEFF 		bl	memcpy
 3311              	.LVL158:
 3312              	.LBB455:
 3313              	.LBI455:
  54:../../libDaisy/src/util/ringbuffer.h ****     {
 3314              		.loc 16 54 17 is_stmt 1 view .LVU1047
 3315              	.LBB456:
  56:../../libDaisy/src/util/ringbuffer.h ****         buffer_[w] = v;
 3316              		.loc 16 56 16 is_stmt 0 view .LVU1048
 3317 0142 D4F89C60 		ldr	r6, [r4, #156]
 3318              	.LVL159:
  57:../../libDaisy/src/util/ringbuffer.h ****         write_ptr_ = (w + 1) % size;
 3319              		.loc 16 57 9 view .LVU1049
 3320 0146 24A9     		add	r1, sp, #144
 3321 0148 9022     		movs	r2, #144
 3322 014a 06EBC600 		add	r0, r6, r6, lsl #3
 3323              		.loc 16 58 25 view .LVU1050
 3324 014e 0136     		adds	r6, r6, #1
 3325              	.LVL160:
  57:../../libDaisy/src/util/ringbuffer.h ****         write_ptr_ = (w + 1) % size;
 3326              		.loc 16 57 9 view .LVU1051
 3327 0150 05EB0010 		add	r0, r5, r0, lsl #4
 3328              		.loc 16 58 30 view .LVU1052
 3329 0154 F6B2     		uxtb	r6, r6
 3330              	.LVL161:
  57:../../libDaisy/src/util/ringbuffer.h ****         write_ptr_ = (w + 1) % size;
 3331              		.loc 16 57 9 view .LVU1053
 3332 0156 9830     		adds	r0, r0, #152
 3333 0158 FFF7FEFF 		bl	memcpy
 3334              	.LVL162:
 3335              	.LBE456:
 3336              	.LBE455:
 3337              	.LBE452:
 3338              	.LBE451:
ARM GAS  C:\Users\jcjco\AppData\Local\Temp\cc6lIF5P.s 			page 110


 299:../../libDaisy/src/hid/midi.h ****                 break;
 3339              		.loc 8 299 25 view .LVU1054
 3340 015c 0023     		movs	r3, #0
 3341              	.LBB460:
 3342              	.LBB459:
 3343              	.LBB458:
 3344              	.LBB457:
 3345              		.loc 16 58 20 view .LVU1055
 3346 015e C4F89C60 		str	r6, [r4, #156]
 3347              	.LVL163:
 3348              		.loc 16 58 20 view .LVU1056
 3349              	.LBE457:
 3350              	.LBE458:
 3351              	.LBE459:
 3352              	.LBE460:
 299:../../libDaisy/src/hid/midi.h ****                 break;
 3353              		.loc 8 299 25 view .LVU1057
 3354 0162 2B71     		strb	r3, [r5, #4]
 3355              		.loc 8 318 5 view .LVU1058
 3356 0164 48B0     		add	sp, sp, #288
 3357              		.cfi_remember_state
 3358              		.cfi_def_cfa_offset 24
 3359              		@ sp needed
 3360 0166 BDE8F081 		pop	{r4, r5, r6, r7, r8, pc}
 3361              	.LVL164:
 3362              	.L201:
 3363              		.cfi_restore_state
 223:../../libDaisy/src/hid/midi.h ****                     incoming_message_.data[0] = byte & kDataByteMask;
 3364              		.loc 8 223 49 view .LVU1059
 3365 016a 94F8A430 		ldrb	r3, [r4, #164]	@ zero_extendqisi2
 223:../../libDaisy/src/hid/midi.h ****                     incoming_message_.data[0] = byte & kDataByteMask;
 3366              		.loc 8 223 47 view .LVU1060
 3367 016e 2B72     		strb	r3, [r5, #8]
 226:../../libDaisy/src/hid/midi.h ****                        || running_status_ == ProgramChange
 3368              		.loc 8 226 21 view .LVU1061
 3369 0170 043B     		subs	r3, r3, #4
 224:../../libDaisy/src/hid/midi.h ****                     //check for single byte running status, really this only applies to channel pre
 3370              		.loc 8 224 54 view .LVU1062
 3371 0172 94F8AE20 		ldrb	r2, [r4, #174]	@ zero_extendqisi2
 226:../../libDaisy/src/hid/midi.h ****                        || running_status_ == ProgramChange
 3372              		.loc 8 226 21 view .LVU1063
 3373 0176 012B     		cmp	r3, #1
 224:../../libDaisy/src/hid/midi.h ****                     //check for single byte running status, really this only applies to channel pre
 3374              		.loc 8 224 54 view .LVU1064
 3375 0178 01EA0201 		and	r1, r1, r2
 3376              	.LVL165:
 224:../../libDaisy/src/hid/midi.h ****                     //check for single byte running status, really this only applies to channel pre
 3377              		.loc 8 224 47 view .LVU1065
 3378 017c 2974     		strb	r1, [r5, #16]
 226:../../libDaisy/src/hid/midi.h ****                        || running_status_ == ProgramChange
 3379              		.loc 8 226 21 view .LVU1066
 3380 017e 05D9     		bls	.L202
 228:../../libDaisy/src/hid/midi.h ****                        || incoming_message_.sc_type == SongSelect)
 3381              		.loc 8 228 24 view .LVU1067
 3382 0180 95F89330 		ldrb	r3, [r5, #147]	@ zero_extendqisi2
 229:../../libDaisy/src/hid/midi.h ****                     {
 3383              		.loc 8 229 24 view .LVU1068
ARM GAS  C:\Users\jcjco\AppData\Local\Temp\cc6lIF5P.s 			page 111


 3384 0184 03F0FD03 		and	r3, r3, #253
 3385 0188 012B     		cmp	r3, #1
 3386 018a 3CD1     		bne	.L203
 3387              	.L202:
 232:../../libDaisy/src/hid/midi.h ****                         event_q_.Write(incoming_message_);
 3388              		.loc 8 232 33 view .LVU1069
 3389 018c 0023     		movs	r3, #0
 3390 018e 6E46     		mov	r6, sp
 3391 0190 9022     		movs	r2, #144
 3392 0192 05F10801 		add	r1, r5, #8
 3393 0196 3046     		mov	r0, r6
 3394              	.LVL166:
 232:../../libDaisy/src/hid/midi.h ****                         event_q_.Write(incoming_message_);
 3395              		.loc 8 232 33 view .LVU1070
 3396 0198 2B71     		strb	r3, [r5, #4]
 3397              	.LVL167:
 232:../../libDaisy/src/hid/midi.h ****                         event_q_.Write(incoming_message_);
 3398              		.loc 8 232 33 view .LVU1071
 3399 019a FFF7FEFF 		bl	memcpy
 3400              	.LVL168:
 3401              	.LBB461:
 3402              	.LBI461:
  44:../../libDaisy/src/util/ringbuffer.h ****     {
 3403              		.loc 16 44 17 is_stmt 1 view .LVU1072
 3404              	.L204:
 3405              	.LBB462:
  46:../../libDaisy/src/util/ringbuffer.h ****             ;
 3406              		.loc 16 46 24 view .LVU1073
 3407              	.LBB463:
 3408              	.LBI463:
  30:../../libDaisy/src/util/ringbuffer.h ****     {
 3409              		.loc 16 30 19 view .LVU1074
 3410              	.LBB464:
  32:../../libDaisy/src/util/ringbuffer.h ****     }
 3411              		.loc 16 32 17 is_stmt 0 view .LVU1075
 3412 019e D4F89830 		ldr	r3, [r4, #152]
  32:../../libDaisy/src/util/ringbuffer.h ****     }
 3413              		.loc 16 32 29 view .LVU1076
 3414 01a2 D4F89C20 		ldr	r2, [r4, #156]
 3415              	.LVL169:
  32:../../libDaisy/src/util/ringbuffer.h ****     }
 3416              		.loc 16 32 40 view .LVU1077
 3417 01a6 013B     		subs	r3, r3, #1
 3418 01a8 9B1A     		subs	r3, r3, r2
  32:../../libDaisy/src/util/ringbuffer.h ****     }
 3419              		.loc 16 32 47 view .LVU1078
 3420 01aa DBB2     		uxtb	r3, r3
 3421              	.LBE464:
 3422              	.LBE463:
  46:../../libDaisy/src/util/ringbuffer.h ****             ;
 3423              		.loc 16 46 24 view .LVU1079
 3424 01ac 002B     		cmp	r3, #0
 3425 01ae F6D0     		beq	.L204
 3426              	.LVL170:
 3427              	.L248:
  46:../../libDaisy/src/util/ringbuffer.h ****             ;
 3428              		.loc 16 46 24 view .LVU1080
ARM GAS  C:\Users\jcjco\AppData\Local\Temp\cc6lIF5P.s 			page 112


 3429 01b0 9022     		movs	r2, #144
 3430 01b2 3146     		mov	r1, r6
 3431 01b4 0DEB0200 		add	r0, sp, r2
 3432 01b8 FFF7FEFF 		bl	memcpy
 3433              	.LVL171:
 3434              	.LBE462:
 3435              	.LBE461:
 3436              	.LBB465:
 3437              	.LBB466:
 3438              	.LBB467:
 3439              	.LBI467:
  54:../../libDaisy/src/util/ringbuffer.h ****     {
 3440              		.loc 16 54 17 is_stmt 1 view .LVU1081
 3441              	.LBB468:
  56:../../libDaisy/src/util/ringbuffer.h ****         buffer_[w] = v;
 3442              		.loc 16 56 16 is_stmt 0 view .LVU1082
 3443 01bc D4F89C60 		ldr	r6, [r4, #156]
 3444              	.LVL172:
  57:../../libDaisy/src/util/ringbuffer.h ****         write_ptr_ = (w + 1) % size;
 3445              		.loc 16 57 9 view .LVU1083
 3446 01c0 24A9     		add	r1, sp, #144
 3447 01c2 9022     		movs	r2, #144
 3448 01c4 06EBC600 		add	r0, r6, r6, lsl #3
 3449              		.loc 16 58 25 view .LVU1084
 3450 01c8 0136     		adds	r6, r6, #1
 3451              	.LVL173:
  57:../../libDaisy/src/util/ringbuffer.h ****         write_ptr_ = (w + 1) % size;
 3452              		.loc 16 57 9 view .LVU1085
 3453 01ca 05EB0010 		add	r0, r5, r0, lsl #4
 3454              		.loc 16 58 30 view .LVU1086
 3455 01ce F6B2     		uxtb	r6, r6
 3456              	.LVL174:
  57:../../libDaisy/src/util/ringbuffer.h ****         write_ptr_ = (w + 1) % size;
 3457              		.loc 16 57 9 view .LVU1087
 3458 01d0 9830     		adds	r0, r0, #152
 3459 01d2 FFF7FEFF 		bl	memcpy
 3460              	.LVL175:
 3461              		.loc 16 58 20 view .LVU1088
 3462 01d6 C4F89C60 		str	r6, [r4, #156]
 3463              		.loc 16 58 20 view .LVU1089
 3464              	.LBE468:
 3465              	.LBE467:
 3466              	.LBE466:
 3467              	.LBE465:
 3468              		.loc 8 318 5 view .LVU1090
 3469 01da 48B0     		add	sp, sp, #288
 3470              		.cfi_remember_state
 3471              		.cfi_def_cfa_offset 24
 3472              		@ sp needed
 3473 01dc BDE8F081 		pop	{r4, r5, r6, r7, r8, pc}
 3474              	.LVL176:
 3475              	.L250:
 3476              		.cfi_restore_state
 305:../../libDaisy/src/hid/midi.h ****                     event_q_.Write(incoming_message_);
 3477              		.loc 8 305 29 view .LVU1091
 3478 01e0 0023     		movs	r3, #0
 3479 01e2 6E46     		mov	r6, sp
ARM GAS  C:\Users\jcjco\AppData\Local\Temp\cc6lIF5P.s 			page 113


 3480 01e4 9022     		movs	r2, #144
 3481 01e6 05F10801 		add	r1, r5, #8
 3482              	.LVL177:
 305:../../libDaisy/src/hid/midi.h ****                     event_q_.Write(incoming_message_);
 3483              		.loc 8 305 29 view .LVU1092
 3484 01ea 3046     		mov	r0, r6
 3485              	.LVL178:
 305:../../libDaisy/src/hid/midi.h ****                     event_q_.Write(incoming_message_);
 3486              		.loc 8 305 29 view .LVU1093
 3487 01ec 2B71     		strb	r3, [r5, #4]
 3488              	.LVL179:
 305:../../libDaisy/src/hid/midi.h ****                     event_q_.Write(incoming_message_);
 3489              		.loc 8 305 29 view .LVU1094
 3490 01ee FFF7FEFF 		bl	memcpy
 3491              	.LVL180:
 3492              	.LBB472:
 3493              	.LBI465:
  44:../../libDaisy/src/util/ringbuffer.h ****     {
 3494              		.loc 16 44 17 is_stmt 1 view .LVU1095
 3495              	.L214:
 3496              	.LBB471:
  46:../../libDaisy/src/util/ringbuffer.h ****             ;
 3497              		.loc 16 46 24 view .LVU1096
 3498              	.LBB469:
 3499              	.LBI469:
  30:../../libDaisy/src/util/ringbuffer.h ****     {
 3500              		.loc 16 30 19 view .LVU1097
 3501              	.LBB470:
  32:../../libDaisy/src/util/ringbuffer.h ****     }
 3502              		.loc 16 32 17 is_stmt 0 view .LVU1098
 3503 01f2 D4F89830 		ldr	r3, [r4, #152]
  32:../../libDaisy/src/util/ringbuffer.h ****     }
 3504              		.loc 16 32 29 view .LVU1099
 3505 01f6 D4F89C20 		ldr	r2, [r4, #156]
 3506              	.LVL181:
  32:../../libDaisy/src/util/ringbuffer.h ****     }
 3507              		.loc 16 32 40 view .LVU1100
 3508 01fa 013B     		subs	r3, r3, #1
 3509 01fc 9B1A     		subs	r3, r3, r2
  32:../../libDaisy/src/util/ringbuffer.h ****     }
 3510              		.loc 16 32 47 view .LVU1101
 3511 01fe DBB2     		uxtb	r3, r3
 3512              	.LBE470:
 3513              	.LBE469:
  46:../../libDaisy/src/util/ringbuffer.h ****             ;
 3514              		.loc 16 46 24 view .LVU1102
 3515 0200 002B     		cmp	r3, #0
 3516 0202 F6D0     		beq	.L214
 3517 0204 D4E7     		b	.L248
 3518              	.LVL182:
 3519              	.L203:
  46:../../libDaisy/src/util/ringbuffer.h ****             ;
 3520              		.loc 16 46 24 view .LVU1103
 3521              	.LBE471:
 3522              	.LBE472:
 238:../../libDaisy/src/hid/midi.h ****                     }
 3523              		.loc 8 238 29 view .LVU1104
ARM GAS  C:\Users\jcjco\AppData\Local\Temp\cc6lIF5P.s 			page 114


 3524 0206 0223     		movs	r3, #2
 3525 0208 2B71     		strb	r3, [r5, #4]
 3526 020a 1AE7     		b	.L191
 3527              	.LVL183:
 3528              	.L207:
 257:../../libDaisy/src/hid/midi.h ****                     }
 3529              		.loc 8 257 33 view .LVU1105
 3530 020c 0223     		movs	r3, #2
 3531 020e 2B71     		strb	r3, [r5, #4]
 3532 0210 68E7     		b	.L209
 3533              	.LVL184:
 3534              	.L249:
 185:../../libDaisy/src/hid/midi.h ****                             {
 3535              		.loc 8 185 29 view .LVU1106
 3536 0212 11F00800 		ands	r0, r1, #8
 183:../../libDaisy/src/hid/midi.h ****                             //system real time = 1111 1xxx
 3537              		.loc 8 183 55 view .LVU1107
 3538 0216 EA60     		str	r2, [r5, #12]
 185:../../libDaisy/src/hid/midi.h ****                             {
 3539              		.loc 8 185 29 view .LVU1108
 3540 0218 36D1     		bne	.L252
 202:../../libDaisy/src/hid/midi.h ****                                 //sysex
 3541              		.loc 8 202 69 view .LVU1109
 3542 021a 01F00703 		and	r3, r1, #7
 201:../../libDaisy/src/hid/midi.h ****                                                                     & 0x07);
 3543              		.loc 8 201 37 view .LVU1110
 3544 021e 85F89330 		strb	r3, [r5, #147]
 204:../../libDaisy/src/hid/midi.h ****                                 {
 3545              		.loc 8 204 33 view .LVU1111
 3546 0222 3BB9     		cbnz	r3, .L199
 206:../../libDaisy/src/hid/midi.h ****                                     incoming_message_.sysex_message_len = 0;
 3547              		.loc 8 206 45 view .LVU1112
 3548 0224 0322     		movs	r2, #3
 207:../../libDaisy/src/hid/midi.h ****                                 }
 3549              		.loc 8 207 73 view .LVU1113
 3550 0226 85F89230 		strb	r3, [r5, #146]
 206:../../libDaisy/src/hid/midi.h ****                                     incoming_message_.sysex_message_len = 0;
 3551              		.loc 8 206 45 view .LVU1114
 3552 022a 2A71     		strb	r2, [r5, #4]
 3553 022c 09E7     		b	.L191
 3554              	.LVL185:
 3555              	.L251:
 286:../../libDaisy/src/hid/midi.h ****                     }
 3556              		.loc 8 286 48 view .LVU1115
 3557 022e 0023     		movs	r3, #0
 3558 0230 2B72     		strb	r3, [r5, #8]
 3559 0232 70E7     		b	.L211
 3560              	.LVL186:
 3561              	.L199:
 210:../../libDaisy/src/hid/midi.h ****                                 {
 3562              		.loc 8 210 38 view .LVU1116
 3563 0234 4B07     		lsls	r3, r1, #29
 3564 0236 7FF504AF 		bpl	.L191
 3565 023a 6E46     		mov	r6, sp
 212:../../libDaisy/src/hid/midi.h ****                                     event_q_.Write(incoming_message_);
 3566              		.loc 8 212 45 view .LVU1117
 3567 023c 2871     		strb	r0, [r5, #4]
ARM GAS  C:\Users\jcjco\AppData\Local\Temp\cc6lIF5P.s 			page 115


 3568              	.LVL187:
 212:../../libDaisy/src/hid/midi.h ****                                     event_q_.Write(incoming_message_);
 3569              		.loc 8 212 45 view .LVU1118
 3570 023e 9022     		movs	r2, #144
 3571 0240 05F10801 		add	r1, r5, #8
 3572              	.LVL188:
 212:../../libDaisy/src/hid/midi.h ****                                     event_q_.Write(incoming_message_);
 3573              		.loc 8 212 45 view .LVU1119
 3574 0244 3046     		mov	r0, r6
 3575 0246 FFF7FEFF 		bl	memcpy
 3576              	.LVL189:
 3577              	.LBB473:
 3578              	.LBI473:
  44:../../libDaisy/src/util/ringbuffer.h ****     {
 3579              		.loc 16 44 17 is_stmt 1 view .LVU1120
 3580              	.L200:
 3581              	.LBB474:
  46:../../libDaisy/src/util/ringbuffer.h ****             ;
 3582              		.loc 16 46 24 view .LVU1121
 3583              	.LBB475:
 3584              	.LBI475:
  30:../../libDaisy/src/util/ringbuffer.h ****     {
 3585              		.loc 16 30 19 view .LVU1122
 3586              	.LBB476:
  32:../../libDaisy/src/util/ringbuffer.h ****     }
 3587              		.loc 16 32 17 is_stmt 0 view .LVU1123
 3588 024a D4F89830 		ldr	r3, [r4, #152]
  32:../../libDaisy/src/util/ringbuffer.h ****     }
 3589              		.loc 16 32 29 view .LVU1124
 3590 024e D4F89C20 		ldr	r2, [r4, #156]
 3591              	.LVL190:
  32:../../libDaisy/src/util/ringbuffer.h ****     }
 3592              		.loc 16 32 40 view .LVU1125
 3593 0252 013B     		subs	r3, r3, #1
 3594 0254 9B1A     		subs	r3, r3, r2
  32:../../libDaisy/src/util/ringbuffer.h ****     }
 3595              		.loc 16 32 47 view .LVU1126
 3596 0256 DBB2     		uxtb	r3, r3
 3597              	.LBE476:
 3598              	.LBE475:
  46:../../libDaisy/src/util/ringbuffer.h ****             ;
 3599              		.loc 16 46 24 view .LVU1127
 3600 0258 002B     		cmp	r3, #0
 3601 025a F6D0     		beq	.L200
 3602              	.LVL191:
 3603              	.L247:
  46:../../libDaisy/src/util/ringbuffer.h ****             ;
 3604              		.loc 16 46 24 view .LVU1128
 3605 025c 9022     		movs	r2, #144
 3606 025e 3146     		mov	r1, r6
 3607 0260 0DEB0200 		add	r0, sp, r2
 3608 0264 FFF7FEFF 		bl	memcpy
 3609              	.LVL192:
 3610              	.LBB477:
 3611              	.LBI477:
  54:../../libDaisy/src/util/ringbuffer.h ****     {
 3612              		.loc 16 54 17 is_stmt 1 view .LVU1129
ARM GAS  C:\Users\jcjco\AppData\Local\Temp\cc6lIF5P.s 			page 116


 3613              	.LBB478:
  56:../../libDaisy/src/util/ringbuffer.h ****         buffer_[w] = v;
 3614              		.loc 16 56 16 is_stmt 0 view .LVU1130
 3615 0268 D4F89C60 		ldr	r6, [r4, #156]
 3616              	.LVL193:
  57:../../libDaisy/src/util/ringbuffer.h ****         write_ptr_ = (w + 1) % size;
 3617              		.loc 16 57 9 view .LVU1131
 3618 026c 24A9     		add	r1, sp, #144
 3619 026e 9022     		movs	r2, #144
 3620 0270 06EBC600 		add	r0, r6, r6, lsl #3
 3621 0274 05EB0010 		add	r0, r5, r0, lsl #4
 3622 0278 9830     		adds	r0, r0, #152
 3623 027a FFF7FEFF 		bl	memcpy
 3624              	.LVL194:
 3625              		.loc 16 58 25 view .LVU1132
 3626 027e 731C     		adds	r3, r6, #1
 3627              		.loc 16 58 30 view .LVU1133
 3628 0280 DBB2     		uxtb	r3, r3
 3629              		.loc 16 58 20 view .LVU1134
 3630 0282 C4F89C30 		str	r3, [r4, #156]
 3631              	.LVL195:
 3632              		.loc 16 58 20 view .LVU1135
 3633              	.LBE478:
 3634              	.LBE477:
 3635              	.LBE474:
 3636              	.LBE473:
 3637 0286 DCE6     		b	.L191
 3638              	.LVL196:
 3639              	.L252:
 187:../../libDaisy/src/hid/midi.h ****                                 running_status_        = SystemRealTime;
 3640              		.loc 8 187 56 view .LVU1136
 3641 0288 0823     		movs	r3, #8
 3642 028a 6E46     		mov	r6, sp
 3643 028c 2B72     		strb	r3, [r5, #8]
 3644 028e 3046     		mov	r0, r6
 188:../../libDaisy/src/hid/midi.h ****                                 incoming_message_.srt_type
 3645              		.loc 8 188 56 view .LVU1137
 3646 0290 84F8A430 		strb	r3, [r4, #164]
 191:../../libDaisy/src/hid/midi.h **** 
 3647              		.loc 8 191 46 view .LVU1138
 3648 0294 94F8B230 		ldrb	r3, [r4, #178]	@ zero_extendqisi2
 194:../../libDaisy/src/hid/midi.h ****                                 event_q_.Write(incoming_message_);
 3649              		.loc 8 194 41 view .LVU1139
 3650 0298 2A71     		strb	r2, [r5, #4]
 3651              	.LVL197:
 194:../../libDaisy/src/hid/midi.h ****                                 event_q_.Write(incoming_message_);
 3652              		.loc 8 194 41 view .LVU1140
 3653 029a 9022     		movs	r2, #144
 191:../../libDaisy/src/hid/midi.h **** 
 3654              		.loc 8 191 46 view .LVU1141
 3655 029c 1940     		ands	r1, r1, r3
 3656              	.LVL198:
 190:../../libDaisy/src/hid/midi.h ****                                         byte & kSystemRealTimeMask);
 3657              		.loc 8 190 37 view .LVU1142
 3658 029e 85F89410 		strb	r1, [r5, #148]
 3659 02a2 05F10801 		add	r1, r5, #8
 3660 02a6 FFF7FEFF 		bl	memcpy
ARM GAS  C:\Users\jcjco\AppData\Local\Temp\cc6lIF5P.s 			page 117


 3661              	.LVL199:
 3662              	.LBB479:
 3663              	.LBI479:
  44:../../libDaisy/src/util/ringbuffer.h ****     {
 3664              		.loc 16 44 17 is_stmt 1 view .LVU1143
 3665              	.L198:
 3666              	.LBB480:
  46:../../libDaisy/src/util/ringbuffer.h ****             ;
 3667              		.loc 16 46 24 view .LVU1144
 3668              	.LBB481:
 3669              	.LBI481:
  30:../../libDaisy/src/util/ringbuffer.h ****     {
 3670              		.loc 16 30 19 view .LVU1145
 3671              	.LBB482:
  32:../../libDaisy/src/util/ringbuffer.h ****     }
 3672              		.loc 16 32 17 is_stmt 0 view .LVU1146
 3673 02aa D4F89830 		ldr	r3, [r4, #152]
  32:../../libDaisy/src/util/ringbuffer.h ****     }
 3674              		.loc 16 32 29 view .LVU1147
 3675 02ae D4F89C20 		ldr	r2, [r4, #156]
 3676              	.LVL200:
  32:../../libDaisy/src/util/ringbuffer.h ****     }
 3677              		.loc 16 32 40 view .LVU1148
 3678 02b2 013B     		subs	r3, r3, #1
 3679 02b4 9B1A     		subs	r3, r3, r2
  32:../../libDaisy/src/util/ringbuffer.h ****     }
 3680              		.loc 16 32 47 view .LVU1149
 3681 02b6 DBB2     		uxtb	r3, r3
 3682              	.LBE482:
 3683              	.LBE481:
  46:../../libDaisy/src/util/ringbuffer.h ****             ;
 3684              		.loc 16 46 24 view .LVU1150
 3685 02b8 002B     		cmp	r3, #0
 3686 02ba F6D0     		beq	.L198
 3687 02bc CEE7     		b	.L247
 3688              	.LBE480:
 3689              	.LBE479:
 3690              		.cfi_endproc
 3691              	.LFE5240:
 3693 02be 00BF     		.section	.text.startup.main,"ax",%progbits
 3694              		.align	1
 3695              		.p2align 2,,3
 3696              		.global	main
 3697              		.syntax unified
 3698              		.thumb
 3699              		.thumb_func
 3700              		.fpu fpv5-d16
 3702              	main:
 3703              	.LFB4802:
 649:main.cpp      **** 
 650:main.cpp      **** int main(void)
 651:main.cpp      **** {
 3704              		.loc 11 651 1 is_stmt 1 view -0
 3705              		.cfi_startproc
 3706              		@ args = 0, pretend = 0, frame = 160
 3707              		@ frame_needed = 0, uses_anonymous_args = 0
 652:main.cpp      **** 	// init hardware
ARM GAS  C:\Users\jcjco\AppData\Local\Temp\cc6lIF5P.s 			page 118


 653:main.cpp      **** 	hardware.Init(true); // true = boost to 480MHz
 3708              		.loc 11 653 2 view .LVU1152
 651:main.cpp      **** 	// init hardware
 3709              		.loc 11 651 1 is_stmt 0 view .LVU1153
 3710 0000 2DE9F043 		push	{r4, r5, r6, r7, r8, r9, lr}
 3711              		.cfi_def_cfa_offset 28
 3712              		.cfi_offset 4, -28
 3713              		.cfi_offset 5, -24
 3714              		.cfi_offset 6, -20
 3715              		.cfi_offset 7, -16
 3716              		.cfi_offset 8, -12
 3717              		.cfi_offset 9, -8
 3718              		.cfi_offset 14, -4
 3719              		.loc 11 653 15 view .LVU1154
 3720 0004 0121     		movs	r1, #1
 651:main.cpp      **** 	// init hardware
 3721              		.loc 11 651 1 view .LVU1155
 3722 0006 C9B0     		sub	sp, sp, #292
 3723              		.cfi_def_cfa_offset 320
 3724              		.loc 11 653 15 view .LVU1156
 3725 0008 6248     		ldr	r0, .L268
 654:main.cpp      **** 	hardware.SetAudioBlockSize(6);
 655:main.cpp      **** 
 656:main.cpp      **** 	sysSampleRate = hardware.AudioSampleRate();
 657:main.cpp      **** 	sysCallbackRate = hardware.AudioCallbackRate();
 658:main.cpp      **** 
 659:main.cpp      **** 	// init qspi flash for saving and loading patches
 660:main.cpp      **** 	QSPIHandle::Config qspi_config;
 661:main.cpp      **** 	qspi_config.device = QSPIHandle::Config::Device::IS25LP064A;
 662:main.cpp      **** 	qspi_config.mode   = QSPIHandle::Config::Mode::MEMORY_MAPPED;
 3726              		.loc 11 662 21 view .LVU1157
 3727 000a 0025     		movs	r5, #0
 653:main.cpp      **** 	hardware.SetAudioBlockSize(6);
 3728              		.loc 11 653 15 view .LVU1158
 3729 000c FFF7FEFF 		bl	_ZN5daisy9DaisySeed4InitEb
 3730              	.LVL201:
 654:main.cpp      **** 	hardware.SetAudioBlockSize(6);
 3731              		.loc 11 654 2 is_stmt 1 view .LVU1159
 654:main.cpp      **** 	hardware.SetAudioBlockSize(6);
 3732              		.loc 11 654 28 is_stmt 0 view .LVU1160
 3733 0010 0621     		movs	r1, #6
 3734 0012 6048     		ldr	r0, .L268
 663:main.cpp      **** 	qspi_config.pin_config.io0 = {DSY_GPIOF, 8};
 664:main.cpp      **** 	qspi_config.pin_config.io1 = {DSY_GPIOF, 9};
 665:main.cpp      **** 	qspi_config.pin_config.io2 = {DSY_GPIOF, 7};
 666:main.cpp      **** 	qspi_config.pin_config.io3 = {DSY_GPIOF, 6};
 667:main.cpp      **** 	qspi_config.pin_config.clk = {DSY_GPIOF, 10};
 3735              		.loc 11 667 29 view .LVU1161
 3736 0014 4FF00A09 		mov	r9, #10
 654:main.cpp      **** 
 3737              		.loc 11 654 28 view .LVU1162
 3738 0018 FFF7FEFF 		bl	_ZN5daisy9DaisySeed17SetAudioBlockSizeEj
 3739              	.LVL202:
 656:main.cpp      **** 	sysCallbackRate = hardware.AudioCallbackRate();
 3740              		.loc 11 656 2 is_stmt 1 view .LVU1163
 656:main.cpp      **** 	sysCallbackRate = hardware.AudioCallbackRate();
 3741              		.loc 11 656 16 is_stmt 0 view .LVU1164
ARM GAS  C:\Users\jcjco\AppData\Local\Temp\cc6lIF5P.s 			page 119


 3742 001c DFF89881 		ldr	r8, .L268+36
 656:main.cpp      **** 	sysCallbackRate = hardware.AudioCallbackRate();
 3743              		.loc 11 656 42 view .LVU1165
 3744 0020 5C48     		ldr	r0, .L268
 3745 0022 FFF7FEFF 		bl	_ZN5daisy9DaisySeed15AudioSampleRateEv
 3746              	.LVL203:
 657:main.cpp      **** 
 3747              		.loc 11 657 46 view .LVU1166
 3748 0026 5B48     		ldr	r0, .L268
 656:main.cpp      **** 	sysCallbackRate = hardware.AudioCallbackRate();
 3749              		.loc 11 656 16 view .LVU1167
 3750 0028 88ED000A 		vstr.32	s0, [r8]
 657:main.cpp      **** 
 3751              		.loc 11 657 2 is_stmt 1 view .LVU1168
 657:main.cpp      **** 
 3752              		.loc 11 657 46 is_stmt 0 view .LVU1169
 3753 002c FFF7FEFF 		bl	_ZNK5daisy9DaisySeed17AudioCallbackRateEv
 3754              	.LVL204:
 663:main.cpp      **** 	qspi_config.pin_config.io1 = {DSY_GPIOF, 9};
 3755              		.loc 11 663 29 view .LVU1170
 3756 0030 0523     		movs	r3, #5
 657:main.cpp      **** 
 3757              		.loc 11 657 18 view .LVU1171
 3758 0032 594A     		ldr	r2, .L268+4
 661:main.cpp      **** 	qspi_config.mode   = QSPIHandle::Config::Mode::MEMORY_MAPPED;
 3759              		.loc 11 661 21 view .LVU1172
 3760 0034 0121     		movs	r1, #1
 3761              	.LBB508:
 3762              	.LBB509:
  97:../../libDaisy/src/hid/midi.h **** 
 3763              		.loc 8 97 9 view .LVU1173
 3764 0036 594F     		ldr	r7, .L268+8
 3765              	.LBE509:
 3766              	.LBE508:
 663:main.cpp      **** 	qspi_config.pin_config.io1 = {DSY_GPIOF, 9};
 3767              		.loc 11 663 29 view .LVU1174
 3768 0038 8DF88030 		strb	r3, [sp, #128]
 664:main.cpp      **** 	qspi_config.pin_config.io2 = {DSY_GPIOF, 7};
 3769              		.loc 11 664 29 view .LVU1175
 3770 003c 8DF88230 		strb	r3, [sp, #130]
 3771              	.LBB517:
 3772              	.LBB513:
  97:../../libDaisy/src/hid/midi.h **** 
 3773              		.loc 8 97 9 view .LVU1176
 3774 0040 07F51044 		add	r4, r7, #36864
 3775              	.LBE513:
 3776              	.LBE517:
 665:main.cpp      **** 	qspi_config.pin_config.io3 = {DSY_GPIOF, 6};
 3777              		.loc 11 665 29 view .LVU1177
 3778 0044 8DF88430 		strb	r3, [sp, #132]
 666:main.cpp      **** 	qspi_config.pin_config.clk = {DSY_GPIOF, 10};
 3779              		.loc 11 666 29 view .LVU1178
 3780 0048 8DF88630 		strb	r3, [sp, #134]
 3781              		.loc 11 667 29 view .LVU1179
 3782 004c 8DF88830 		strb	r3, [sp, #136]
 663:main.cpp      **** 	qspi_config.pin_config.io1 = {DSY_GPIOF, 9};
 3783              		.loc 11 663 29 view .LVU1180
ARM GAS  C:\Users\jcjco\AppData\Local\Temp\cc6lIF5P.s 			page 120


 3784 0050 0823     		movs	r3, #8
 657:main.cpp      **** 
 3785              		.loc 11 657 18 view .LVU1181
 3786 0052 82ED000A 		vstr.32	s0, [r2]
 660:main.cpp      **** 	qspi_config.device = QSPIHandle::Config::Device::IS25LP064A;
 3787              		.loc 11 660 2 is_stmt 1 view .LVU1182
 661:main.cpp      **** 	qspi_config.mode   = QSPIHandle::Config::Mode::MEMORY_MAPPED;
 3788              		.loc 11 661 2 view .LVU1183
 666:main.cpp      **** 	qspi_config.pin_config.clk = {DSY_GPIOF, 10};
 3789              		.loc 11 666 29 is_stmt 0 view .LVU1184
 3790 0056 0622     		movs	r2, #6
 663:main.cpp      **** 	qspi_config.pin_config.io1 = {DSY_GPIOF, 9};
 3791              		.loc 11 663 29 view .LVU1185
 3792 0058 8DF88130 		strb	r3, [sp, #129]
 664:main.cpp      **** 	qspi_config.pin_config.io2 = {DSY_GPIOF, 7};
 3793              		.loc 11 664 29 view .LVU1186
 3794 005c 0923     		movs	r3, #9
 661:main.cpp      **** 	qspi_config.mode   = QSPIHandle::Config::Mode::MEMORY_MAPPED;
 3795              		.loc 11 661 21 view .LVU1187
 3796 005e 8DF88C10 		strb	r1, [sp, #140]
 662:main.cpp      **** 	qspi_config.pin_config.io0 = {DSY_GPIOF, 8};
 3797              		.loc 11 662 2 is_stmt 1 view .LVU1188
 663:main.cpp      **** 	qspi_config.pin_config.io1 = {DSY_GPIOF, 9};
 3798              		.loc 11 663 2 view .LVU1189
 664:main.cpp      **** 	qspi_config.pin_config.io2 = {DSY_GPIOF, 7};
 3799              		.loc 11 664 2 view .LVU1190
 668:main.cpp      **** 	qspi_config.pin_config.ncs = {DSY_GPIOG, 6};
 669:main.cpp      **** 	hardware.qspi.Init(qspi_config);
 3800              		.loc 11 669 20 is_stmt 0 view .LVU1191
 3801 0062 20A9     		add	r1, sp, #128
 664:main.cpp      **** 	qspi_config.pin_config.io2 = {DSY_GPIOF, 7};
 3802              		.loc 11 664 29 view .LVU1192
 3803 0064 8DF88330 		strb	r3, [sp, #131]
 665:main.cpp      **** 	qspi_config.pin_config.io3 = {DSY_GPIOF, 6};
 3804              		.loc 11 665 2 is_stmt 1 view .LVU1193
 665:main.cpp      **** 	qspi_config.pin_config.io3 = {DSY_GPIOF, 6};
 3805              		.loc 11 665 29 is_stmt 0 view .LVU1194
 3806 0068 0723     		movs	r3, #7
 3807              		.loc 11 669 20 view .LVU1195
 3808 006a 4A48     		ldr	r0, .L268
 665:main.cpp      **** 	qspi_config.pin_config.io3 = {DSY_GPIOF, 6};
 3809              		.loc 11 665 29 view .LVU1196
 3810 006c 8DF88530 		strb	r3, [sp, #133]
 666:main.cpp      **** 	qspi_config.pin_config.clk = {DSY_GPIOF, 10};
 3811              		.loc 11 666 2 is_stmt 1 view .LVU1197
 667:main.cpp      **** 	qspi_config.pin_config.ncs = {DSY_GPIOG, 6};
 3812              		.loc 11 667 2 view .LVU1198
 668:main.cpp      **** 	hardware.qspi.Init(qspi_config);
 3813              		.loc 11 668 2 view .LVU1199
 3814              		.loc 11 669 2 view .LVU1200
 666:main.cpp      **** 	qspi_config.pin_config.clk = {DSY_GPIOF, 10};
 3815              		.loc 11 666 29 is_stmt 0 view .LVU1201
 3816 0070 8DF88720 		strb	r2, [sp, #135]
 668:main.cpp      **** 	hardware.qspi.Init(qspi_config);
 3817              		.loc 11 668 29 view .LVU1202
 3818 0074 8DF88A20 		strb	r2, [sp, #138]
 3819 0078 8DF88B20 		strb	r2, [sp, #139]
ARM GAS  C:\Users\jcjco\AppData\Local\Temp\cc6lIF5P.s 			page 121


 662:main.cpp      **** 	qspi_config.pin_config.io0 = {DSY_GPIOF, 8};
 3820              		.loc 11 662 21 view .LVU1203
 3821 007c 8DF88D50 		strb	r5, [sp, #141]
 667:main.cpp      **** 	qspi_config.pin_config.ncs = {DSY_GPIOG, 6};
 3822              		.loc 11 667 29 view .LVU1204
 3823 0080 8DF88990 		strb	r9, [sp, #137]
 3824              		.loc 11 669 20 view .LVU1205
 3825 0084 FFF7FEFF 		bl	_ZN5daisy10QSPIHandle4InitERKNS0_6ConfigE
 3826              	.LVL205:
 670:main.cpp      **** 
 671:main.cpp      **** 	// setup vasynth initial values
 672:main.cpp      **** 	vasynth.Init();
 3827              		.loc 11 672 2 is_stmt 1 view .LVU1206
 3828              		.loc 11 672 14 is_stmt 0 view .LVU1207
 3829 0088 4548     		ldr	r0, .L268+12
 3830 008a FFF7FEFF 		bl	_ZN7VASynth4InitEv
 3831              	.LVL206:
 673:main.cpp      **** 
 674:main.cpp      **** 	// load the default patch
 675:main.cpp      **** 	vasynth.First();
 3832              		.loc 11 675 2 is_stmt 1 view .LVU1208
 3833              		.loc 11 675 15 is_stmt 0 view .LVU1209
 3834 008e 4448     		ldr	r0, .L268+12
 3835 0090 FFF7FEFF 		bl	_ZN7VASynth5FirstEv
 3836              	.LVL207:
 676:main.cpp      **** 
 677:main.cpp      **** 	// Initialize USB Midi 
 678:main.cpp      ****     MidiUsbHandler::Config midi_cfg;
 3837              		.loc 11 678 5 is_stmt 1 view .LVU1210
 679:main.cpp      ****     midi_cfg.transport_config.periph = MidiUsbTransport::Config::INTERNAL;
 3838              		.loc 11 679 5 view .LVU1211
 680:main.cpp      **** 	midi.Init(midi_cfg);
 3839              		.loc 11 680 2 view .LVU1212
 3840              	.LBB518:
 3841              	.LBI508:
  95:../../libDaisy/src/hid/midi.h ****     {
 3842              		.loc 8 95 10 view .LVU1213
 3843              	.LBE518:
 3844              	.LBB519:
 3845              	.LBB520:
 3846              	.LBB521:
 3847              	.LBB522:
  25:../../DaisySP/Source/Utility/delayline.h ****     /** initializes the delay line by clearing the values within, and setting delay to 1 sample.
  26:../../DaisySP/Source/Utility/delayline.h ****     */
  27:../../DaisySP/Source/Utility/delayline.h ****     void Init() { Reset(); }
  28:../../DaisySP/Source/Utility/delayline.h ****     /** clears buffer, sets write ptr to 0, and delay to 1 sample.
  29:../../DaisySP/Source/Utility/delayline.h ****     */
  30:../../DaisySP/Source/Utility/delayline.h ****     void Reset()
  31:../../DaisySP/Source/Utility/delayline.h ****     {
  32:../../DaisySP/Source/Utility/delayline.h ****         for(size_t i = 0; i < max_size; i++)
  33:../../DaisySP/Source/Utility/delayline.h ****         {
  34:../../DaisySP/Source/Utility/delayline.h ****             line_[i] = T(0);
 3848              		.loc 10 34 22 is_stmt 0 view .LVU1214
 3849 0094 434E     		ldr	r6, .L268+16
 3850              	.LBE522:
 3851              	.LBE521:
 3852              	.LBE520:
ARM GAS  C:\Users\jcjco\AppData\Local\Temp\cc6lIF5P.s 			page 122


 3853              	.LBE519:
 3854              	.LBB528:
 3855              	.LBB514:
  99:../../libDaisy/src/hid/midi.h **** 
 3856              		.loc 8 99 24 view .LVU1215
 3857 0096 2946     		mov	r1, r5
 3858 0098 04F1A800 		add	r0, r4, #168
  97:../../libDaisy/src/hid/midi.h **** 
 3859              		.loc 8 97 9 view .LVU1216
 3860 009c 84F8A550 		strb	r5, [r4, #165]
  99:../../libDaisy/src/hid/midi.h **** 
 3861              		.loc 8 99 24 view .LVU1217
 3862 00a0 FFF7FEFF 		bl	_ZN5daisy16MidiUsbTransport4InitENS0_6ConfigE
 3863              	.LVL208:
 3864              	.LBB510:
 3865              	.LBI510:
  24:../../libDaisy/src/util/ringbuffer.h **** 
 3866              		.loc 16 24 17 is_stmt 1 view .LVU1218
 3867              	.LBE510:
 3868              	.LBE514:
 3869              	.LBE528:
 681:main.cpp      **** 
 682:main.cpp      **** 	// let everything settle
 683:main.cpp      **** 	System::Delay(100);
 3870              		.loc 11 683 15 is_stmt 0 view .LVU1219
 3871 00a4 6420     		movs	r0, #100
 3872              	.LBB529:
 3873              	.LBB515:
 3874              	.LBB512:
 3875              	.LBB511:
  24:../../libDaisy/src/util/ringbuffer.h **** 
 3876              		.loc 16 24 49 view .LVU1220
 3877 00a6 C4F89C50 		str	r5, [r4, #156]
  24:../../libDaisy/src/util/ringbuffer.h **** 
 3878              		.loc 16 24 36 view .LVU1221
 3879 00aa C4F89850 		str	r5, [r4, #152]
 3880              	.LVL209:
  24:../../libDaisy/src/util/ringbuffer.h **** 
 3881              		.loc 16 24 36 view .LVU1222
 3882              	.LBE511:
 3883              	.LBE512:
 3884              	.LBE515:
 3885              	.LBE529:
 3886              		.loc 11 683 2 is_stmt 1 view .LVU1223
 3887              	.LBB530:
 3888              	.LBB516:
 102:../../libDaisy/src/hid/midi.h ****         pstate_                = ParserEmpty;
 3889              		.loc 8 102 32 is_stmt 0 view .LVU1224
 3890 00ae 87F80890 		strb	r9, [r7, #8]
 103:../../libDaisy/src/hid/midi.h ****     }
 3891              		.loc 8 103 32 view .LVU1225
 3892 00b2 3D71     		strb	r5, [r7, #4]
 3893              	.LBE516:
 3894              	.LBE530:
 3895              		.loc 11 683 15 view .LVU1226
 3896 00b4 FFF7FEFF 		bl	_ZN5daisy6System5DelayEm
 3897              	.LVL210:
ARM GAS  C:\Users\jcjco\AppData\Local\Temp\cc6lIF5P.s 			page 123


 684:main.cpp      **** 	
 685:main.cpp      **** 	// Stereo simulator
 686:main.cpp      **** 	delay_.Init();
 3898              		.loc 11 686 2 is_stmt 1 view .LVU1227
 3899              	.LBB531:
 3900              	.LBI519:
  27:../../DaisySP/Source/Utility/delayline.h ****     /** clears buffer, sets write ptr to 0, and delay to 1 sample.
 3901              		.loc 10 27 10 view .LVU1228
 3902              	.LBB526:
 3903              	.LBB524:
 3904              	.LBB523:
  32:../../DaisySP/Source/Utility/delayline.h ****         {
 3905              		.loc 10 32 29 view .LVU1229
 3906              		.loc 10 34 22 is_stmt 0 view .LVU1230
 3907 00b8 2946     		mov	r1, r5
 3908 00ba 3B4A     		ldr	r2, .L268+20
 3909 00bc 3046     		mov	r0, r6
 3910 00be FFF7FEFF 		bl	memset
 3911              	.LVL211:
 3912              		.loc 10 34 22 view .LVU1231
 3913              	.LBE523:
 3914              	.LBE524:
 3915              	.LBE526:
 3916              	.LBE531:
 687:main.cpp      **** 	delay_.SetDelay(sysSampleRate * 0.01f);
 3917              		.loc 11 687 17 view .LVU1232
 3918 00c2 D8ED007A 		vldr.32	s15, [r8]
 3919 00c6 9FED397A 		vldr.32	s14, .L268+24
 3920              	.LBB532:
 3921              	.LBB533:
  35:../../DaisySP/Source/Utility/delayline.h ****         }
  36:../../DaisySP/Source/Utility/delayline.h ****         write_ptr_ = 0;
  37:../../DaisySP/Source/Utility/delayline.h ****         delay_     = 1;
  38:../../DaisySP/Source/Utility/delayline.h ****     }
  39:../../DaisySP/Source/Utility/delayline.h **** 
  40:../../DaisySP/Source/Utility/delayline.h ****     /** sets the delay time in samples
  41:../../DaisySP/Source/Utility/delayline.h ****         If a float is passed in, a fractional component will be calculated for interpolating the de
  42:../../DaisySP/Source/Utility/delayline.h ****     */
  43:../../DaisySP/Source/Utility/delayline.h ****     inline void SetDelay(size_t delay)
  44:../../DaisySP/Source/Utility/delayline.h ****     {
  45:../../DaisySP/Source/Utility/delayline.h ****         frac_  = 0.0f;
  46:../../DaisySP/Source/Utility/delayline.h ****         delay_ = delay < max_size ? delay : max_size - 1;
  47:../../DaisySP/Source/Utility/delayline.h ****     }
  48:../../DaisySP/Source/Utility/delayline.h **** 
  49:../../DaisySP/Source/Utility/delayline.h ****     /** sets the delay time in samples
  50:../../DaisySP/Source/Utility/delayline.h ****         If a float is passed in, a fractional component will be calculated for interpolating the de
  51:../../DaisySP/Source/Utility/delayline.h ****     */
  52:../../DaisySP/Source/Utility/delayline.h ****     inline void SetDelay(float delay)
  53:../../DaisySP/Source/Utility/delayline.h ****     {
  54:../../DaisySP/Source/Utility/delayline.h ****         int32_t int_delay = static_cast<int32_t>(delay);
  55:../../DaisySP/Source/Utility/delayline.h ****         frac_             = delay - static_cast<float>(int_delay);
  56:../../DaisySP/Source/Utility/delayline.h ****         delay_ = static_cast<size_t>(int_delay) < max_size ? int_delay
 3922              		.loc 10 56 60 view .LVU1233
 3923 00ca 4BF67F33 		movw	r3, #47999
 3924              	.LBE533:
 3925              	.LBE532:
 3926              	.LBB535:
ARM GAS  C:\Users\jcjco\AppData\Local\Temp\cc6lIF5P.s 			page 124


 3927              	.LBB527:
 3928              	.LBB525:
  36:../../DaisySP/Source/Utility/delayline.h ****         delay_     = 1;
 3929              		.loc 10 36 20 view .LVU1234
 3930 00ce 46F8085C 		str	r5, [r6, #-8]
 3931              	.LVL212:
  36:../../DaisySP/Source/Utility/delayline.h ****         delay_     = 1;
 3932              		.loc 10 36 20 view .LVU1235
 3933              	.LBE525:
 3934              	.LBE527:
 3935              	.LBE535:
 3936              		.loc 11 687 2 is_stmt 1 view .LVU1236
 3937              		.loc 11 687 17 is_stmt 0 view .LVU1237
 3938 00d2 67EE877A 		vmul.f32	s15, s15, s14
 3939              	.LVL213:
 3940              	.LBB536:
 3941              	.LBI532:
  52:../../DaisySP/Source/Utility/delayline.h ****     {
 3942              		.loc 10 52 17 is_stmt 1 view .LVU1238
 3943              	.LBB534:
  54:../../DaisySP/Source/Utility/delayline.h ****         frac_             = delay - static_cast<float>(int_delay);
 3944              		.loc 10 54 17 is_stmt 0 view .LVU1239
 3945 00d6 BDEEE77A 		vcvt.s32.f32	s14, s15
 3946              	.LVL214:
 3947              		.loc 10 56 60 view .LVU1240
 3948 00da 17EE102A 		vmov	r2, s14	@ int
  55:../../DaisySP/Source/Utility/delayline.h ****         delay_ = static_cast<size_t>(int_delay) < max_size ? int_delay
 3949              		.loc 10 55 37 view .LVU1241
 3950 00de F8EEC76A 		vcvt.f32.s32	s13, s14
 3951              		.loc 10 56 60 view .LVU1242
 3952 00e2 9A42     		cmp	r2, r3
  55:../../DaisySP/Source/Utility/delayline.h ****         delay_ = static_cast<size_t>(int_delay) < max_size ? int_delay
 3953              		.loc 10 55 35 view .LVU1243
 3954 00e4 77EEE67A 		vsub.f32	s15, s15, s13
 3955              	.LVL215:
 3956              		.loc 10 56 60 view .LVU1244
 3957 00e8 28BF     		it	cs
 3958 00ea 1A46     		movcs	r2, r3
  55:../../DaisySP/Source/Utility/delayline.h ****         delay_ = static_cast<size_t>(int_delay) < max_size ? int_delay
 3959              		.loc 10 55 27 view .LVU1245
 3960 00ec 46ED037A 		vstr.32	s15, [r6, #-12]
 3961              		.loc 10 56 16 view .LVU1246
 3962 00f0 46F8042C 		str	r2, [r6, #-4]
 3963              	.LVL216:
 3964              		.loc 10 56 16 view .LVU1247
 3965              	.LBE534:
 3966              	.LBE536:
 688:main.cpp      **** 
 689:main.cpp      **** 	// Start the sequencer clock
 690:main.cpp      **** 	SeqTimer_Config();
 3967              		.loc 11 690 2 is_stmt 1 view .LVU1248
 3968 00f4 24AE     		add	r6, sp, #144
 3969              		.loc 11 690 17 is_stmt 0 view .LVU1249
 3970 00f6 FFF7FEFF 		bl	_Z15SeqTimer_Configv
 3971              	.LVL217:
 691:main.cpp      **** 
 692:main.cpp      **** 	// Start calling the audio callback
ARM GAS  C:\Users\jcjco\AppData\Local\Temp\cc6lIF5P.s 			page 125


 693:main.cpp      **** 	hardware.StartAudio(AudioCallback);
 3972              		.loc 11 693 2 is_stmt 1 view .LVU1250
 3973              		.loc 11 693 21 is_stmt 0 view .LVU1251
 3974 00fa 2D49     		ldr	r1, .L268+28
 3975 00fc 2548     		ldr	r0, .L268
 3976 00fe FFF7FEFF 		bl	_ZN5daisy9DaisySeed10StartAudioEPFvPKfPfjE
 3977              	.LVL218:
 3978              	.L258:
 694:main.cpp      **** 
 695:main.cpp      **** 	// Loop forever
 696:main.cpp      **** 	for(;;)
 3979              		.loc 11 696 2 is_stmt 1 view .LVU1252
 697:main.cpp      **** 	{
 698:main.cpp      ****         // handle MIDI Events
 699:main.cpp      ****         midi.Listen();
 3980              		.loc 11 699 9 view .LVU1253
 3981              	.LBB537:
 3982              	.LBI537:
 110:../../libDaisy/src/hid/midi.h ****     {
 3983              		.loc 8 110 10 view .LVU1254
 3984              	.LBB538:
 113:../../libDaisy/src/hid/midi.h ****         while(transport_.Readable())
 3985              		.loc 8 113 29 is_stmt 0 view .LVU1255
 3986 0102 FFF7FEFF 		bl	_ZN5daisy6System6GetNowEv
 3987              	.LVL219:
 3988 0106 0546     		mov	r5, r0
 3989              	.LVL220:
 113:../../libDaisy/src/hid/midi.h ****         while(transport_.Readable())
 3990              		.loc 8 113 29 view .LVU1256
 3991 0108 07E0     		b	.L255
 3992              	.LVL221:
 3993              	.L266:
 116:../../libDaisy/src/hid/midi.h ****             Parse(transport_.Rx());
 3994              		.loc 8 116 24 view .LVU1257
 3995 010a C4F8A050 		str	r5, [r4, #160]
 117:../../libDaisy/src/hid/midi.h ****         }
 3996              		.loc 8 117 18 view .LVU1258
 3997 010e FFF7FEFF 		bl	_ZN5daisy16MidiUsbTransport2RxEv
 3998              	.LVL222:
 3999 0112 0146     		mov	r1, r0
 4000 0114 2148     		ldr	r0, .L268+8
 4001 0116 FFF7FEFF 		bl	_ZN5daisy11MidiHandlerINS_16MidiUsbTransportEE5ParseEh
 4002              	.LVL223:
 4003              	.L255:
 114:../../libDaisy/src/hid/midi.h ****         {
 4004              		.loc 8 114 34 is_stmt 1 view .LVU1259
 4005 011a 2648     		ldr	r0, .L268+32
 4006 011c FFF7FEFF 		bl	_ZN5daisy16MidiUsbTransport8ReadableEv
 4007              	.LVL224:
 4008 0120 0346     		mov	r3, r0
 117:../../libDaisy/src/hid/midi.h ****         }
 4009              		.loc 8 117 18 is_stmt 0 view .LVU1260
 4010 0122 2448     		ldr	r0, .L268+32
 114:../../libDaisy/src/hid/midi.h ****         {
 4011              		.loc 8 114 34 view .LVU1261
 4012 0124 002B     		cmp	r3, #0
 4013 0126 F0D1     		bne	.L266
ARM GAS  C:\Users\jcjco\AppData\Local\Temp\cc6lIF5P.s 			page 126


 123:../../libDaisy/src/hid/midi.h ****         {
 4014              		.loc 8 123 32 view .LVU1262
 4015 0128 2248     		ldr	r0, .L268+32
 4016 012a FFF7FEFF 		bl	_ZN5daisy16MidiUsbTransport8RxActiveEv
 4017              	.LVL225:
 123:../../libDaisy/src/hid/midi.h ****         {
 4018              		.loc 8 123 9 view .LVU1263
 4019 012e 0346     		mov	r3, r0
 4020 0130 40B3     		cbz	r0, .L267
 4021              	.LVL226:
 4022              	.L256:
 123:../../libDaisy/src/hid/midi.h ****         {
 4023              		.loc 8 123 9 view .LVU1264
 4024              	.LBE538:
 4025              	.LBE537:
 700:main.cpp      ****         while(midi.HasEvents())
 4026              		.loc 11 700 9 is_stmt 1 view .LVU1265
 4027              		.loc 11 700 29 view .LVU1266
 4028              	.LBB542:
 4029              	.LBI542:
 134:../../libDaisy/src/hid/midi.h **** 
 4030              		.loc 8 134 10 view .LVU1267
 4031              	.LBB543:
 4032              	.LBI543:
  36:../../libDaisy/src/util/ringbuffer.h **** 
 4033              		.loc 16 36 19 view .LVU1268
 4034              	.LBB544:
  36:../../libDaisy/src/util/ringbuffer.h **** 
 4035              		.loc 16 36 46 is_stmt 0 view .LVU1269
 4036 0132 D4F89C30 		ldr	r3, [r4, #156]
  36:../../libDaisy/src/util/ringbuffer.h **** 
 4037              		.loc 16 36 59 view .LVU1270
 4038 0136 D4F89820 		ldr	r2, [r4, #152]
 4039              	.LVL227:
  36:../../libDaisy/src/util/ringbuffer.h **** 
 4040              		.loc 16 36 57 view .LVU1271
 4041 013a 9B1A     		subs	r3, r3, r2
  36:../../libDaisy/src/util/ringbuffer.h **** 
 4042              		.loc 16 36 72 view .LVU1272
 4043 013c DBB2     		uxtb	r3, r3
 4044              	.LBE544:
 4045              	.LBE543:
 4046              	.LBE542:
 4047              		.loc 11 700 29 view .LVU1273
 4048 013e 002B     		cmp	r3, #0
 4049 0140 DFD0     		beq	.L258
 4050              	.L259:
 4051              	.LBB546:
 4052              	.LBB547:
 4053              	.LBB548:
  59:../../libDaisy/src/util/ringbuffer.h ****     }
  60:../../libDaisy/src/util/ringbuffer.h **** 
  61:../../libDaisy/src/util/ringbuffer.h ****     /** Reads the first available element from the ring buffer
  62:../../libDaisy/src/util/ringbuffer.h ****     \return read value
  63:../../libDaisy/src/util/ringbuffer.h ****      */
  64:../../libDaisy/src/util/ringbuffer.h ****     inline T Read()
  65:../../libDaisy/src/util/ringbuffer.h ****     {
ARM GAS  C:\Users\jcjco\AppData\Local\Temp\cc6lIF5P.s 			page 127


  66:../../libDaisy/src/util/ringbuffer.h ****         while(!readable())
 4054              		.loc 16 66 24 is_stmt 1 view .LVU1274
 4055              	.LVL228:
 4056              	.LBB549:
 4057              	.LBI549:
  36:../../libDaisy/src/util/ringbuffer.h **** 
 4058              		.loc 16 36 19 view .LVU1275
 4059              	.LBB550:
  36:../../libDaisy/src/util/ringbuffer.h **** 
 4060              		.loc 16 36 46 is_stmt 0 view .LVU1276
 4061 0142 D4F89C30 		ldr	r3, [r4, #156]
  36:../../libDaisy/src/util/ringbuffer.h **** 
 4062              		.loc 16 36 59 view .LVU1277
 4063 0146 D4F89820 		ldr	r2, [r4, #152]
 4064              	.LVL229:
  36:../../libDaisy/src/util/ringbuffer.h **** 
 4065              		.loc 16 36 57 view .LVU1278
 4066 014a 9B1A     		subs	r3, r3, r2
  36:../../libDaisy/src/util/ringbuffer.h **** 
 4067              		.loc 16 36 72 view .LVU1279
 4068 014c DBB2     		uxtb	r3, r3
 4069              	.LBE550:
 4070              	.LBE549:
 4071              		.loc 16 66 24 view .LVU1280
 4072 014e 002B     		cmp	r3, #0
 4073 0150 F7D0     		beq	.L259
 4074              	.LVL230:
 4075              	.LBB551:
 4076              	.LBI551:
  67:../../libDaisy/src/util/ringbuffer.h ****             ;
  68:../../libDaisy/src/util/ringbuffer.h ****         return ImmediateRead();
  69:../../libDaisy/src/util/ringbuffer.h ****     }
  70:../../libDaisy/src/util/ringbuffer.h **** 
  71:../../libDaisy/src/util/ringbuffer.h ****     /** Reads next element from ring buffer immediately
  72:../../libDaisy/src/util/ringbuffer.h ****     \return read value
  73:../../libDaisy/src/util/ringbuffer.h ****      */
  74:../../libDaisy/src/util/ringbuffer.h ****     inline T ImmediateRead()
 4077              		.loc 16 74 14 is_stmt 1 view .LVU1281
 4078              	.LBB552:
  75:../../libDaisy/src/util/ringbuffer.h ****     {
  76:../../libDaisy/src/util/ringbuffer.h ****         size_t r      = read_ptr_;
 4079              		.loc 16 76 16 is_stmt 0 view .LVU1282
 4080 0152 D4F89850 		ldr	r5, [r4, #152]
 4081              	.LVL231:
  77:../../libDaisy/src/util/ringbuffer.h ****         T      result = buffer_[r];
 4082              		.loc 16 77 16 view .LVU1283
 4083 0156 9022     		movs	r2, #144
 4084              	.LVL232:
 4085              		.loc 16 77 16 view .LVU1284
 4086 0158 3046     		mov	r0, r6
 4087 015a 05EBC501 		add	r1, r5, r5, lsl #3
  78:../../libDaisy/src/util/ringbuffer.h ****         read_ptr_     = (r + 1) % size;
 4088              		.loc 16 78 28 view .LVU1285
 4089 015e 0135     		adds	r5, r5, #1
 4090              	.LVL233:
  77:../../libDaisy/src/util/ringbuffer.h ****         T      result = buffer_[r];
 4091              		.loc 16 77 16 view .LVU1286
ARM GAS  C:\Users\jcjco\AppData\Local\Temp\cc6lIF5P.s 			page 128


 4092 0160 07EB0111 		add	r1, r7, r1, lsl #4
 4093              		.loc 16 78 33 view .LVU1287
 4094 0164 EDB2     		uxtb	r5, r5
  77:../../libDaisy/src/util/ringbuffer.h ****         T      result = buffer_[r];
 4095              		.loc 16 77 16 view .LVU1288
 4096 0166 9831     		adds	r1, r1, #152
 4097 0168 FFF7FEFF 		bl	memcpy
 4098              	.LVL234:
  77:../../libDaisy/src/util/ringbuffer.h ****         T      result = buffer_[r];
 4099              		.loc 16 77 16 view .LVU1289
 4100              	.LBE552:
 4101              	.LBE551:
 4102              	.LBE548:
 4103              	.LBE547:
 4104              	.LBE546:
 701:main.cpp      ****         {
 702:main.cpp      ****             HandleMidiMessage(midi.PopEvent());
 4105              		.loc 11 702 30 view .LVU1290
 4106 016c 28A9     		add	r1, sp, #160
 4107 016e 8022     		movs	r2, #128
 4108 0170 6846     		mov	r0, sp
 4109              	.LBB557:
 4110              	.LBB556:
 4111              	.LBB555:
 4112              	.LBB554:
 4113              	.LBB553:
 4114              		.loc 16 78 23 view .LVU1291
 4115 0172 C4F89850 		str	r5, [r4, #152]
 4116              	.LVL235:
 4117              		.loc 16 78 23 view .LVU1292
 4118              	.LBE553:
 4119              	.LBE554:
 4120              	.LBE555:
 4121              	.LBE556:
 4122              	.LBE557:
 4123              		.loc 11 702 30 view .LVU1293
 4124 0176 FFF7FEFF 		bl	memcpy
 4125              	.LVL236:
 4126 017a 96E80F00 		ldm	r6, {r0, r1, r2, r3}
 4127 017e FFF7FEFF 		bl	_Z17HandleMidiMessageN5daisy9MidiEventE
 4128              	.LVL237:
 700:main.cpp      ****         {
 4129              		.loc 11 700 9 is_stmt 1 view .LVU1294
 700:main.cpp      ****         {
 4130              		.loc 11 700 29 view .LVU1295
 4131              	.LBB558:
 134:../../libDaisy/src/hid/midi.h **** 
 4132              		.loc 8 134 10 view .LVU1296
 4133              	.LBB545:
  36:../../libDaisy/src/util/ringbuffer.h **** 
 4134              		.loc 16 36 19 view .LVU1297
 4135 0182 D6E7     		b	.L256
 4136              	.LVL238:
 4137              	.L267:
  36:../../libDaisy/src/util/ringbuffer.h **** 
 4138              		.loc 16 36 19 is_stmt 0 view .LVU1298
 4139              	.LBE545:
ARM GAS  C:\Users\jcjco\AppData\Local\Temp\cc6lIF5P.s 			page 129


 4140              	.LBE558:
 4141              	.LBB559:
 4142              	.LBB541:
 126:../../libDaisy/src/hid/midi.h ****             StartReceive();
 4143              		.loc 8 126 31 view .LVU1299
 4144 0184 0B48     		ldr	r0, .L268+32
 125:../../libDaisy/src/hid/midi.h ****             transport_.FlushRx();
 4145              		.loc 8 125 21 view .LVU1300
 4146 0186 3B71     		strb	r3, [r7, #4]
 126:../../libDaisy/src/hid/midi.h ****             StartReceive();
 4147              		.loc 8 126 31 view .LVU1301
 4148 0188 FFF7FEFF 		bl	_ZN5daisy16MidiUsbTransport7FlushRxEv
 4149              	.LVL239:
 4150              	.LBB539:
 4151              	.LBI539:
 107:../../libDaisy/src/hid/midi.h **** 
 4152              		.loc 8 107 10 is_stmt 1 view .LVU1302
 4153              	.LBB540:
 107:../../libDaisy/src/hid/midi.h **** 
 4154              		.loc 8 107 45 is_stmt 0 view .LVU1303
 4155 018c 0948     		ldr	r0, .L268+32
 4156 018e FFF7FEFF 		bl	_ZN5daisy16MidiUsbTransport7StartRxEv
 4157              	.LVL240:
 107:../../libDaisy/src/hid/midi.h **** 
 4158              		.loc 8 107 49 view .LVU1304
 4159 0192 CEE7     		b	.L256
 4160              	.L269:
 4161              		.align	2
 4162              	.L268:
 4163 0194 00000000 		.word	.LANCHOR9
 4164 0198 00000000 		.word	.LANCHOR11
 4165 019c 00000000 		.word	midi
 4166 01a0 00000000 		.word	.LANCHOR1
 4167 01a4 0C000000 		.word	delay_+12
 4168 01a8 00EE0200 		.word	192000
 4169 01ac 0AD7233C 		.word	1008981770
 4170 01b0 00000000 		.word	_Z13AudioCallbackPKfPfj
 4171 01b4 A8900000 		.word	midi+37032
 4172 01b8 00000000 		.word	.LANCHOR10
 4173              	.LBE540:
 4174              	.LBE539:
 4175              	.LBE541:
 4176              	.LBE559:
 4177              		.cfi_endproc
 4178              	.LFE4802:
 4180              		.section	.text.startup._GLOBAL__sub_I_hardware,"ax",%progbits
 4181              		.align	1
 4182              		.p2align 2,,3
 4183              		.syntax unified
 4184              		.thumb
 4185              		.thumb_func
 4186              		.fpu fpv5-d16
 4188              	_GLOBAL__sub_I_hardware:
 4189              	.LFB5393:
 703:main.cpp      ****         }	
 704:main.cpp      **** 	}
 705:main.cpp      **** }
ARM GAS  C:\Users\jcjco\AppData\Local\Temp\cc6lIF5P.s 			page 130


 4190              		.loc 11 705 1 is_stmt 1 view -0
 4191              		.cfi_startproc
 4192              		@ args = 0, pretend = 0, frame = 0
 4193              		@ frame_needed = 0, uses_anonymous_args = 0
 4194              	.LBB591:
 4195              	.LBI591:
 4196              		.loc 11 705 1 view .LVU1306
 4197              	.LVL241:
 4198              	.LBB592:
 4199              	.LBB593:
 4200              	.LBI593:
  21:../../libDaisy/src/daisy_seed.h ****     ~DaisySeed() {}
 4201              		.loc 1 21 5 view .LVU1307
 4202              	.LBB594:
 4203              	.LBB595:
 4204              	.LBI595:
 4205              		.file 17 "../../libDaisy/src/per/qspi.h"
   1:../../libDaisy/src/per/qspi.h **** #ifndef DSY_QSPI
   2:../../libDaisy/src/per/qspi.h **** #define DSY_QSPI /**< Macro */
   3:../../libDaisy/src/per/qspi.h **** 
   4:../../libDaisy/src/per/qspi.h **** #ifndef UNIT_TEST // for unit tests, a dummy implementation
   5:../../libDaisy/src/per/qspi.h **** 
   6:../../libDaisy/src/per/qspi.h **** #include <cstdint>
   7:../../libDaisy/src/per/qspi.h **** #include "daisy_core.h" // Added for dsy_gpio_pin typedef
   8:../../libDaisy/src/per/qspi.h **** 
   9:../../libDaisy/src/per/qspi.h **** #define DSY_QSPI_TEXT       \
  10:../../libDaisy/src/per/qspi.h ****     __attribute__((section( \
  11:../../libDaisy/src/per/qspi.h ****         ".qspiflash_text"))) /**< used for reading memory in memory_mapped mode. */
  12:../../libDaisy/src/per/qspi.h **** #define DSY_QSPI_DATA       \
  13:../../libDaisy/src/per/qspi.h ****     __attribute__((section( \
  14:../../libDaisy/src/per/qspi.h ****         ".qspiflash_data"))) /**< used for reading memory in memory_mapped mode. */
  15:../../libDaisy/src/per/qspi.h **** #define DSY_QSPI_BSS        \
  16:../../libDaisy/src/per/qspi.h ****     __attribute__((section( \
  17:../../libDaisy/src/per/qspi.h ****         ".qspiflash_bss"))) /**< used for reading memory in memory_mapped mode. */
  18:../../libDaisy/src/per/qspi.h **** 
  19:../../libDaisy/src/per/qspi.h **** namespace daisy
  20:../../libDaisy/src/per/qspi.h **** {
  21:../../libDaisy/src/per/qspi.h **** /** @addtogroup serial
  22:../../libDaisy/src/per/qspi.h **** @{
  23:../../libDaisy/src/per/qspi.h **** */
  24:../../libDaisy/src/per/qspi.h **** 
  25:../../libDaisy/src/per/qspi.h **** /** 
  26:../../libDaisy/src/per/qspi.h ****  Driver for QSPI peripheral to interface with external flash memory. \n 
  27:../../libDaisy/src/per/qspi.h ****     Currently supported QSPI Devices: \n 
  28:../../libDaisy/src/per/qspi.h ****     * IS25LP080D
  29:../../libDaisy/src/per/qspi.h **** */
  30:../../libDaisy/src/per/qspi.h **** class QSPIHandle
  31:../../libDaisy/src/per/qspi.h **** {
  32:../../libDaisy/src/per/qspi.h ****   public:
  33:../../libDaisy/src/per/qspi.h ****     enum Result
  34:../../libDaisy/src/per/qspi.h ****     {
  35:../../libDaisy/src/per/qspi.h ****         OK = 0,
  36:../../libDaisy/src/per/qspi.h ****         ERR
  37:../../libDaisy/src/per/qspi.h ****     };
  38:../../libDaisy/src/per/qspi.h **** 
  39:../../libDaisy/src/per/qspi.h ****     /** Indicates the current status of the module. 
  40:../../libDaisy/src/per/qspi.h ****          *  Warnings are indicated by a leading W.
ARM GAS  C:\Users\jcjco\AppData\Local\Temp\cc6lIF5P.s 			page 131


  41:../../libDaisy/src/per/qspi.h ****          *  Errors are indicated by a leading E and cause an immediate exit.
  42:../../libDaisy/src/per/qspi.h ****          * 
  43:../../libDaisy/src/per/qspi.h ****          *  \param GOOD - No errors have been reported.
  44:../../libDaisy/src/per/qspi.h ****          *  \param E_HAL_ERROR - HAL code did not return HAL_OK.
  45:../../libDaisy/src/per/qspi.h ****          *  \param E_SWITCHING_MODES - An error was encountered while switching QSPI peripheral mod
  46:../../libDaisy/src/per/qspi.h ****          *  \param E_INVALID_MODE - QSPI should not be written to while the program is executing fr
  47:../../libDaisy/src/per/qspi.h ****          */
  48:../../libDaisy/src/per/qspi.h ****     enum Status
  49:../../libDaisy/src/per/qspi.h ****     {
  50:../../libDaisy/src/per/qspi.h ****         GOOD = 0,
  51:../../libDaisy/src/per/qspi.h ****         E_HAL_ERROR,
  52:../../libDaisy/src/per/qspi.h ****         E_SWITCHING_MODES,
  53:../../libDaisy/src/per/qspi.h ****         E_INVALID_MODE,
  54:../../libDaisy/src/per/qspi.h ****     };
  55:../../libDaisy/src/per/qspi.h **** 
  56:../../libDaisy/src/per/qspi.h ****     /** Configuration structure for interfacing with QSPI Driver */
  57:../../libDaisy/src/per/qspi.h ****     struct Config
  58:../../libDaisy/src/per/qspi.h ****     {
  59:../../libDaisy/src/per/qspi.h ****         /** Flash Devices supported. (Both of these are more-or-less the same, just different sizes
  60:../../libDaisy/src/per/qspi.h ****         enum Device
  61:../../libDaisy/src/per/qspi.h ****         {
  62:../../libDaisy/src/per/qspi.h ****             IS25LP080D,  /**< & */
  63:../../libDaisy/src/per/qspi.h ****             IS25LP064A,  /**< & */
  64:../../libDaisy/src/per/qspi.h ****             DEVICE_LAST, /**< & */
  65:../../libDaisy/src/per/qspi.h ****         };
  66:../../libDaisy/src/per/qspi.h **** 
  67:../../libDaisy/src/per/qspi.h ****         /** 
  68:../../libDaisy/src/per/qspi.h ****         Modes of operation.
  69:../../libDaisy/src/per/qspi.h ****         Memory Mapped mode: QSPI configured so that the QSPI can be
  70:../../libDaisy/src/per/qspi.h ****         read from starting address 0x90000000. Writing is not
  71:../../libDaisy/src/per/qspi.h ****         possible in this mode. \n 
  72:../../libDaisy/src/per/qspi.h ****         Indirect Polling mode: Device driver enabled. 
  73:../../libDaisy/src/per/qspi.h ****         */
  74:../../libDaisy/src/per/qspi.h ****         enum Mode
  75:../../libDaisy/src/per/qspi.h ****         {
  76:../../libDaisy/src/per/qspi.h ****             MEMORY_MAPPED,    /**< & */
  77:../../libDaisy/src/per/qspi.h ****             INDIRECT_POLLING, /**< & */
  78:../../libDaisy/src/per/qspi.h ****             MODE_LAST,
  79:../../libDaisy/src/per/qspi.h ****         };
  80:../../libDaisy/src/per/qspi.h **** 
  81:../../libDaisy/src/per/qspi.h ****         //SCK,  CE# (active low)
  82:../../libDaisy/src/per/qspi.h ****         struct
  83:../../libDaisy/src/per/qspi.h ****         {
  84:../../libDaisy/src/per/qspi.h ****             dsy_gpio_pin io0; /**< & */
  85:../../libDaisy/src/per/qspi.h ****             dsy_gpio_pin io1; /**< & */
  86:../../libDaisy/src/per/qspi.h ****             dsy_gpio_pin io2; /**< & */
  87:../../libDaisy/src/per/qspi.h ****             dsy_gpio_pin io3; /**< & */
  88:../../libDaisy/src/per/qspi.h ****             dsy_gpio_pin clk; /**< & */
  89:../../libDaisy/src/per/qspi.h ****             dsy_gpio_pin ncs; /**< & */
  90:../../libDaisy/src/per/qspi.h ****         } pin_config;
  91:../../libDaisy/src/per/qspi.h **** 
  92:../../libDaisy/src/per/qspi.h ****         Device device;
  93:../../libDaisy/src/per/qspi.h ****         Mode   mode;
  94:../../libDaisy/src/per/qspi.h ****     };
  95:../../libDaisy/src/per/qspi.h **** 
  96:../../libDaisy/src/per/qspi.h ****     /** 
  97:../../libDaisy/src/per/qspi.h ****         Initializes QSPI peripheral, and Resets, and prepares memory for access.
ARM GAS  C:\Users\jcjco\AppData\Local\Temp\cc6lIF5P.s 			page 132


  98:../../libDaisy/src/per/qspi.h ****         \param config should be populated with the mode, device and pin_config before calling this 
  99:../../libDaisy/src/per/qspi.h ****         \return Result::OK or Result::ERR
 100:../../libDaisy/src/per/qspi.h ****         */
 101:../../libDaisy/src/per/qspi.h ****     Result Init(const Config& config);
 102:../../libDaisy/src/per/qspi.h **** 
 103:../../libDaisy/src/per/qspi.h ****     /** Returns the current config. */
 104:../../libDaisy/src/per/qspi.h ****     const Config& GetConfig() const;
 105:../../libDaisy/src/per/qspi.h **** 
 106:../../libDaisy/src/per/qspi.h ****     // Couldn't this just be called before anything else in init? That
 107:../../libDaisy/src/per/qspi.h ****     // would make manually calling it unnecessary.
 108:../../libDaisy/src/per/qspi.h ****     /** 
 109:../../libDaisy/src/per/qspi.h ****         Deinitializes the peripheral
 110:../../libDaisy/src/per/qspi.h ****         This should be called before reinitializing QSPI in a different mode.
 111:../../libDaisy/src/per/qspi.h ****         \return Result::OK or Result::ERR
 112:../../libDaisy/src/per/qspi.h ****         */
 113:../../libDaisy/src/per/qspi.h ****     Result DeInit();
 114:../../libDaisy/src/per/qspi.h **** 
 115:../../libDaisy/src/per/qspi.h ****     /** 
 116:../../libDaisy/src/per/qspi.h ****         Writes a single page to to the specified address on the QSPI chip.
 117:../../libDaisy/src/per/qspi.h ****         For IS25LP*, page size is 256 bytes.
 118:../../libDaisy/src/per/qspi.h ****         \param address Address to write to
 119:../../libDaisy/src/per/qspi.h ****         \param size Buffer size
 120:../../libDaisy/src/per/qspi.h ****         \param buffer Buffer to write
 121:../../libDaisy/src/per/qspi.h ****         \return Result::OK or Result::ERR
 122:../../libDaisy/src/per/qspi.h ****         */
 123:../../libDaisy/src/per/qspi.h ****     Result WritePage(uint32_t address, uint32_t size, uint8_t* buffer);
 124:../../libDaisy/src/per/qspi.h **** 
 125:../../libDaisy/src/per/qspi.h ****     /** 
 126:../../libDaisy/src/per/qspi.h ****         Writes data in buffer to to the QSPI. Starting at address to address+size 
 127:../../libDaisy/src/per/qspi.h ****         \param address Address to write to
 128:../../libDaisy/src/per/qspi.h ****         \param size Buffer size
 129:../../libDaisy/src/per/qspi.h ****         \param buffer Buffer to write
 130:../../libDaisy/src/per/qspi.h ****         \return Result::OK or Result::ERR
 131:../../libDaisy/src/per/qspi.h ****         */
 132:../../libDaisy/src/per/qspi.h ****     Result Write(uint32_t address, uint32_t size, uint8_t* buffer);
 133:../../libDaisy/src/per/qspi.h **** 
 134:../../libDaisy/src/per/qspi.h ****     /** 
 135:../../libDaisy/src/per/qspi.h ****         Erases the area specified on the chip.
 136:../../libDaisy/src/per/qspi.h ****         Erasures will happen by 4K, 32K or 64K increments.
 137:../../libDaisy/src/per/qspi.h ****         Smallest erase possible is 4kB at a time. (on IS25LP*)
 138:../../libDaisy/src/per/qspi.h ****         \param start_addr Address to begin erasing from
 139:../../libDaisy/src/per/qspi.h ****         \param end_addr  Address to stop erasing at
 140:../../libDaisy/src/per/qspi.h ****         \return Result::OK or Result::ERR
 141:../../libDaisy/src/per/qspi.h ****         */
 142:../../libDaisy/src/per/qspi.h ****     Result Erase(uint32_t start_addr, uint32_t end_addr);
 143:../../libDaisy/src/per/qspi.h **** 
 144:../../libDaisy/src/per/qspi.h ****     /**  
 145:../../libDaisy/src/per/qspi.h ****          Erases a single sector of the chip.  
 146:../../libDaisy/src/per/qspi.h ****         TODO: Document the size of this function. 
 147:../../libDaisy/src/per/qspi.h ****         \param address Address of sector to erase
 148:../../libDaisy/src/per/qspi.h ****         \return Result::OK or Result::ERR
 149:../../libDaisy/src/per/qspi.h ****         */
 150:../../libDaisy/src/per/qspi.h ****     Result EraseSector(uint32_t address);
 151:../../libDaisy/src/per/qspi.h **** 
 152:../../libDaisy/src/per/qspi.h ****     /** Returns the current class status. Useful for debugging.
 153:../../libDaisy/src/per/qspi.h ****      *  \returns Status
 154:../../libDaisy/src/per/qspi.h ****      */
ARM GAS  C:\Users\jcjco\AppData\Local\Temp\cc6lIF5P.s 			page 133


 155:../../libDaisy/src/per/qspi.h ****     Status GetStatus();
 156:../../libDaisy/src/per/qspi.h **** 
 157:../../libDaisy/src/per/qspi.h ****     /** Returns a pointer to the actual memory used 
 158:../../libDaisy/src/per/qspi.h ****      *  The memory at this address is read-only
 159:../../libDaisy/src/per/qspi.h ****      *  to write to it use the Write function.
 160:../../libDaisy/src/per/qspi.h ****      * 
 161:../../libDaisy/src/per/qspi.h ****      *  \param offset returns the pointer starting this 
 162:../../libDaisy/src/per/qspi.h ****      *                many bytes into the memory
 163:../../libDaisy/src/per/qspi.h ****     */
 164:../../libDaisy/src/per/qspi.h ****     void* GetData(uint32_t offset = 0);
 165:../../libDaisy/src/per/qspi.h **** 
 166:../../libDaisy/src/per/qspi.h ****     QSPIHandle() : pimpl_(nullptr) {}
 4206              		.loc 17 166 5 view .LVU1308
 4207              	.LBE595:
 4208              	.LBE594:
 4209              	.LBE593:
 4210              	.LBE592:
 4211              	.LBE591:
 4212              		.loc 11 705 1 is_stmt 0 view .LVU1309
 4213 0000 38B5     		push	{r3, r4, r5, lr}
 4214              		.cfi_def_cfa_offset 16
 4215              		.cfi_offset 3, -16
 4216              		.cfi_offset 4, -12
 4217              		.cfi_offset 5, -8
 4218              		.cfi_offset 14, -4
 4219              	.LBB643:
 4220              	.LBB641:
 4221              	.LBB613:
 4222              	.LBB611:
 4223              	.LBB600:
 4224              	.LBB596:
 4225              	.LBB597:
 4226              		.loc 17 166 34 view .LVU1310
 4227 0002 1648     		ldr	r0, .L272
 4228 0004 0024     		movs	r4, #0
 4229              	.LBE597:
 4230              	.LBE596:
 4231              	.LBE600:
 4232              	.LBE611:
 4233              	.LBE613:
  19:main.cpp      **** MidiUsbHandler midi;
 4234              		.loc 11 19 11 view .LVU1311
 4235 0006 164A     		ldr	r2, .L272+4
 4236 0008 1649     		ldr	r1, .L272+8
 4237              	.LBB614:
 4238              	.LBB612:
 4239              	.LBB601:
 4240              	.LBB599:
 4241              	.LBB598:
 4242              		.loc 17 166 34 view .LVU1312
 4243 000a 0460     		str	r4, [r0]
 4244              	.LVL242:
 4245              		.loc 17 166 34 view .LVU1313
 4246              	.LBE598:
 4247              	.LBE599:
 4248              	.LBE601:
 4249              	.LBB602:
ARM GAS  C:\Users\jcjco\AppData\Local\Temp\cc6lIF5P.s 			page 134


 4250              	.LBI602:
  95:../../libDaisy/src/hid/audio.h ****     ~AudioHandle() {}
 4251              		.loc 5 95 5 is_stmt 1 view .LVU1314
 4252              	.LBB603:
 4253              	.LBB604:
  95:../../libDaisy/src/hid/audio.h ****     ~AudioHandle() {}
 4254              		.loc 5 95 35 is_stmt 0 view .LVU1315
 4255 000c 4461     		str	r4, [r0, #20]
 4256              	.LVL243:
  95:../../libDaisy/src/hid/audio.h ****     ~AudioHandle() {}
 4257              		.loc 5 95 35 view .LVU1316
 4258              	.LBE604:
 4259              	.LBE603:
 4260              	.LBE602:
 4261              	.LBB605:
 4262              	.LBI605:
  92:../../libDaisy/src/per/adc.h ****     ~AdcHandle() {}
 4263              		.loc 4 92 5 is_stmt 1 view .LVU1317
  92:../../libDaisy/src/per/adc.h ****     ~AdcHandle() {}
 4264              		.loc 4 92 5 is_stmt 0 view .LVU1318
 4265              	.LBE605:
 4266              	.LBB606:
 4267              	.LBI606:
 4268              		.file 18 "../../libDaisy/src/per/dac.h"
   1:../../libDaisy/src/per/dac.h **** #pragma once
   2:../../libDaisy/src/per/dac.h **** #ifndef DSY_DAC_H
   3:../../libDaisy/src/per/dac.h **** #define DSY_DAC_H
   4:../../libDaisy/src/per/dac.h **** 
   5:../../libDaisy/src/per/dac.h **** #include "daisy_core.h"
   6:../../libDaisy/src/per/dac.h **** 
   7:../../libDaisy/src/per/dac.h **** namespace daisy
   8:../../libDaisy/src/per/dac.h **** {
   9:../../libDaisy/src/per/dac.h **** /** @brief DAC handle for Built-in DAC Peripheral 
  10:../../libDaisy/src/per/dac.h ****  *  @ingroup per_analog
  11:../../libDaisy/src/per/dac.h ****  ** 
  12:../../libDaisy/src/per/dac.h ****  ** For now only Normal Mode is supported,
  13:../../libDaisy/src/per/dac.h ****  ** Sample and hold mode provides reduced power consumption, but requires a bit more setup.
  14:../../libDaisy/src/per/dac.h ****  **
  15:../../libDaisy/src/per/dac.h ****  ** For now connecting the DAC through other internal peripherals is also not supported.
  16:../../libDaisy/src/per/dac.h ****  **
  17:../../libDaisy/src/per/dac.h ****  ** Since the DAC channels have dedicated pins we don't need to pass in a pin config like with
  18:../../libDaisy/src/per/dac.h ****  ** other modules. However, it is still important to not try to use the DAC pins for anything else.
  19:../../libDaisy/src/per/dac.h ****  ** DAC Channel 1 is on PA4, and DAC Channel 2 is on PA5
  20:../../libDaisy/src/per/dac.h ****  ***/
  21:../../libDaisy/src/per/dac.h **** class DacHandle
  22:../../libDaisy/src/per/dac.h **** {
  23:../../libDaisy/src/per/dac.h ****   public:
  24:../../libDaisy/src/per/dac.h ****     /** Return Values for the DacHandle class */
  25:../../libDaisy/src/per/dac.h ****     enum class Result
  26:../../libDaisy/src/per/dac.h ****     {
  27:../../libDaisy/src/per/dac.h ****         OK,
  28:../../libDaisy/src/per/dac.h ****         ERR,
  29:../../libDaisy/src/per/dac.h ****     };
  30:../../libDaisy/src/per/dac.h **** 
  31:../../libDaisy/src/per/dac.h ****     /** Selects which channel(s) will be configured for use. */
  32:../../libDaisy/src/per/dac.h ****     enum class Channel
  33:../../libDaisy/src/per/dac.h ****     {
ARM GAS  C:\Users\jcjco\AppData\Local\Temp\cc6lIF5P.s 			page 135


  34:../../libDaisy/src/per/dac.h ****         ONE,
  35:../../libDaisy/src/per/dac.h ****         TWO,
  36:../../libDaisy/src/per/dac.h ****         BOTH,
  37:../../libDaisy/src/per/dac.h ****     };
  38:../../libDaisy/src/per/dac.h **** 
  39:../../libDaisy/src/per/dac.h ****     /** Sets the Mode for the DAC channels.
  40:../../libDaisy/src/per/dac.h ****      **
  41:../../libDaisy/src/per/dac.h ****      ** Polling mode uses the blocking mode to transmit a single value at a time.
  42:../../libDaisy/src/per/dac.h ****      **
  43:../../libDaisy/src/per/dac.h ****      ** DMA mode uses a buffer, and periodically transmits it triggering a 
  44:../../libDaisy/src/per/dac.h ****      ** callback to fill the buffer when it is ready for more samples.
  45:../../libDaisy/src/per/dac.h ****      ***/
  46:../../libDaisy/src/per/dac.h ****     enum class Mode
  47:../../libDaisy/src/per/dac.h ****     {
  48:../../libDaisy/src/per/dac.h ****         POLLING,
  49:../../libDaisy/src/per/dac.h ****         DMA,
  50:../../libDaisy/src/per/dac.h ****     };
  51:../../libDaisy/src/per/dac.h **** 
  52:../../libDaisy/src/per/dac.h ****     /** Sets the number of bits per sample transmitted out of the DAC.
  53:../../libDaisy/src/per/dac.h ****      ** The output range will be: 0V - VDDA
  54:../../libDaisy/src/per/dac.h ****      ** The resolution will be roughly: bitdepth / (VDDA - 0V) 
  55:../../libDaisy/src/per/dac.h ****      ***/
  56:../../libDaisy/src/per/dac.h ****     enum class BitDepth
  57:../../libDaisy/src/per/dac.h ****     {
  58:../../libDaisy/src/per/dac.h ****         BITS_8,
  59:../../libDaisy/src/per/dac.h ****         BITS_12
  60:../../libDaisy/src/per/dac.h ****     };
  61:../../libDaisy/src/per/dac.h **** 
  62:../../libDaisy/src/per/dac.h ****     /** Sets whether the DAC output is buffered for higher drive ability. */
  63:../../libDaisy/src/per/dac.h ****     enum class BufferState
  64:../../libDaisy/src/per/dac.h ****     {
  65:../../libDaisy/src/per/dac.h ****         ENABLED,
  66:../../libDaisy/src/per/dac.h ****         DISABLED,
  67:../../libDaisy/src/per/dac.h ****     };
  68:../../libDaisy/src/per/dac.h **** 
  69:../../libDaisy/src/per/dac.h ****     /** Configuration structure for initializing the DAC structure. */
  70:../../libDaisy/src/per/dac.h ****     struct Config
  71:../../libDaisy/src/per/dac.h ****     {
  72:../../libDaisy/src/per/dac.h ****         /** Target Samplerate in Hz used to configure the internal 
  73:../../libDaisy/src/per/dac.h ****          ** timebase for DMA mode. Does nothing in POLLING mode.
  74:../../libDaisy/src/per/dac.h ****          ** If the value is 0 at Init time this will default to 48000Hz 
  75:../../libDaisy/src/per/dac.h ****          ** otherwise the driver will attempt meet the target.*/
  76:../../libDaisy/src/per/dac.h ****         uint32_t target_samplerate;
  77:../../libDaisy/src/per/dac.h **** 
  78:../../libDaisy/src/per/dac.h ****         Channel     chn;
  79:../../libDaisy/src/per/dac.h ****         Mode        mode;
  80:../../libDaisy/src/per/dac.h ****         BitDepth    bitdepth;
  81:../../libDaisy/src/per/dac.h ****         BufferState buff_state;
  82:../../libDaisy/src/per/dac.h ****     };
  83:../../libDaisy/src/per/dac.h **** 
  84:../../libDaisy/src/per/dac.h ****     DacHandle() : pimpl_(nullptr) {}
 4269              		.loc 18 84 5 is_stmt 1 view .LVU1319
 4270              	.LBB607:
 4271              	.LBB608:
 4272              		.loc 18 84 33 is_stmt 0 view .LVU1320
 4273 000e 0462     		str	r4, [r0, #32]
 4274              	.LVL244:
ARM GAS  C:\Users\jcjco\AppData\Local\Temp\cc6lIF5P.s 			page 136


 4275              		.loc 18 84 33 view .LVU1321
 4276              	.LBE608:
 4277              	.LBE607:
 4278              	.LBE606:
 4279              	.LBB609:
 4280              	.LBI609:
  40:../../libDaisy/src/hid/usb.h **** 
 4281              		.loc 3 40 5 is_stmt 1 view .LVU1322
  40:../../libDaisy/src/hid/usb.h **** 
 4282              		.loc 3 40 5 is_stmt 0 view .LVU1323
 4283              	.LBE609:
 4284              	.LBB610:
 4285              	.LBI610:
  77:../../libDaisy/src/sys/system.h ****     ~System() {}
 4286              		.loc 2 77 5 is_stmt 1 view .LVU1324
  77:../../libDaisy/src/sys/system.h ****     ~System() {}
 4287              		.loc 2 77 5 is_stmt 0 view .LVU1325
 4288              	.LBE610:
 4289              	.LBE612:
 4290              	.LBE614:
  19:main.cpp      **** MidiUsbHandler midi;
 4291              		.loc 11 19 11 view .LVU1326
 4292 0010 FFF7FEFF 		bl	__aeabi_atexit
 4293              	.LVL245:
 4294              	.LBB615:
 4295              	.LBI615:
  84:../../libDaisy/src/hid/midi.h ****     ~MidiHandler() {}
 4296              		.loc 8 84 5 is_stmt 1 view .LVU1327
 4297              	.LBB616:
 4298              	.LBB617:
 4299              	.LBB618:
 4300              	.LBI618:
 4301              		.file 19 "../../libDaisy/src/per/uart.h"
   1:../../libDaisy/src/per/uart.h **** /* 
   2:../../libDaisy/src/per/uart.h **** TODO
   3:../../libDaisy/src/per/uart.h **** - UART1 defaults to DMA, add flexible config for DMA on all periphs
   4:../../libDaisy/src/per/uart.h **** - Transmit function improvements.
   5:../../libDaisy/src/per/uart.h **** - Overflow handling, etc. for Rx Queue.
   6:../../libDaisy/src/per/uart.h **** */
   7:../../libDaisy/src/per/uart.h **** 
   8:../../libDaisy/src/per/uart.h **** #pragma once
   9:../../libDaisy/src/per/uart.h **** #ifndef DSY_UART_H
  10:../../libDaisy/src/per/uart.h **** #define DSY_UART_H /**< macro */
  11:../../libDaisy/src/per/uart.h **** #include "daisy_core.h"
  12:../../libDaisy/src/per/uart.h **** 
  13:../../libDaisy/src/per/uart.h **** 
  14:../../libDaisy/src/per/uart.h **** namespace daisy
  15:../../libDaisy/src/per/uart.h **** {
  16:../../libDaisy/src/per/uart.h **** /** @addtogroup serial
  17:../../libDaisy/src/per/uart.h ****     @{
  18:../../libDaisy/src/per/uart.h ****     */
  19:../../libDaisy/src/per/uart.h **** 
  20:../../libDaisy/src/per/uart.h **** /** 
  21:../../libDaisy/src/per/uart.h ****     Uart Peripheral
  22:../../libDaisy/src/per/uart.h ****     @author shensley
  23:../../libDaisy/src/per/uart.h ****     @date March 2020
  24:../../libDaisy/src/per/uart.h ****     */
ARM GAS  C:\Users\jcjco\AppData\Local\Temp\cc6lIF5P.s 			page 137


  25:../../libDaisy/src/per/uart.h **** class UartHandler
  26:../../libDaisy/src/per/uart.h **** {
  27:../../libDaisy/src/per/uart.h ****   public:
  28:../../libDaisy/src/per/uart.h ****     struct Config
  29:../../libDaisy/src/per/uart.h ****     {
  30:../../libDaisy/src/per/uart.h ****         enum class Peripheral
  31:../../libDaisy/src/per/uart.h ****         {
  32:../../libDaisy/src/per/uart.h ****             USART_1,
  33:../../libDaisy/src/per/uart.h ****             USART_2,
  34:../../libDaisy/src/per/uart.h ****             USART_3,
  35:../../libDaisy/src/per/uart.h ****             UART_4,
  36:../../libDaisy/src/per/uart.h ****             UART_5,
  37:../../libDaisy/src/per/uart.h ****             USART_6,
  38:../../libDaisy/src/per/uart.h ****             UART_7,
  39:../../libDaisy/src/per/uart.h ****             UART_8,
  40:../../libDaisy/src/per/uart.h ****             LPUART_1,
  41:../../libDaisy/src/per/uart.h ****         };
  42:../../libDaisy/src/per/uart.h **** 
  43:../../libDaisy/src/per/uart.h ****         enum class StopBits
  44:../../libDaisy/src/per/uart.h ****         {
  45:../../libDaisy/src/per/uart.h ****             BITS_0_5,
  46:../../libDaisy/src/per/uart.h ****             BITS_1,
  47:../../libDaisy/src/per/uart.h ****             BITS_1_5,
  48:../../libDaisy/src/per/uart.h ****             BITS_2,
  49:../../libDaisy/src/per/uart.h ****         };
  50:../../libDaisy/src/per/uart.h **** 
  51:../../libDaisy/src/per/uart.h ****         enum class Parity
  52:../../libDaisy/src/per/uart.h ****         {
  53:../../libDaisy/src/per/uart.h ****             NONE,
  54:../../libDaisy/src/per/uart.h ****             EVEN,
  55:../../libDaisy/src/per/uart.h ****             ODD,
  56:../../libDaisy/src/per/uart.h ****         };
  57:../../libDaisy/src/per/uart.h **** 
  58:../../libDaisy/src/per/uart.h ****         enum class Mode
  59:../../libDaisy/src/per/uart.h ****         {
  60:../../libDaisy/src/per/uart.h ****             RX,
  61:../../libDaisy/src/per/uart.h ****             TX,
  62:../../libDaisy/src/per/uart.h ****             TX_RX,
  63:../../libDaisy/src/per/uart.h ****         };
  64:../../libDaisy/src/per/uart.h **** 
  65:../../libDaisy/src/per/uart.h ****         enum class WordLength
  66:../../libDaisy/src/per/uart.h ****         {
  67:../../libDaisy/src/per/uart.h ****             BITS_7,
  68:../../libDaisy/src/per/uart.h ****             BITS_8,
  69:../../libDaisy/src/per/uart.h ****             BITS_9,
  70:../../libDaisy/src/per/uart.h ****         };
  71:../../libDaisy/src/per/uart.h **** 
  72:../../libDaisy/src/per/uart.h ****         struct
  73:../../libDaisy/src/per/uart.h ****         {
  74:../../libDaisy/src/per/uart.h ****             dsy_gpio_pin tx; /**< & */
  75:../../libDaisy/src/per/uart.h ****             dsy_gpio_pin rx; /**< & */
  76:../../libDaisy/src/per/uart.h ****         } pin_config;        /**< & */
  77:../../libDaisy/src/per/uart.h **** 
  78:../../libDaisy/src/per/uart.h ****         Config()
  79:../../libDaisy/src/per/uart.h ****         {
  80:../../libDaisy/src/per/uart.h ****             // user must init periph, pin_config, and mode
  81:../../libDaisy/src/per/uart.h ****             stopbits   = StopBits::BITS_1;
ARM GAS  C:\Users\jcjco\AppData\Local\Temp\cc6lIF5P.s 			page 138


  82:../../libDaisy/src/per/uart.h ****             parity     = Parity::NONE;
  83:../../libDaisy/src/per/uart.h ****             wordlength = WordLength::BITS_8;
  84:../../libDaisy/src/per/uart.h ****             baudrate   = 4800;
  85:../../libDaisy/src/per/uart.h ****             // baudrate   = 31250;
  86:../../libDaisy/src/per/uart.h ****         }
  87:../../libDaisy/src/per/uart.h **** 
  88:../../libDaisy/src/per/uart.h ****         Peripheral periph;
  89:../../libDaisy/src/per/uart.h ****         StopBits   stopbits;
  90:../../libDaisy/src/per/uart.h ****         Parity     parity;
  91:../../libDaisy/src/per/uart.h ****         Mode       mode;
  92:../../libDaisy/src/per/uart.h ****         WordLength wordlength;
  93:../../libDaisy/src/per/uart.h ****         uint32_t   baudrate;
  94:../../libDaisy/src/per/uart.h ****     };
  95:../../libDaisy/src/per/uart.h **** 
  96:../../libDaisy/src/per/uart.h **** 
  97:../../libDaisy/src/per/uart.h ****     UartHandler() : pimpl_(nullptr) {}
 4302              		.loc 19 97 5 view .LVU1328
 4303              		.loc 19 97 5 is_stmt 0 view .LVU1329
 4304              	.LBE618:
 4305              	.LBB623:
 4306              	.LBI623:
  21:../../libDaisy/src/util/ringbuffer.h **** 
 4307              		.loc 16 21 5 is_stmt 1 view .LVU1330
  21:../../libDaisy/src/util/ringbuffer.h **** 
 4308              		.loc 16 21 5 is_stmt 0 view .LVU1331
 4309              	.LBE623:
 4310              	.LBB624:
 4311              	.LBI624:
  19:../../libDaisy/src/hid/usb_midi.h **** 
  20:../../libDaisy/src/hid/usb_midi.h ****     struct Config
  21:../../libDaisy/src/hid/usb_midi.h ****     {
  22:../../libDaisy/src/hid/usb_midi.h ****         enum Periph
  23:../../libDaisy/src/hid/usb_midi.h ****         {
  24:../../libDaisy/src/hid/usb_midi.h ****             INTERNAL = 0,
  25:../../libDaisy/src/hid/usb_midi.h ****             EXTERNAL
  26:../../libDaisy/src/hid/usb_midi.h ****         };
  27:../../libDaisy/src/hid/usb_midi.h **** 
  28:../../libDaisy/src/hid/usb_midi.h ****         Periph periph;
  29:../../libDaisy/src/hid/usb_midi.h ****     };
  30:../../libDaisy/src/hid/usb_midi.h **** 
  31:../../libDaisy/src/hid/usb_midi.h ****     void Init(Config config);
  32:../../libDaisy/src/hid/usb_midi.h **** 
  33:../../libDaisy/src/hid/usb_midi.h ****     void    StartRx();
  34:../../libDaisy/src/hid/usb_midi.h ****     size_t  Readable();
  35:../../libDaisy/src/hid/usb_midi.h ****     uint8_t Rx();
  36:../../libDaisy/src/hid/usb_midi.h ****     bool    RxActive();
  37:../../libDaisy/src/hid/usb_midi.h ****     void    FlushRx();
  38:../../libDaisy/src/hid/usb_midi.h ****     void    Tx(uint8_t* buffer, size_t size);
  39:../../libDaisy/src/hid/usb_midi.h **** 
  40:../../libDaisy/src/hid/usb_midi.h ****     class Impl;
  41:../../libDaisy/src/hid/usb_midi.h **** 
  42:../../libDaisy/src/hid/usb_midi.h ****     MidiUsbTransport() : pimpl_(nullptr) {}
 4312              		.loc 9 42 5 is_stmt 1 view .LVU1332
 4313              		.loc 9 42 5 is_stmt 0 view .LVU1333
 4314              	.LBE624:
 4315              	.LBB629:
 4316              	.LBB619:
ARM GAS  C:\Users\jcjco\AppData\Local\Temp\cc6lIF5P.s 			page 139


 4317              	.LBB620:
 4318              		.loc 19 97 35 view .LVU1334
 4319 0014 1448     		ldr	r0, .L272+12
 4320              	.LBE620:
 4321              	.LBE619:
 4322              	.LBE629:
 4323              	.LBE617:
  84:../../libDaisy/src/hid/midi.h ****     ~MidiHandler() {}
 4324              		.loc 8 84 5 view .LVU1335
 4325 0016 154D     		ldr	r5, .L272+16
 4326 0018 4FF60F01 		movw	r1, #63503
 4327              	.LBB633:
 4328              	.LBB630:
 4329              	.LBB625:
 4330              	.LBB626:
 4331              		.loc 9 42 40 view .LVU1336
 4332 001c 00F51043 		add	r3, r0, #36864
 4333              	.LBE626:
 4334              	.LBE625:
 4335              	.LBE630:
 4336              	.LBB631:
 4337              	.LBB622:
 4338              	.LBB621:
 4339              		.loc 19 97 35 view .LVU1337
 4340 0020 0460     		str	r4, [r0]
 4341              	.LBE621:
 4342              	.LBE622:
 4343              	.LBE631:
 4344              	.LBE633:
 4345              	.LBE616:
 4346              	.LBE615:
  20:main.cpp      **** float sysSampleRate;
 4347              		.loc 11 20 16 view .LVU1338
 4348 0022 0F4A     		ldr	r2, .L272+4
 4349              	.LBB638:
 4350              	.LBB636:
 4351              	.LBB634:
 4352              	.LBB632:
 4353              	.LBB628:
 4354              	.LBB627:
 4355              		.loc 9 42 40 view .LVU1339
 4356 0024 C3F8A840 		str	r4, [r3, #168]
 4357              	.LBE627:
 4358              	.LBE628:
 4359              	.LBE632:
  84:../../libDaisy/src/hid/midi.h ****     ~MidiHandler() {}
 4360              		.loc 8 84 19 view .LVU1340
 4361 0028 0724     		movs	r4, #7
 4362              	.LBE634:
  84:../../libDaisy/src/hid/midi.h ****     ~MidiHandler() {}
 4363              		.loc 8 84 5 view .LVU1341
 4364 002a A3F8B010 		strh	r1, [r3, #176]	@ movhi
 4365              	.LBB635:
  84:../../libDaisy/src/hid/midi.h ****     ~MidiHandler() {}
 4366              		.loc 8 84 19 view .LVU1342
 4367 002e 83F8B240 		strb	r4, [r3, #178]
 4368              	.LVL246:
ARM GAS  C:\Users\jcjco\AppData\Local\Temp\cc6lIF5P.s 			page 140


  84:../../libDaisy/src/hid/midi.h ****     ~MidiHandler() {}
 4369              		.loc 8 84 19 view .LVU1343
 4370              	.LBE635:
 4371              	.LBE636:
 4372              	.LBE638:
  31:main.cpp      **** uint8_t gPlay = PLAY_ON;
 4373              		.loc 11 31 9 view .LVU1344
 4374 0032 0F4C     		ldr	r4, .L272+20
 4375              	.LBB639:
 4376              	.LBB637:
  84:../../libDaisy/src/hid/midi.h ****     ~MidiHandler() {}
 4377              		.loc 8 84 5 view .LVU1345
 4378 0034 C3F8AC50 		str	r5, [r3, #172]
 4379              	.LBE637:
 4380              	.LBE639:
  20:main.cpp      **** float sysSampleRate;
 4381              		.loc 11 20 16 view .LVU1346
 4382 0038 0E49     		ldr	r1, .L272+24
 4383 003a FFF7FEFF 		bl	__aeabi_atexit
 4384              	.LVL247:
  31:main.cpp      **** uint8_t gPlay = PLAY_ON;
 4385              		.loc 11 31 9 view .LVU1347
 4386 003e 2046     		mov	r0, r4
 4387 0040 FFF7FEFF 		bl	_ZN7VASynthC1Ev
 4388              	.LVL248:
 4389 0044 064A     		ldr	r2, .L272+4
 4390 0046 0C49     		ldr	r1, .L272+28
 4391 0048 2046     		mov	r0, r4
 4392 004a FFF7FEFF 		bl	__aeabi_atexit
 4393              	.LVL249:
 4394              	.LBB640:
 4395              	.LBI640:
  23:../../DaisySP/Source/Utility/delayline.h ****     ~DelayLine() {}
 4396              		.loc 10 23 5 is_stmt 1 view .LVU1348
  23:../../DaisySP/Source/Utility/delayline.h ****     ~DelayLine() {}
 4397              		.loc 10 23 5 is_stmt 0 view .LVU1349
 4398              	.LBE640:
  35:main.cpp      **** 
 4399              		.loc 11 35 43 view .LVU1350
 4400 004e 044A     		ldr	r2, .L272+4
 4401 0050 0A49     		ldr	r1, .L272+32
 4402 0052 0B48     		ldr	r0, .L272+36
 4403              	.LBE641:
 4404              	.LBE643:
 4405              		.loc 11 705 1 view .LVU1351
 4406 0054 BDE83840 		pop	{r3, r4, r5, lr}
 4407              		.cfi_restore 14
 4408              		.cfi_restore 5
 4409              		.cfi_restore 4
 4410              		.cfi_restore 3
 4411              		.cfi_def_cfa_offset 0
 4412              	.LBB644:
 4413              	.LBB642:
  35:main.cpp      **** 
 4414              		.loc 11 35 43 view .LVU1352
 4415 0058 FFF7FEBF 		b	__aeabi_atexit
 4416              	.LVL250:
ARM GAS  C:\Users\jcjco\AppData\Local\Temp\cc6lIF5P.s 			page 141


 4417              	.L273:
 4418              		.align	2
 4419              	.L272:
 4420 005c 00000000 		.word	.LANCHOR9
 4421 0060 00000000 		.word	__dso_handle
 4422 0064 00000000 		.word	_ZN5daisy9DaisySeedD1Ev
 4423 0068 00000000 		.word	midi
 4424 006c 80707FF0 		.word	-260083584
 4425 0070 00000000 		.word	.LANCHOR1
 4426 0074 00000000 		.word	_ZN5daisy11MidiHandlerINS_16MidiUsbTransportEED1Ev
 4427 0078 00000000 		.word	_ZN7VASynthD1Ev
 4428 007c 00000000 		.word	_ZN7daisysp9DelayLineIfLj48000EED1Ev
 4429 0080 00000000 		.word	delay_
 4430              	.LBE642:
 4431              	.LBE644:
 4432              		.cfi_endproc
 4433              	.LFE5393:
 4435              		.section	.init_array,"aw",%init_array
 4436              		.align	2
 4437 0000 00000000 		.word	_GLOBAL__sub_I_hardware(target1)
 4438              		.global	seqmem
 4439              		.global	seqvelocity
 4440              		.global	seqnote
 4441              		.global	seqmsg
 4442              		.global	seqmode
 4443              		.global	seqtime
 4444              		.global	seqclock
 4445              		.global	delay_
 4446              		.global	gPlay
 4447              		.global	vasynth
 4448              		.global	master_tune
 4449              		.global	pitch_bend
 4450              		.global	param_
 4451              		.global	sysCallbackRate
 4452              		.global	sysSampleRate
 4453              		.global	midi
 4454              		.global	hardware
 4455              		.section	.bss.hardware,"aw",%nobits
 4456              		.align	2
 4457              		.set	.LANCHOR9,. + 0
 4460              	hardware:
 4461 0000 00000000 		.space	60
 4461      00000000 
 4461      00000000 
 4461      00000000 
 4461      00000000 
 4462              		.section	.bss.master_tune,"aw",%nobits
 4463              		.align	2
 4466              	master_tune:
 4467 0000 00000000 		.space	4
 4468              		.section	.bss.midi,"aw",%nobits
 4469              		.align	2
 4472              	midi:
 4473 0000 00000000 		.space	37044
 4473      00000000 
 4473      00000000 
 4473      00000000 
ARM GAS  C:\Users\jcjco\AppData\Local\Temp\cc6lIF5P.s 			page 142


 4473      00000000 
 4474              		.section	.bss.param_,"aw",%nobits
 4477              	param_:
 4478 0000 00       		.space	1
 4479              		.section	.bss.seqclock,"aw",%nobits
 4480              		.align	1
 4481              		.set	.LANCHOR4,. + 0
 4484              	seqclock:
 4485 0000 0000     		.space	2
 4486              		.section	.bss.seqmode,"aw",%nobits
 4487              		.align	1
 4488              		.set	.LANCHOR8,. + 0
 4491              	seqmode:
 4492 0000 0000     		.space	2
 4493              		.section	.bss.seqmsg,"aw",%nobits
 4494              		.align	1
 4495              		.set	.LANCHOR5,. + 0
 4498              	seqmsg:
 4499 0000 0000     		.space	2
 4500              		.section	.bss.seqnote,"aw",%nobits
 4501              		.align	1
 4502              		.set	.LANCHOR6,. + 0
 4505              	seqnote:
 4506 0000 0000     		.space	2
 4507              		.section	.bss.seqtime,"aw",%nobits
 4508              		.align	1
 4509              		.set	.LANCHOR3,. + 0
 4512              	seqtime:
 4513 0000 0000     		.space	2
 4514              		.section	.bss.seqvelocity,"aw",%nobits
 4515              		.align	1
 4516              		.set	.LANCHOR7,. + 0
 4519              	seqvelocity:
 4520 0000 0000     		.space	2
 4521              		.section	.bss.sysCallbackRate,"aw",%nobits
 4522              		.align	2
 4523              		.set	.LANCHOR11,. + 0
 4526              	sysCallbackRate:
 4527 0000 00000000 		.space	4
 4528              		.section	.bss.sysSampleRate,"aw",%nobits
 4529              		.align	2
 4530              		.set	.LANCHOR10,. + 0
 4533              	sysSampleRate:
 4534 0000 00000000 		.space	4
 4535              		.section	.bss.vasynth,"aw",%nobits
 4536              		.align	2
 4537              		.set	.LANCHOR1,. + 0
 4540              	vasynth:
 4541 0000 00000000 		.space	2612
 4541      00000000 
 4541      00000000 
 4541      00000000 
 4541      00000000 
 4542              		.section	.data.gPlay,"aw"
 4543              		.set	.LANCHOR0,. + 0
 4546              	gPlay:
 4547 0000 01       		.byte	1
ARM GAS  C:\Users\jcjco\AppData\Local\Temp\cc6lIF5P.s 			page 143


 4548              		.section	.data.pitch_bend,"aw"
 4549              		.align	2
 4552              	pitch_bend:
 4553 0000 0000803F 		.word	1065353216
 4554              		.section	.data.seqmem,"aw"
 4555              		.align	2
 4556              		.set	.LANCHOR2,. + 0
 4559              	seqmem:
 4560 0000 00000100 		.word	65536
 4561              		.section	.sdram_bss,"aw"
 4562              		.align	2
 4565              	delay_:
 4566 0000 00000000 		.space	192012
 4566      00000000 
 4566      00000000 
 4566      00000000 
 4566      00000000 
 4567              		.text
 4568              	.Letext0:
 4569              		.file 20 "c:\\program files\\daisytoolchain\\arm-none-eabi\\include\\machine\\_default_types.h"
 4570              		.file 21 "c:\\program files\\daisytoolchain\\arm-none-eabi\\include\\sys\\_stdint.h"
 4571              		.file 22 "c:\\program files\\daisytoolchain\\arm-none-eabi\\include\\stdint.h"
 4572              		.file 23 "c:\\program files\\daisytoolchain\\lib\\gcc\\arm-none-eabi\\10.2.1\\include\\stddef.h"
 4573              		.file 24 "c:\\program files\\daisytoolchain\\arm-none-eabi\\include\\c++\\10.2.1\\cmath"
 4574              		.file 25 "c:\\program files\\daisytoolchain\\arm-none-eabi\\include\\c++\\10.2.1\\bits\\std_abs.h"
 4575              		.file 26 "c:\\program files\\daisytoolchain\\arm-none-eabi\\include\\c++\\10.2.1\\cstdlib"
 4576              		.file 27 "c:\\program files\\daisytoolchain\\arm-none-eabi\\include\\c++\\10.2.1\\cstdint"
 4577              		.file 28 "c:\\program files\\daisytoolchain\\arm-none-eabi\\include\\c++\\10.2.1\\type_traits"
 4578              		.file 29 "c:\\program files\\daisytoolchain\\arm-none-eabi\\include\\c++\\10.2.1\\debug\\debug.h"
 4579              		.file 30 "c:\\program files\\daisytoolchain\\arm-none-eabi\\include\\c++\\10.2.1\\arm-none-eabi\\t
 4580              		.file 31 "c:\\program files\\daisytoolchain\\arm-none-eabi\\include\\c++\\10.2.1\\bits\\algorithmf
 4581              		.file 32 "c:\\program files\\daisytoolchain\\arm-none-eabi\\include\\c++\\10.2.1\\bits\\stl_pair.h
 4582              		.file 33 "c:\\program files\\daisytoolchain\\arm-none-eabi\\include\\c++\\10.2.1\\bits\\exception_
 4583              		.file 34 "c:\\program files\\daisytoolchain\\arm-none-eabi\\include\\c++\\10.2.1\\cstdarg"
 4584              		.file 35 "c:\\program files\\daisytoolchain\\arm-none-eabi\\include\\c++\\10.2.1\\cstdio"
 4585              		.file 36 "c:\\program files\\daisytoolchain\\arm-none-eabi\\include\\c++\\10.2.1\\cstring"
 4586              		.file 37 "c:\\program files\\daisytoolchain\\arm-none-eabi\\include\\c++\\10.2.1\\cwchar"
 4587              		.file 38 "c:\\program files\\daisytoolchain\\arm-none-eabi\\include\\c++\\10.2.1\\clocale"
 4588              		.file 39 "c:\\program files\\daisytoolchain\\arm-none-eabi\\include\\c++\\10.2.1\\bits\\basic_stri
 4589              		.file 40 "c:\\program files\\daisytoolchain\\arm-none-eabi\\include\\c++\\10.2.1\\bits\\stl_tempbu
 4590              		.file 41 "c:\\program files\\daisytoolchain\\arm-none-eabi\\include\\c++\\10.2.1\\bits\\predefined
 4591              		.file 42 "c:\\program files\\daisytoolchain\\arm-none-eabi\\include\\sys\\_types.h"
 4592              		.file 43 "c:\\program files\\daisytoolchain\\arm-none-eabi\\include\\sys\\reent.h"
 4593              		.file 44 "c:\\program files\\daisytoolchain\\arm-none-eabi\\include\\sys\\lock.h"
 4594              		.file 45 "c:\\program files\\daisytoolchain\\arm-none-eabi\\include\\math.h"
 4595              		.file 46 "c:\\program files\\daisytoolchain\\arm-none-eabi\\include\\stdlib.h"
 4596              		.file 47 "c:\\program files\\daisytoolchain\\arm-none-eabi\\include\\c++\\10.2.1\\math.h"
 4597              		.file 48 "c:\\program files\\daisytoolchain\\arm-none-eabi\\include\\c++\\10.2.1\\stdlib.h"
 4598              		.file 49 "../../libDaisy/src/daisy_core.h"
 4599              		.file 50 "../../libDaisy/src/per/sai.h"
 4600              		.file 51 "../../libDaisy/src/util/wav_format.h"
 4601              		.file 52 "../../libDaisy/src/dev/max11300.h"
 4602              		.file 53 "../../libDaisy/src/per/gpio.h"
 4603              		.file 54 "../../libDaisy/src/dev/sdram.h"
 4604              		.file 55 "c:\\program files\\daisytoolchain\\lib\\gcc\\arm-none-eabi\\10.2.1\\include\\stdarg.h"
 4605              		.file 56 "c:\\program files\\daisytoolchain\\arm-none-eabi\\include\\stdio.h"
 4606              		.file 57 "c:\\program files\\daisytoolchain\\arm-none-eabi\\include\\string.h"
ARM GAS  C:\Users\jcjco\AppData\Local\Temp\cc6lIF5P.s 			page 144


 4607              		.file 58 "../../DaisySP/Source/Control/adenv.h"
 4608              		.file 59 "../../DaisySP/Source/Utility/dsp.h"
 4609              		.file 60 "c:\\program files\\daisytoolchain\\arm-none-eabi\\include\\wchar.h"
 4610              		.file 61 "c:\\program files\\daisytoolchain\\arm-none-eabi\\include\\locale.h"
 4611              		.file 62 "../../libDaisy/src/dev/sr_595.h"
 4612              		.file 63 "<built-in>"
ARM GAS  C:\Users\jcjco\AppData\Local\Temp\cc6lIF5P.s 			page 145


DEFINED SYMBOLS
                            *ABS*:00000000 main.cpp
C:\Users\jcjco\AppData\Local\Temp\cc6lIF5P.s:17     .text._ZN5daisy9DaisySeedD2Ev:00000000 $t
C:\Users\jcjco\AppData\Local\Temp\cc6lIF5P.s:26     .text._ZN5daisy9DaisySeedD2Ev:00000000 _ZN5daisy9DaisySeedD2Ev
C:\Users\jcjco\AppData\Local\Temp\cc6lIF5P.s:26     .text._ZN5daisy9DaisySeedD2Ev:00000000 _ZN5daisy9DaisySeedD1Ev
C:\Users\jcjco\AppData\Local\Temp\cc6lIF5P.s:67     .text._ZN7VASynthD2Ev:00000000 $t
C:\Users\jcjco\AppData\Local\Temp\cc6lIF5P.s:75     .text._ZN7VASynthD2Ev:00000000 _ZN7VASynthD2Ev
C:\Users\jcjco\AppData\Local\Temp\cc6lIF5P.s:75     .text._ZN7VASynthD2Ev:00000000 _ZN7VASynthD1Ev
C:\Users\jcjco\AppData\Local\Temp\cc6lIF5P.s:113    .text._ZN5daisy11MidiHandlerINS_16MidiUsbTransportEED2Ev:00000000 $t
C:\Users\jcjco\AppData\Local\Temp\cc6lIF5P.s:121    .text._ZN5daisy11MidiHandlerINS_16MidiUsbTransportEED2Ev:00000000 _ZN5daisy11MidiHandlerINS_16MidiUsbTransportEED2Ev
C:\Users\jcjco\AppData\Local\Temp\cc6lIF5P.s:121    .text._ZN5daisy11MidiHandlerINS_16MidiUsbTransportEED2Ev:00000000 _ZN5daisy11MidiHandlerINS_16MidiUsbTransportEED1Ev
C:\Users\jcjco\AppData\Local\Temp\cc6lIF5P.s:144    .text._ZN7daisysp9DelayLineIfLj48000EED2Ev:00000000 $t
C:\Users\jcjco\AppData\Local\Temp\cc6lIF5P.s:152    .text._ZN7daisysp9DelayLineIfLj48000EED2Ev:00000000 _ZN7daisysp9DelayLineIfLj48000EED2Ev
C:\Users\jcjco\AppData\Local\Temp\cc6lIF5P.s:152    .text._ZN7daisysp9DelayLineIfLj48000EED2Ev:00000000 _ZN7daisysp9DelayLineIfLj48000EED1Ev
C:\Users\jcjco\AppData\Local\Temp\cc6lIF5P.s:169    .text._Z13AudioCallbackPKfPfj:00000000 $t
C:\Users\jcjco\AppData\Local\Temp\cc6lIF5P.s:177    .text._Z13AudioCallbackPKfPfj:00000000 _Z13AudioCallbackPKfPfj
C:\Users\jcjco\AppData\Local\Temp\cc6lIF5P.s:297    .text._Z13AudioCallbackPKfPfj:00000070 $d
C:\Users\jcjco\AppData\Local\Temp\cc6lIF5P.s:303    .text._Z13SequencerPlayt.part.0:00000000 $t
C:\Users\jcjco\AppData\Local\Temp\cc6lIF5P.s:310    .text._Z13SequencerPlayt.part.0:00000000 _Z13SequencerPlayt.part.0
C:\Users\jcjco\AppData\Local\Temp\cc6lIF5P.s:555    .text._Z13SequencerPlayt.part.0:000000b0 $d
C:\Users\jcjco\AppData\Local\Temp\cc6lIF5P.s:568    .text._Z8CallbackPv:00000000 $t
C:\Users\jcjco\AppData\Local\Temp\cc6lIF5P.s:576    .text._Z8CallbackPv:00000000 _Z8CallbackPv
C:\Users\jcjco\AppData\Local\Temp\cc6lIF5P.s:617    .text._Z8CallbackPv:00000018 $d
C:\Users\jcjco\AppData\Local\Temp\cc6lIF5P.s:624    .text._ZN7VASynthC2Ev:00000000 $t
C:\Users\jcjco\AppData\Local\Temp\cc6lIF5P.s:632    .text._ZN7VASynthC2Ev:00000000 _ZN7VASynthC2Ev
C:\Users\jcjco\AppData\Local\Temp\cc6lIF5P.s:813    .text._ZN7VASynthC2Ev:000000c4 $d
C:\Users\jcjco\AppData\Local\Temp\cc6lIF5P.s:632    .text._ZN7VASynthC2Ev:00000000 _ZN7VASynthC1Ev
C:\Users\jcjco\AppData\Local\Temp\cc6lIF5P.s:820    .text._Z13SequencerPlayt:00000000 $t
C:\Users\jcjco\AppData\Local\Temp\cc6lIF5P.s:828    .text._Z13SequencerPlayt:00000000 _Z13SequencerPlayt
C:\Users\jcjco\AppData\Local\Temp\cc6lIF5P.s:860    .text._Z13SequencerPlayt:00000018 $d
C:\Users\jcjco\AppData\Local\Temp\cc6lIF5P.s:866    .text._Z15SequencerRecordhh:00000000 $t
C:\Users\jcjco\AppData\Local\Temp\cc6lIF5P.s:874    .text._Z15SequencerRecordhh:00000000 _Z15SequencerRecordhh
C:\Users\jcjco\AppData\Local\Temp\cc6lIF5P.s:1028   .text._Z15SequencerRecordhh:00000050 $d
C:\Users\jcjco\AppData\Local\Temp\cc6lIF5P.s:1039   .text._Z17HandleMidiMessageN5daisy9MidiEventE:00000000 $t
C:\Users\jcjco\AppData\Local\Temp\cc6lIF5P.s:1047   .text._Z17HandleMidiMessageN5daisy9MidiEventE:00000000 _Z17HandleMidiMessageN5daisy9MidiEventE
C:\Users\jcjco\AppData\Local\Temp\cc6lIF5P.s:1080   .text._Z17HandleMidiMessageN5daisy9MidiEventE:00000020 $d
C:\Users\jcjco\AppData\Local\Temp\cc6lIF5P.s:1087   .text._Z17HandleMidiMessageN5daisy9MidiEventE:0000002e $t
C:\Users\jcjco\AppData\Local\Temp\cc6lIF5P.s:1245   .text._Z17HandleMidiMessageN5daisy9MidiEventE:00000088 $d
C:\Users\jcjco\AppData\Local\Temp\cc6lIF5P.s:1366   .text._Z17HandleMidiMessageN5daisy9MidiEventE:00000268 $t
C:\Users\jcjco\AppData\Local\Temp\cc6lIF5P.s:1461   .text._Z17HandleMidiMessageN5daisy9MidiEventE:000002b0 $d
C:\Users\jcjco\AppData\Local\Temp\cc6lIF5P.s:1486   .text._Z17HandleMidiMessageN5daisy9MidiEventE:000002c8 $t
C:\Users\jcjco\AppData\Local\Temp\cc6lIF5P.s:1728   .text._Z17HandleMidiMessageN5daisy9MidiEventE:00000348 $d
C:\Users\jcjco\AppData\Local\Temp\cc6lIF5P.s:1736   .text._Z17HandleMidiMessageN5daisy9MidiEventE:00000354 $t
C:\Users\jcjco\AppData\Local\Temp\cc6lIF5P.s:1889   .text._Z17HandleMidiMessageN5daisy9MidiEventE:000003c2 $d
C:\Users\jcjco\AppData\Local\Temp\cc6lIF5P.s:1893   .text._Z17HandleMidiMessageN5daisy9MidiEventE:000003ca $t
C:\Users\jcjco\AppData\Local\Temp\cc6lIF5P.s:1906   .text._Z17HandleMidiMessageN5daisy9MidiEventE:000003d8 $d
C:\Users\jcjco\AppData\Local\Temp\cc6lIF5P.s:1910   .text._Z17HandleMidiMessageN5daisy9MidiEventE:000003e0 $t
C:\Users\jcjco\AppData\Local\Temp\cc6lIF5P.s:2503   .text._Z17HandleMidiMessageN5daisy9MidiEventE:00000678 $d
C:\Users\jcjco\AppData\Local\Temp\cc6lIF5P.s:2517   .text._Z17HandleMidiMessageN5daisy9MidiEventE:0000069c $t
C:\Users\jcjco\AppData\Local\Temp\cc6lIF5P.s:2541   .text._Z17HandleMidiMessageN5daisy9MidiEventE:000006be $d
C:\Users\jcjco\AppData\Local\Temp\cc6lIF5P.s:2546   .text._Z17HandleMidiMessageN5daisy9MidiEventE:000006c2 $t
C:\Users\jcjco\AppData\Local\Temp\cc6lIF5P.s:2766   .text._Z17HandleMidiMessageN5daisy9MidiEventE:0000077c $d
C:\Users\jcjco\AppData\Local\Temp\cc6lIF5P.s:2774   .text._Z9writeSrammh:00000000 $t
C:\Users\jcjco\AppData\Local\Temp\cc6lIF5P.s:2782   .text._Z9writeSrammh:00000000 _Z9writeSrammh
C:\Users\jcjco\AppData\Local\Temp\cc6lIF5P.s:2802   .text._Z8readSramm:00000000 $t
C:\Users\jcjco\AppData\Local\Temp\cc6lIF5P.s:2810   .text._Z8readSramm:00000000 _Z8readSramm
C:\Users\jcjco\AppData\Local\Temp\cc6lIF5P.s:2833   .text._Z13writeSramWordmt:00000000 $t
ARM GAS  C:\Users\jcjco\AppData\Local\Temp\cc6lIF5P.s 			page 146


C:\Users\jcjco\AppData\Local\Temp\cc6lIF5P.s:2841   .text._Z13writeSramWordmt:00000000 _Z13writeSramWordmt
C:\Users\jcjco\AppData\Local\Temp\cc6lIF5P.s:2861   .text._Z12readSramWordm:00000000 $t
C:\Users\jcjco\AppData\Local\Temp\cc6lIF5P.s:2869   .text._Z12readSramWordm:00000000 _Z12readSramWordm
C:\Users\jcjco\AppData\Local\Temp\cc6lIF5P.s:2894   .text._Z15SeqTimer_Configv:00000000 $t
C:\Users\jcjco\AppData\Local\Temp\cc6lIF5P.s:2902   .text._Z15SeqTimer_Configv:00000000 _Z15SeqTimer_Configv
C:\Users\jcjco\AppData\Local\Temp\cc6lIF5P.s:3020   .text._Z15SeqTimer_Configv:00000044 $d
C:\Users\jcjco\AppData\Local\Temp\cc6lIF5P.s:3026   .text._ZN5daisy11MidiHandlerINS_16MidiUsbTransportEE5ParseEh:00000000 $t
C:\Users\jcjco\AppData\Local\Temp\cc6lIF5P.s:3034   .text._ZN5daisy11MidiHandlerINS_16MidiUsbTransportEE5ParseEh:00000000 _ZN5daisy11MidiHandlerINS_16MidiUsbTransportEE5ParseEh
C:\Users\jcjco\AppData\Local\Temp\cc6lIF5P.s:3113   .text._ZN5daisy11MidiHandlerINS_16MidiUsbTransportEE5ParseEh:00000050 $d
C:\Users\jcjco\AppData\Local\Temp\cc6lIF5P.s:3117   .text._ZN5daisy11MidiHandlerINS_16MidiUsbTransportEE5ParseEh:00000054 $t
C:\Users\jcjco\AppData\Local\Temp\cc6lIF5P.s:3694   .text.startup.main:00000000 $t
C:\Users\jcjco\AppData\Local\Temp\cc6lIF5P.s:3702   .text.startup.main:00000000 main
C:\Users\jcjco\AppData\Local\Temp\cc6lIF5P.s:4163   .text.startup.main:00000194 $d
C:\Users\jcjco\AppData\Local\Temp\cc6lIF5P.s:4472   .bss.midi:00000000 midi
C:\Users\jcjco\AppData\Local\Temp\cc6lIF5P.s:4565   .sdram_bss:00000000 delay_
C:\Users\jcjco\AppData\Local\Temp\cc6lIF5P.s:4181   .text.startup._GLOBAL__sub_I_hardware:00000000 $t
C:\Users\jcjco\AppData\Local\Temp\cc6lIF5P.s:4188   .text.startup._GLOBAL__sub_I_hardware:00000000 _GLOBAL__sub_I_hardware
C:\Users\jcjco\AppData\Local\Temp\cc6lIF5P.s:4420   .text.startup._GLOBAL__sub_I_hardware:0000005c $d
C:\Users\jcjco\AppData\Local\Temp\cc6lIF5P.s:4436   .init_array:00000000 $d
C:\Users\jcjco\AppData\Local\Temp\cc6lIF5P.s:4559   .data.seqmem:00000000 seqmem
C:\Users\jcjco\AppData\Local\Temp\cc6lIF5P.s:4519   .bss.seqvelocity:00000000 seqvelocity
C:\Users\jcjco\AppData\Local\Temp\cc6lIF5P.s:4505   .bss.seqnote:00000000 seqnote
C:\Users\jcjco\AppData\Local\Temp\cc6lIF5P.s:4498   .bss.seqmsg:00000000 seqmsg
C:\Users\jcjco\AppData\Local\Temp\cc6lIF5P.s:4491   .bss.seqmode:00000000 seqmode
C:\Users\jcjco\AppData\Local\Temp\cc6lIF5P.s:4512   .bss.seqtime:00000000 seqtime
C:\Users\jcjco\AppData\Local\Temp\cc6lIF5P.s:4484   .bss.seqclock:00000000 seqclock
C:\Users\jcjco\AppData\Local\Temp\cc6lIF5P.s:4546   .data.gPlay:00000000 gPlay
C:\Users\jcjco\AppData\Local\Temp\cc6lIF5P.s:4540   .bss.vasynth:00000000 vasynth
C:\Users\jcjco\AppData\Local\Temp\cc6lIF5P.s:4466   .bss.master_tune:00000000 master_tune
C:\Users\jcjco\AppData\Local\Temp\cc6lIF5P.s:4552   .data.pitch_bend:00000000 pitch_bend
C:\Users\jcjco\AppData\Local\Temp\cc6lIF5P.s:4477   .bss.param_:00000000 param_
C:\Users\jcjco\AppData\Local\Temp\cc6lIF5P.s:4526   .bss.sysCallbackRate:00000000 sysCallbackRate
C:\Users\jcjco\AppData\Local\Temp\cc6lIF5P.s:4533   .bss.sysSampleRate:00000000 sysSampleRate
C:\Users\jcjco\AppData\Local\Temp\cc6lIF5P.s:4460   .bss.hardware:00000000 hardware
C:\Users\jcjco\AppData\Local\Temp\cc6lIF5P.s:4456   .bss.hardware:00000000 $d
C:\Users\jcjco\AppData\Local\Temp\cc6lIF5P.s:4463   .bss.master_tune:00000000 $d
C:\Users\jcjco\AppData\Local\Temp\cc6lIF5P.s:4469   .bss.midi:00000000 $d
C:\Users\jcjco\AppData\Local\Temp\cc6lIF5P.s:4478   .bss.param_:00000000 $d
C:\Users\jcjco\AppData\Local\Temp\cc6lIF5P.s:4480   .bss.seqclock:00000000 $d
C:\Users\jcjco\AppData\Local\Temp\cc6lIF5P.s:4487   .bss.seqmode:00000000 $d
C:\Users\jcjco\AppData\Local\Temp\cc6lIF5P.s:4494   .bss.seqmsg:00000000 $d
C:\Users\jcjco\AppData\Local\Temp\cc6lIF5P.s:4501   .bss.seqnote:00000000 $d
C:\Users\jcjco\AppData\Local\Temp\cc6lIF5P.s:4508   .bss.seqtime:00000000 $d
C:\Users\jcjco\AppData\Local\Temp\cc6lIF5P.s:4515   .bss.seqvelocity:00000000 $d
C:\Users\jcjco\AppData\Local\Temp\cc6lIF5P.s:4522   .bss.sysCallbackRate:00000000 $d
C:\Users\jcjco\AppData\Local\Temp\cc6lIF5P.s:4529   .bss.sysSampleRate:00000000 $d
C:\Users\jcjco\AppData\Local\Temp\cc6lIF5P.s:4536   .bss.vasynth:00000000 $d
C:\Users\jcjco\AppData\Local\Temp\cc6lIF5P.s:4549   .data.pitch_bend:00000000 $d
C:\Users\jcjco\AppData\Local\Temp\cc6lIF5P.s:4555   .data.seqmem:00000000 $d
C:\Users\jcjco\AppData\Local\Temp\cc6lIF5P.s:4562   .sdram_bss:00000000 $d
                           .group:00000000 _ZN5daisy9DaisySeedD5Ev
                           .group:00000000 _ZN7VASynthD5Ev
                           .group:00000000 _ZN5daisy11MidiHandlerINS_16MidiUsbTransportEED5Ev
                           .group:00000000 _ZN7daisysp9DelayLineIfLj48000EED5Ev
                           .group:00000000 _ZN7VASynthC5Ev

UNDEFINED SYMBOLS
ARM GAS  C:\Users\jcjco\AppData\Local\Temp\cc6lIF5P.s 			page 147


_ZN7VASynth7ProcessEPfS0_
_ZN7VASynth6NoteOnEhh
_ZN7VASynth7NoteOffEh
_ZN5daisy9DaisySeed6SetLedEb
_ZN7VASynth9PitchBendEs
_ZN7VASynth9FlashSaveEh
_ZN7VASynth9FlashLoadEh
_ZN7VASynth12SetVCAVCFLFOEv
_ZN7VASynth10SetPWM2LFOEv
_ZN7VASynth9SetPWMLFOEv
_ZN7VASynth5SetEGEv
_ZN7VASynth9SetFilterEv
_ZN7VASynth6SetLFOEv
_ZN7VASynth11SetWaveformEv
_ZN7VASynth13ProgramChangeEh
_ZN5daisy6System12GetPClk2FreqEv
_ZN5daisy11TimerHandle4InitERKNS0_6ConfigE
_ZN5daisy11TimerHandle11SetCallbackEPFvPvES1_
_ZN5daisy11TimerHandle5StartEv
memcpy
_ZN5daisy9DaisySeed4InitEb
_ZN5daisy9DaisySeed17SetAudioBlockSizeEj
_ZN5daisy9DaisySeed15AudioSampleRateEv
_ZNK5daisy9DaisySeed17AudioCallbackRateEv
_ZN5daisy10QSPIHandle4InitERKNS0_6ConfigE
_ZN7VASynth4InitEv
_ZN7VASynth5FirstEv
_ZN5daisy16MidiUsbTransport4InitENS0_6ConfigE
_ZN5daisy6System5DelayEm
memset
_ZN5daisy9DaisySeed10StartAudioEPFvPKfPfjE
_ZN5daisy6System6GetNowEv
_ZN5daisy16MidiUsbTransport2RxEv
_ZN5daisy16MidiUsbTransport8ReadableEv
_ZN5daisy16MidiUsbTransport8RxActiveEv
_ZN5daisy16MidiUsbTransport7FlushRxEv
_ZN5daisy16MidiUsbTransport7StartRxEv
__aeabi_atexit
__dso_handle
