ARM GAS  C:\Users\jcjco\AppData\Local\Temp\ccocbARg.s 			page 1


   1              		.cpu cortex-m7
   2              		.eabi_attribute 28, 1
   3              		.eabi_attribute 20, 1
   4              		.eabi_attribute 21, 1
   5              		.eabi_attribute 23, 3
   6              		.eabi_attribute 24, 1
   7              		.eabi_attribute 25, 1
   8              		.eabi_attribute 26, 1
   9              		.eabi_attribute 30, 2
  10              		.eabi_attribute 34, 1
  11              		.eabi_attribute 18, 4
  12              		.file	"main.cpp"
  13              		.text
  14              	.Ltext0:
  15              		.cfi_sections	.debug_frame
  16              		.section	.text._ZN5daisy9DaisySeedD2Ev,"axG",%progbits,_ZN5daisy9DaisySeedD5Ev,comdat
  17              		.align	1
  18              		.p2align 2,,3
  19              		.weak	_ZN5daisy9DaisySeedD2Ev
  20              		.arch armv7e-m
  21              		.syntax unified
  22              		.thumb
  23              		.thumb_func
  24              		.fpu fpv5-d16
  26              	_ZN5daisy9DaisySeedD2Ev:
  27              	.LVL0:
  28              	.LFB2528:
  29              		.file 1 "../../libDaisy/src/daisy_seed.h"
   1:../../libDaisy/src/daisy_seed.h **** #pragma once
   2:../../libDaisy/src/daisy_seed.h **** #ifndef DSY_SEED_H
   3:../../libDaisy/src/daisy_seed.h **** #define DSY_SEED_H
   4:../../libDaisy/src/daisy_seed.h **** 
   5:../../libDaisy/src/daisy_seed.h **** #include "daisy.h"
   6:../../libDaisy/src/daisy_seed.h **** 
   7:../../libDaisy/src/daisy_seed.h **** //Uncomment this out if you're still using the rev2 hardware
   8:../../libDaisy/src/daisy_seed.h **** //#define SEED_REV2
   9:../../libDaisy/src/daisy_seed.h **** 
  10:../../libDaisy/src/daisy_seed.h **** namespace daisy
  11:../../libDaisy/src/daisy_seed.h **** {
  12:../../libDaisy/src/daisy_seed.h **** /**
  13:../../libDaisy/src/daisy_seed.h ****    @brief This is the higher-level interface for the Daisy board. \n 
  14:../../libDaisy/src/daisy_seed.h ****     All basic peripheral configuration/initialization is setup here. \n
  15:../../libDaisy/src/daisy_seed.h **** 
  16:../../libDaisy/src/daisy_seed.h ****    @ingroup boards
  17:../../libDaisy/src/daisy_seed.h **** */
  18:../../libDaisy/src/daisy_seed.h **** class DaisySeed
  19:../../libDaisy/src/daisy_seed.h **** {
  20:../../libDaisy/src/daisy_seed.h ****   public:
  21:../../libDaisy/src/daisy_seed.h ****     DaisySeed() {}
  22:../../libDaisy/src/daisy_seed.h ****     ~DaisySeed() {}
  30              		.loc 1 22 5 view -0
  31              		.cfi_startproc
  32              		@ args = 0, pretend = 0, frame = 0
  33              		@ frame_needed = 0, uses_anonymous_args = 0
  34              		@ link register save eliminated.
  35              	.LBB235:
  36              	.LBI235:
ARM GAS  C:\Users\jcjco\AppData\Local\Temp\ccocbARg.s 			page 2


  37              		.file 2 "../../libDaisy/src/sys/system.h"
   1:../../libDaisy/src/sys/system.h **** #ifndef DSY_SYSTEM_H
   2:../../libDaisy/src/sys/system.h **** #define DSY_SYSTEM_H
   3:../../libDaisy/src/sys/system.h **** 
   4:../../libDaisy/src/sys/system.h **** #ifndef UNIT_TEST // for unit tests, a dummy implementation is provided below
   5:../../libDaisy/src/sys/system.h **** 
   6:../../libDaisy/src/sys/system.h **** #include <cstdint>
   7:../../libDaisy/src/sys/system.h **** #include "per/tim.h"
   8:../../libDaisy/src/sys/system.h **** 
   9:../../libDaisy/src/sys/system.h **** namespace daisy
  10:../../libDaisy/src/sys/system.h **** {
  11:../../libDaisy/src/sys/system.h **** /** A handle for interacting with the Core System. 
  12:../../libDaisy/src/sys/system.h ****  ** This includes the Clock tree, MPU, global DMA initialization,
  13:../../libDaisy/src/sys/system.h ****  ** cache handling, and any other necessary global initiailzation
  14:../../libDaisy/src/sys/system.h ****  **
  15:../../libDaisy/src/sys/system.h ****  ** @author shensley
  16:../../libDaisy/src/sys/system.h ****  ** @ingroup system
  17:../../libDaisy/src/sys/system.h ****  */
  18:../../libDaisy/src/sys/system.h **** class System
  19:../../libDaisy/src/sys/system.h **** {
  20:../../libDaisy/src/sys/system.h ****   public:
  21:../../libDaisy/src/sys/system.h ****     /** Contains settings for initializing the System */
  22:../../libDaisy/src/sys/system.h ****     struct Config
  23:../../libDaisy/src/sys/system.h ****     {
  24:../../libDaisy/src/sys/system.h ****         /** Specifies the system clock frequency that feeds APB/AHB clocks, etc. */
  25:../../libDaisy/src/sys/system.h ****         enum class SysClkFreq
  26:../../libDaisy/src/sys/system.h ****         {
  27:../../libDaisy/src/sys/system.h ****             FREQ_400MHZ,
  28:../../libDaisy/src/sys/system.h ****             FREQ_480MHZ,
  29:../../libDaisy/src/sys/system.h ****         };
  30:../../libDaisy/src/sys/system.h **** 
  31:../../libDaisy/src/sys/system.h ****         /** Method to call on the struct to set to defaults
  32:../../libDaisy/src/sys/system.h ****          ** CPU Freq set to 400MHz
  33:../../libDaisy/src/sys/system.h ****          ** Cache Enabled 
  34:../../libDaisy/src/sys/system.h ****          ** */
  35:../../libDaisy/src/sys/system.h ****         void Defaults()
  36:../../libDaisy/src/sys/system.h ****         {
  37:../../libDaisy/src/sys/system.h ****             cpu_freq    = SysClkFreq::FREQ_400MHZ;
  38:../../libDaisy/src/sys/system.h ****             use_dcache  = true;
  39:../../libDaisy/src/sys/system.h ****             use_icache  = true;
  40:../../libDaisy/src/sys/system.h ****             skip_clocks = false;
  41:../../libDaisy/src/sys/system.h ****         }
  42:../../libDaisy/src/sys/system.h **** 
  43:../../libDaisy/src/sys/system.h ****         /** Method to call on the struct to set to boost mode:
  44:../../libDaisy/src/sys/system.h ****          ** CPU Freq set to 480MHz
  45:../../libDaisy/src/sys/system.h ****          ** Cache Enabled 
  46:../../libDaisy/src/sys/system.h ****          ** */
  47:../../libDaisy/src/sys/system.h ****         void Boost()
  48:../../libDaisy/src/sys/system.h ****         {
  49:../../libDaisy/src/sys/system.h ****             cpu_freq    = SysClkFreq::FREQ_480MHZ;
  50:../../libDaisy/src/sys/system.h ****             use_dcache  = true;
  51:../../libDaisy/src/sys/system.h ****             use_icache  = true;
  52:../../libDaisy/src/sys/system.h ****             skip_clocks = false;
  53:../../libDaisy/src/sys/system.h ****         }
  54:../../libDaisy/src/sys/system.h **** 
  55:../../libDaisy/src/sys/system.h ****         SysClkFreq cpu_freq;
  56:../../libDaisy/src/sys/system.h ****         bool       use_dcache;
ARM GAS  C:\Users\jcjco\AppData\Local\Temp\ccocbARg.s 			page 3


  57:../../libDaisy/src/sys/system.h ****         bool       use_icache;
  58:../../libDaisy/src/sys/system.h ****         bool       skip_clocks;
  59:../../libDaisy/src/sys/system.h ****     };
  60:../../libDaisy/src/sys/system.h **** 
  61:../../libDaisy/src/sys/system.h ****     /** Describes the different regions of memory available to the Daisy
  62:../../libDaisy/src/sys/system.h ****      * 
  63:../../libDaisy/src/sys/system.h ****      */
  64:../../libDaisy/src/sys/system.h ****     enum MemoryRegion
  65:../../libDaisy/src/sys/system.h ****     {
  66:../../libDaisy/src/sys/system.h ****         INTERNAL_FLASH = 0,
  67:../../libDaisy/src/sys/system.h ****         ITCMRAM,
  68:../../libDaisy/src/sys/system.h ****         DTCMRAM,
  69:../../libDaisy/src/sys/system.h ****         SRAM_D1,
  70:../../libDaisy/src/sys/system.h ****         SRAM_D2,
  71:../../libDaisy/src/sys/system.h ****         SRAM_D3,
  72:../../libDaisy/src/sys/system.h ****         SDRAM,
  73:../../libDaisy/src/sys/system.h ****         QSPI,
  74:../../libDaisy/src/sys/system.h ****         INVALID_ADDRESS,
  75:../../libDaisy/src/sys/system.h ****     };
  76:../../libDaisy/src/sys/system.h **** 
  77:../../libDaisy/src/sys/system.h ****     System() {}
  78:../../libDaisy/src/sys/system.h ****     ~System() {}
  38              		.loc 2 78 5 view .LVU1
  39              		.loc 2 78 5 is_stmt 0 view .LVU2
  40              	.LBE235:
  41              	.LBB236:
  42              	.LBI236:
  43              		.file 3 "../../libDaisy/src/hid/usb.h"
   1:../../libDaisy/src/hid/usb.h **** #pragma once
   2:../../libDaisy/src/hid/usb.h **** #ifndef DSY_HID_USB_H
   3:../../libDaisy/src/hid/usb.h **** #define DSY_HID_USB_H
   4:../../libDaisy/src/hid/usb.h **** #include <stdint.h>
   5:../../libDaisy/src/hid/usb.h **** #include <stdlib.h>
   6:../../libDaisy/src/hid/usb.h **** 
   7:../../libDaisy/src/hid/usb.h **** namespace daisy
   8:../../libDaisy/src/hid/usb.h **** /** @addtogroup human_interface
   9:../../libDaisy/src/hid/usb.h ****     @{
  10:../../libDaisy/src/hid/usb.h **** */
  11:../../libDaisy/src/hid/usb.h **** 
  12:../../libDaisy/src/hid/usb.h **** {
  13:../../libDaisy/src/hid/usb.h **** /** 
  14:../../libDaisy/src/hid/usb.h ****     @brief Interface for initializing and using the USB Peripherals on the daisy
  15:../../libDaisy/src/hid/usb.h ****     @author Stephen Hensley
  16:../../libDaisy/src/hid/usb.h ****     @date December 2019
  17:../../libDaisy/src/hid/usb.h **** */
  18:../../libDaisy/src/hid/usb.h **** class UsbHandle
  19:../../libDaisy/src/hid/usb.h **** {
  20:../../libDaisy/src/hid/usb.h ****   public:
  21:../../libDaisy/src/hid/usb.h ****     /** Return values for USBHandle Functions */
  22:../../libDaisy/src/hid/usb.h ****     enum class Result
  23:../../libDaisy/src/hid/usb.h ****     {
  24:../../libDaisy/src/hid/usb.h ****         OK,
  25:../../libDaisy/src/hid/usb.h ****         ERR,
  26:../../libDaisy/src/hid/usb.h ****     };
  27:../../libDaisy/src/hid/usb.h **** 
  28:../../libDaisy/src/hid/usb.h ****     /** Specified which of the two USB Peripherals to initialize. */
  29:../../libDaisy/src/hid/usb.h ****     enum UsbPeriph
ARM GAS  C:\Users\jcjco\AppData\Local\Temp\ccocbARg.s 			page 4


  30:../../libDaisy/src/hid/usb.h ****     {
  31:../../libDaisy/src/hid/usb.h ****         FS_INTERNAL, /**< Internal pin */
  32:../../libDaisy/src/hid/usb.h ****         FS_EXTERNAL, /**< FS External D+ pin is Pin 38 (GPIO32). FS External D- pin is Pin 37 (GPIO
  33:../../libDaisy/src/hid/usb.h ****         FS_BOTH,     /**< Both */
  34:../../libDaisy/src/hid/usb.h ****     };
  35:../../libDaisy/src/hid/usb.h **** 
  36:../../libDaisy/src/hid/usb.h **** 
  37:../../libDaisy/src/hid/usb.h ****     /** Function called upon reception of a buffer */
  38:../../libDaisy/src/hid/usb.h ****     typedef void (*ReceiveCallback)(uint8_t* buff, uint32_t* len);
  39:../../libDaisy/src/hid/usb.h **** 
  40:../../libDaisy/src/hid/usb.h ****     UsbHandle() {}
  41:../../libDaisy/src/hid/usb.h **** 
  42:../../libDaisy/src/hid/usb.h ****     ~UsbHandle() {}
  44              		.loc 3 42 5 is_stmt 1 view .LVU3
  45              		.loc 3 42 5 is_stmt 0 view .LVU4
  46              	.LBE236:
  47              	.LBB237:
  48              	.LBI237:
  49              		.file 4 "../../libDaisy/src/per/adc.h"
   1:../../libDaisy/src/per/adc.h **** #pragma once
   2:../../libDaisy/src/per/adc.h **** #ifndef DSY_ADC_H
   3:../../libDaisy/src/per/adc.h **** #define DSY_ADC_H /**< Macro */
   4:../../libDaisy/src/per/adc.h **** #include <stdint.h>
   5:../../libDaisy/src/per/adc.h **** #include <stdlib.h>
   6:../../libDaisy/src/per/adc.h **** #include "daisy_core.h"
   7:../../libDaisy/src/per/adc.h **** #include "per/gpio.h"
   8:../../libDaisy/src/per/adc.h **** 
   9:../../libDaisy/src/per/adc.h **** #define DSY_ADC_MAX_CHANNELS 16 /**< Maximum number of ADC channels */
  10:../../libDaisy/src/per/adc.h **** 
  11:../../libDaisy/src/per/adc.h **** namespace daisy
  12:../../libDaisy/src/per/adc.h **** {
  13:../../libDaisy/src/per/adc.h **** /** @addtogroup per_analog
  14:../../libDaisy/src/per/adc.h ****     @{
  15:../../libDaisy/src/per/adc.h **** */
  16:../../libDaisy/src/per/adc.h **** 
  17:../../libDaisy/src/per/adc.h **** /* While there may not be many configuration options here,
  18:../../libDaisy/src/per/adc.h **** using a struct like this allows us to add more configuration
  19:../../libDaisy/src/per/adc.h **** later without breaking existing functionality.
  20:../../libDaisy/src/per/adc.h **** */
  21:../../libDaisy/src/per/adc.h **** 
  22:../../libDaisy/src/per/adc.h **** /** @brief   Configuration Structure for an ADC Channel 
  23:../../libDaisy/src/per/adc.h ****  *  @details This can be used to configure a a single input, 
  24:../../libDaisy/src/per/adc.h ****  *           or a multiplexed input, allowing up to 8 inputs on 
  25:../../libDaisy/src/per/adc.h ****  *           one channel.
  26:../../libDaisy/src/per/adc.h ****  *  @note    Sharing data lines to multiple muxes _is_ possible, but
  27:../../libDaisy/src/per/adc.h ****  *           each channel sharing data lines must be set to the maximum
  28:../../libDaisy/src/per/adc.h ****  *           number of channels, even if some multiplexers have fewer
  29:../../libDaisy/src/per/adc.h ****  *           inputs connected.
  30:../../libDaisy/src/per/adc.h **** */
  31:../../libDaisy/src/per/adc.h **** struct AdcChannelConfig
  32:../../libDaisy/src/per/adc.h **** {
  33:../../libDaisy/src/per/adc.h ****     /** Which pin to use for multiplexing */
  34:../../libDaisy/src/per/adc.h ****     enum MuxPin
  35:../../libDaisy/src/per/adc.h ****     {
  36:../../libDaisy/src/per/adc.h ****         MUX_SEL_0,    /**< & */
  37:../../libDaisy/src/per/adc.h ****         MUX_SEL_1,    /**< & */
  38:../../libDaisy/src/per/adc.h ****         MUX_SEL_2,    /**< & */
ARM GAS  C:\Users\jcjco\AppData\Local\Temp\ccocbARg.s 			page 5


  39:../../libDaisy/src/per/adc.h ****         MUX_SEL_LAST, /**< & */
  40:../../libDaisy/src/per/adc.h ****     };
  41:../../libDaisy/src/per/adc.h **** 
  42:../../libDaisy/src/per/adc.h ****     /** Initializes a single ADC pin as an ADC. 
  43:../../libDaisy/src/per/adc.h ****     \param pin Pin to init.
  44:../../libDaisy/src/per/adc.h ****      */
  45:../../libDaisy/src/per/adc.h ****     void InitSingle(dsy_gpio_pin pin);
  46:../../libDaisy/src/per/adc.h **** 
  47:../../libDaisy/src/per/adc.h ****     /** 
  48:../../libDaisy/src/per/adc.h ****     Initializes a single ADC pin as a Multiplexed ADC.
  49:../../libDaisy/src/per/adc.h ****     Requires a CD405X Multiplexer connected to the pin.
  50:../../libDaisy/src/per/adc.h ****     You only need to supply the mux pins that are required,
  51:../../libDaisy/src/per/adc.h ****     e.g. a 4052 mux would only require mux_0 and mux_1.
  52:../../libDaisy/src/per/adc.h ****     Internal Callbacks handle the pin addressing.
  53:../../libDaisy/src/per/adc.h ****     \param mux_channels must be 1-8
  54:../../libDaisy/src/per/adc.h ****     \param mux_0 First mux pin
  55:../../libDaisy/src/per/adc.h ****     \param mux_1 Second mux pin
  56:../../libDaisy/src/per/adc.h ****     \param mux_2 Third mux pin
  57:../../libDaisy/src/per/adc.h ****     \param adc_pin &
  58:../../libDaisy/src/per/adc.h ****     */
  59:../../libDaisy/src/per/adc.h ****     void InitMux(dsy_gpio_pin adc_pin,
  60:../../libDaisy/src/per/adc.h ****                  size_t       mux_channels,
  61:../../libDaisy/src/per/adc.h ****                  dsy_gpio_pin mux_0,
  62:../../libDaisy/src/per/adc.h ****                  dsy_gpio_pin mux_1 = {DSY_GPIOX, 0},
  63:../../libDaisy/src/per/adc.h ****                  dsy_gpio_pin mux_2 = {DSY_GPIOX, 0});
  64:../../libDaisy/src/per/adc.h **** 
  65:../../libDaisy/src/per/adc.h ****     dsy_gpio pin_;                   /**< & */
  66:../../libDaisy/src/per/adc.h ****     dsy_gpio mux_pin_[MUX_SEL_LAST]; /**< & */
  67:../../libDaisy/src/per/adc.h ****     uint8_t  mux_channels_;          /**< & */
  68:../../libDaisy/src/per/adc.h **** };
  69:../../libDaisy/src/per/adc.h **** 
  70:../../libDaisy/src/per/adc.h **** /**
  71:../../libDaisy/src/per/adc.h ****    @brief Handler for analog to digital conversion
  72:../../libDaisy/src/per/adc.h **** */
  73:../../libDaisy/src/per/adc.h **** class AdcHandle
  74:../../libDaisy/src/per/adc.h **** {
  75:../../libDaisy/src/per/adc.h ****   public:
  76:../../libDaisy/src/per/adc.h ****     /** Supported oversampling amounts */
  77:../../libDaisy/src/per/adc.h ****     enum OverSampling
  78:../../libDaisy/src/per/adc.h ****     {
  79:../../libDaisy/src/per/adc.h ****         OVS_NONE, /**< & */
  80:../../libDaisy/src/per/adc.h ****         OVS_4,    /**< & */
  81:../../libDaisy/src/per/adc.h ****         OVS_8,    /**< & */
  82:../../libDaisy/src/per/adc.h ****         OVS_16,   /**< & */
  83:../../libDaisy/src/per/adc.h ****         OVS_32,   /**< & */
  84:../../libDaisy/src/per/adc.h ****         OVS_64,   /**< & */
  85:../../libDaisy/src/per/adc.h ****         OVS_128,  /**< & */
  86:../../libDaisy/src/per/adc.h ****         OVS_256,  /**< & */
  87:../../libDaisy/src/per/adc.h ****         OVS_512,  /**< & */
  88:../../libDaisy/src/per/adc.h ****         OVS_1024, /**< & */
  89:../../libDaisy/src/per/adc.h ****         OVS_LAST, /**< & */
  90:../../libDaisy/src/per/adc.h ****     };
  91:../../libDaisy/src/per/adc.h **** 
  92:../../libDaisy/src/per/adc.h ****     AdcHandle() {}
  93:../../libDaisy/src/per/adc.h ****     ~AdcHandle() {}
  50              		.loc 4 93 5 is_stmt 1 view .LVU5
  51              		.loc 4 93 5 is_stmt 0 view .LVU6
ARM GAS  C:\Users\jcjco\AppData\Local\Temp\ccocbARg.s 			page 6


  52              	.LBE237:
  53              	.LBB238:
  54              	.LBI238:
  55              		.file 5 "../../libDaisy/src/hid/audio.h"
   1:../../libDaisy/src/hid/audio.h **** #ifndef DSY_AUDIO_H
   2:../../libDaisy/src/hid/audio.h **** #define DSY_AUDIO_H /**< & */
   3:../../libDaisy/src/hid/audio.h **** 
   4:../../libDaisy/src/hid/audio.h **** #include "per/sai.h"
   5:../../libDaisy/src/hid/audio.h **** 
   6:../../libDaisy/src/hid/audio.h **** namespace daisy
   7:../../libDaisy/src/hid/audio.h **** {
   8:../../libDaisy/src/hid/audio.h **** /** @brief Audio Engine Handle
   9:../../libDaisy/src/hid/audio.h ****  *  @ingroup audio 
  10:../../libDaisy/src/hid/audio.h ****  *  @details This class allows for higher level access to an audio engine.
  11:../../libDaisy/src/hid/audio.h ****  *           If you're using a SOM like the DaisySeed or DaisyPatchSM (or any 
  12:../../libDaisy/src/hid/audio.h ****  *            board that includes one of those objects) then the intialization
  13:../../libDaisy/src/hid/audio.h ****  *            is already taken  care of.
  14:../../libDaisy/src/hid/audio.h ****  *           If you're setting up your own custom hardware, or need to make changes
  15:../../libDaisy/src/hid/audio.h ****  *           you will have to take the following steps:
  16:../../libDaisy/src/hid/audio.h ****  *             1. Create and Initialize an SaiHandle or two depending on your requirements
  17:../../libDaisy/src/hid/audio.h ****  *             2. Initialize the Audio Handle with the desired settings and the Initialized SaiHand
  18:../../libDaisy/src/hid/audio.h ****  *             3. If the connected codec requires special configuration or initialization, do so
  19:../../libDaisy/src/hid/audio.h ****  *             4. Write a callback method using either the AudioCallback or the InterleavingAudioCa
  20:../../libDaisy/src/hid/audio.h ****  *             5. Start the Audio using one of the StartAudio function
  21:../../libDaisy/src/hid/audio.h ****  */
  22:../../libDaisy/src/hid/audio.h **** class AudioHandle
  23:../../libDaisy/src/hid/audio.h **** {
  24:../../libDaisy/src/hid/audio.h ****   public:
  25:../../libDaisy/src/hid/audio.h ****     /** Manually configurable details about the Audio Engine */
  26:../../libDaisy/src/hid/audio.h ****     /** TODO: Figure out how to get samplerate in here. */
  27:../../libDaisy/src/hid/audio.h ****     struct Config
  28:../../libDaisy/src/hid/audio.h ****     {
  29:../../libDaisy/src/hid/audio.h ****         /** number of samples to process per callback */
  30:../../libDaisy/src/hid/audio.h ****         size_t blocksize;
  31:../../libDaisy/src/hid/audio.h **** 
  32:../../libDaisy/src/hid/audio.h ****         /**< Sample rate of audio */
  33:../../libDaisy/src/hid/audio.h ****         SaiHandle::Config::SampleRate samplerate;
  34:../../libDaisy/src/hid/audio.h **** 
  35:../../libDaisy/src/hid/audio.h ****         /** factor for adjustment before and after callback for hardware that may have extra headro
  36:../../libDaisy/src/hid/audio.h ****         float postgain;
  37:../../libDaisy/src/hid/audio.h **** 
  38:../../libDaisy/src/hid/audio.h ****         /** factor for additional one-sided compensation to audio path for hardware that may
  39:../../libDaisy/src/hid/audio.h ****          *  have unequal input/output ranges
  40:../../libDaisy/src/hid/audio.h ****          */
  41:../../libDaisy/src/hid/audio.h ****         float output_compensation;
  42:../../libDaisy/src/hid/audio.h **** 
  43:../../libDaisy/src/hid/audio.h ****         /** Sets default values for config struct */
  44:../../libDaisy/src/hid/audio.h ****         Config()
  45:../../libDaisy/src/hid/audio.h ****         : blocksize(48),
  46:../../libDaisy/src/hid/audio.h ****           samplerate(SaiHandle::Config::SampleRate::SAI_48KHZ),
  47:../../libDaisy/src/hid/audio.h ****           postgain(1.f),
  48:../../libDaisy/src/hid/audio.h ****           output_compensation(1.f)
  49:../../libDaisy/src/hid/audio.h ****         {
  50:../../libDaisy/src/hid/audio.h ****         }
  51:../../libDaisy/src/hid/audio.h ****     };
  52:../../libDaisy/src/hid/audio.h **** 
  53:../../libDaisy/src/hid/audio.h ****     enum class Result
ARM GAS  C:\Users\jcjco\AppData\Local\Temp\ccocbARg.s 			page 7


  54:../../libDaisy/src/hid/audio.h ****     {
  55:../../libDaisy/src/hid/audio.h ****         OK,
  56:../../libDaisy/src/hid/audio.h ****         ERR,
  57:../../libDaisy/src/hid/audio.h ****     };
  58:../../libDaisy/src/hid/audio.h **** 
  59:../../libDaisy/src/hid/audio.h ****     /** Non-Interleaving input buffer
  60:../../libDaisy/src/hid/audio.h ****      * Buffer arranged by float[chn][sample] 
  61:../../libDaisy/src/hid/audio.h ****      * const so that the user can't modify the input
  62:../../libDaisy/src/hid/audio.h ****      */
  63:../../libDaisy/src/hid/audio.h ****     typedef const float* const* InputBuffer;
  64:../../libDaisy/src/hid/audio.h **** 
  65:../../libDaisy/src/hid/audio.h ****     /** Non-Interleaving output buffer
  66:../../libDaisy/src/hid/audio.h ****      * Arranged by float[chn][sample] 
  67:../../libDaisy/src/hid/audio.h ****      */
  68:../../libDaisy/src/hid/audio.h ****     typedef float** OutputBuffer;
  69:../../libDaisy/src/hid/audio.h **** 
  70:../../libDaisy/src/hid/audio.h ****     /** Type for a Non-Interleaving audio callback 
  71:../../libDaisy/src/hid/audio.h ****      * Non-Interleaving audio callbacks in daisy will be of this type
  72:../../libDaisy/src/hid/audio.h ****      */
  73:../../libDaisy/src/hid/audio.h ****     typedef void (*AudioCallback)(InputBuffer  in,
  74:../../libDaisy/src/hid/audio.h ****                                   OutputBuffer out,
  75:../../libDaisy/src/hid/audio.h ****                                   size_t       size);
  76:../../libDaisy/src/hid/audio.h **** 
  77:../../libDaisy/src/hid/audio.h ****     /** Interleaving Input buffer
  78:../../libDaisy/src/hid/audio.h ****      ** audio is prepared as { L0, R0, L1, R1, . . . LN, RN }]
  79:../../libDaisy/src/hid/audio.h ****      ** this is const, as the user shouldn't modify it
  80:../../libDaisy/src/hid/audio.h ****     */
  81:../../libDaisy/src/hid/audio.h ****     typedef const float* InterleavingInputBuffer;
  82:../../libDaisy/src/hid/audio.h **** 
  83:../../libDaisy/src/hid/audio.h ****     /** Interleaving Output buffer 
  84:../../libDaisy/src/hid/audio.h ****      ** audio is prepared as { L0, R0, L1, R1, . . . LN, RN }
  85:../../libDaisy/src/hid/audio.h ****     */
  86:../../libDaisy/src/hid/audio.h ****     typedef float* InterleavingOutputBuffer;
  87:../../libDaisy/src/hid/audio.h **** 
  88:../../libDaisy/src/hid/audio.h ****     /** Interleaving Audio Callback 
  89:../../libDaisy/src/hid/audio.h ****      * Interleaving audio callbacks in daisy must be of this type
  90:../../libDaisy/src/hid/audio.h ****      */
  91:../../libDaisy/src/hid/audio.h ****     typedef void (*InterleavingAudioCallback)(InterleavingInputBuffer  in,
  92:../../libDaisy/src/hid/audio.h ****                                               InterleavingOutputBuffer out,
  93:../../libDaisy/src/hid/audio.h ****                                               size_t                   size);
  94:../../libDaisy/src/hid/audio.h **** 
  95:../../libDaisy/src/hid/audio.h ****     AudioHandle() : pimpl_(nullptr) {}
  96:../../libDaisy/src/hid/audio.h ****     ~AudioHandle() {}
  56              		.loc 5 96 5 is_stmt 1 view .LVU7
  57              		.loc 5 96 5 is_stmt 0 view .LVU8
  58              	.LBE238:
  59              		.loc 1 22 19 view .LVU9
  60 0000 7047     		bx	lr
  61              		.cfi_endproc
  62              	.LFE2528:
  64              		.weak	_ZN5daisy9DaisySeedD1Ev
  65              		.thumb_set _ZN5daisy9DaisySeedD1Ev,_ZN5daisy9DaisySeedD2Ev
  66 0002 00BF     		.section	.text._ZN7VASynthD2Ev,"axG",%progbits,_ZN7VASynthD5Ev,comdat
  67              		.align	1
  68              		.p2align 2,,3
  69              		.weak	_ZN7VASynthD2Ev
  70              		.syntax unified
ARM GAS  C:\Users\jcjco\AppData\Local\Temp\ccocbARg.s 			page 8


  71              		.thumb
  72              		.thumb_func
  73              		.fpu fpv5-d16
  75              	_ZN7VASynthD2Ev:
  76              	.LVL1:
  77              	.LFB4790:
  78              		.file 6 "vasynth.h"
   1:vasynth.h     **** #pragma once
   2:vasynth.h     **** #ifndef DSY_VAVOICE_H
   3:vasynth.h     **** #define DSY_VAVOICE_H
   4:vasynth.h     **** 
   5:vasynth.h     **** #include "daisysp.h"
   6:vasynth.h     **** 
   7:vasynth.h     **** #include "main.h"
   8:vasynth.h     **** 
   9:vasynth.h     **** // preset
  10:vasynth.h     **** #define PRESET_MAX 1
  11:vasynth.h     **** 
  12:vasynth.h     **** // waveforms
  13:vasynth.h     **** #define WAVE_TRI 1
  14:vasynth.h     **** #define WAVE_SAW 2
  15:vasynth.h     **** #define WAVE_SQUARE 4
  16:vasynth.h     **** #define WAVE_POLYBLEP_SAW 6 
  17:vasynth.h     **** 
  18:vasynth.h     **** using namespace daisy;
  19:vasynth.h     **** using namespace daisysp;
  20:vasynth.h     **** using namespace infrasonic;
  21:vasynth.h     **** 
  22:vasynth.h     **** typedef struct
  23:vasynth.h     **** {
  24:vasynth.h     **** 	// config
  25:vasynth.h     **** 	uint8_t waveform;
  26:vasynth.h     **** 	float osc_mix;
  27:vasynth.h     **** 	float detune;
  28:vasynth.h     **** 	float osc_pw;
  29:vasynth.h     **** 
  30:vasynth.h     **** 	uint8_t osc2_waveform;
  31:vasynth.h     **** 	float osc2_detune;
  32:vasynth.h     **** 	float osc2_transpose;
  33:vasynth.h     **** 	float osc2_pw;
  34:vasynth.h     **** 	
  35:vasynth.h     **** 	float eg_a_attack;
  36:vasynth.h     **** 	float eg_a_decay;
  37:vasynth.h     **** 	float eg_a_sustain; // level
  38:vasynth.h     **** 	float eg_a_release;
  39:vasynth.h     **** 	float eg_f_attack;
  40:vasynth.h     **** 	float eg_f_decay;
  41:vasynth.h     **** 	float eg_f_sustain; // level
  42:vasynth.h     **** 	float eg_f_release;
  43:vasynth.h     **** 	
  44:vasynth.h     **** 	uint8_t lfo_waveform;
  45:vasynth.h     **** 	float lfo_freq;
  46:vasynth.h     **** 	float lfo_amp;
  47:vasynth.h     **** 
  48:vasynth.h     **** 	uint8_t pwmlfo_waveform;
  49:vasynth.h     **** 	float pwmlfo_freq;
  50:vasynth.h     **** 	float pwmlfo_amp;
ARM GAS  C:\Users\jcjco\AppData\Local\Temp\ccocbARg.s 			page 9


  51:vasynth.h     **** 
  52:vasynth.h     **** 	uint8_t pwm2lfo_waveform;
  53:vasynth.h     **** 	float pwm2lfo_freq;
  54:vasynth.h     **** 	float pwm2lfo_amp;
  55:vasynth.h     **** 	
  56:vasynth.h     **** 	uint8_t vcavcflfo_waveform;
  57:vasynth.h     **** 	float vcavcflfo_freq;
  58:vasynth.h     **** 	float vcavcflfo_amp;
  59:vasynth.h     **** 
  60:vasynth.h     **** 	float vcf_kbd_follow;
  61:vasynth.h     **** 	float env_kbd_follow;
  62:vasynth.h     **** 
  63:vasynth.h     **** 	float filter_res;
  64:vasynth.h     **** 	float filter_cutoff;
  65:vasynth.h     **** 	float eg_f_amount;
  66:vasynth.h     **** 	uint8_t vel_select;
  67:vasynth.h     **** 	uint8_t midi_channel;
  68:vasynth.h     **** } VASynthSetting;
  69:vasynth.h     **** 
  70:vasynth.h     **** class VASynth
  71:vasynth.h     **** {
  72:vasynth.h     **** 	public:
  73:vasynth.h     **** 
  74:vasynth.h     ****     VASynth() {}
  75:vasynth.h     ****     ~VASynth() {}
  79              		.loc 6 75 5 is_stmt 1 view -0
  80              		.cfi_startproc
  81              		@ args = 0, pretend = 0, frame = 0
  82              		@ frame_needed = 0, uses_anonymous_args = 0
  83              		@ link register save eliminated.
  84              	.LBB239:
  85              	.LBI239:
  86              		.file 7 "../../DaisySP/Source/Synthesis/oscillator.h"
   1:../../DaisySP/Source/Synthesis/oscillator.h **** #pragma once
   2:../../DaisySP/Source/Synthesis/oscillator.h **** #ifndef DSY_OSCILLATOR_H
   3:../../DaisySP/Source/Synthesis/oscillator.h **** #define DSY_OSCILLATOR_H
   4:../../DaisySP/Source/Synthesis/oscillator.h **** #include <stdint.h>
   5:../../DaisySP/Source/Synthesis/oscillator.h **** #include "Utility/dsp.h"
   6:../../DaisySP/Source/Synthesis/oscillator.h **** #ifdef __cplusplus
   7:../../DaisySP/Source/Synthesis/oscillator.h **** 
   8:../../DaisySP/Source/Synthesis/oscillator.h **** namespace daisysp
   9:../../DaisySP/Source/Synthesis/oscillator.h **** {
  10:../../DaisySP/Source/Synthesis/oscillator.h **** /** Synthesis of several waveforms, including polyBLEP bandlimited waveforms.
  11:../../DaisySP/Source/Synthesis/oscillator.h **** */
  12:../../DaisySP/Source/Synthesis/oscillator.h **** class Oscillator
  13:../../DaisySP/Source/Synthesis/oscillator.h **** {
  14:../../DaisySP/Source/Synthesis/oscillator.h ****   public:
  15:../../DaisySP/Source/Synthesis/oscillator.h ****     Oscillator() {}
  16:../../DaisySP/Source/Synthesis/oscillator.h ****     ~Oscillator() {}
  87              		.loc 7 16 5 view .LVU11
  88              		.loc 7 16 5 is_stmt 0 view .LVU12
  89              	.LBE239:
  90              	.LBB240:
  91              	.LBI240:
  92              		.loc 7 16 5 is_stmt 1 view .LVU13
  93              		.loc 7 16 5 is_stmt 0 view .LVU14
  94              	.LBE240:
ARM GAS  C:\Users\jcjco\AppData\Local\Temp\ccocbARg.s 			page 10


  95              	.LBB241:
  96              	.LBI241:
  97              		.loc 7 16 5 is_stmt 1 view .LVU15
  98              		.loc 7 16 5 is_stmt 0 view .LVU16
  99              	.LBE241:
 100              	.LBB242:
 101              	.LBI242:
 102              		.loc 7 16 5 is_stmt 1 view .LVU17
 103              		.loc 7 16 5 is_stmt 0 view .LVU18
 104              	.LBE242:
 105              		.loc 6 75 17 view .LVU19
 106 0000 7047     		bx	lr
 107              		.cfi_endproc
 108              	.LFE4790:
 110              		.weak	_ZN7VASynthD1Ev
 111              		.thumb_set _ZN7VASynthD1Ev,_ZN7VASynthD2Ev
 112 0002 00BF     		.section	.text._ZN5daisy11MidiHandlerINS_16MidiUsbTransportEED2Ev,"axG",%progbits,_ZN5daisy11MidiH
 113              		.align	1
 114              		.p2align 2,,3
 115              		.weak	_ZN5daisy11MidiHandlerINS_16MidiUsbTransportEED2Ev
 116              		.syntax unified
 117              		.thumb
 118              		.thumb_func
 119              		.fpu fpv5-d16
 121              	_ZN5daisy11MidiHandlerINS_16MidiUsbTransportEED2Ev:
 122              	.LVL2:
 123              	.LFB5388:
 124              		.file 8 "../../libDaisy/src/hid/midi.h"
   1:../../libDaisy/src/hid/midi.h **** #pragma once
   2:../../libDaisy/src/hid/midi.h **** #ifndef DSY_MIDI_H
   3:../../libDaisy/src/hid/midi.h **** #define DSY_MIDI_H
   4:../../libDaisy/src/hid/midi.h **** 
   5:../../libDaisy/src/hid/midi.h **** // TODO: make this adjustable
   6:../../libDaisy/src/hid/midi.h **** #define SYSEX_BUFFER_LEN 128
   7:../../libDaisy/src/hid/midi.h **** 
   8:../../libDaisy/src/hid/midi.h **** #include <stdint.h>
   9:../../libDaisy/src/hid/midi.h **** #include <stdlib.h>
  10:../../libDaisy/src/hid/midi.h **** #include "per/uart.h"
  11:../../libDaisy/src/hid/midi.h **** #include "util/ringbuffer.h"
  12:../../libDaisy/src/hid/midi.h **** #include "hid/MidiEvent.h"
  13:../../libDaisy/src/hid/midi.h **** #include "hid/usb_midi.h"
  14:../../libDaisy/src/hid/midi.h **** #include "sys/system.h"
  15:../../libDaisy/src/hid/midi.h **** 
  16:../../libDaisy/src/hid/midi.h **** namespace daisy
  17:../../libDaisy/src/hid/midi.h **** {
  18:../../libDaisy/src/hid/midi.h **** /** @brief   Transport layer for sending and receiving MIDI data over UART 
  19:../../libDaisy/src/hid/midi.h ****  *  @details This is the mode of communication used for TRS and DIN MIDI
  20:../../libDaisy/src/hid/midi.h ****  *  @ingroup midi
  21:../../libDaisy/src/hid/midi.h **** */
  22:../../libDaisy/src/hid/midi.h **** class MidiUartTransport
  23:../../libDaisy/src/hid/midi.h **** {
  24:../../libDaisy/src/hid/midi.h ****   public:
  25:../../libDaisy/src/hid/midi.h ****     MidiUartTransport() {}
  26:../../libDaisy/src/hid/midi.h ****     ~MidiUartTransport() {}
  27:../../libDaisy/src/hid/midi.h **** 
  28:../../libDaisy/src/hid/midi.h ****     struct Config
  29:../../libDaisy/src/hid/midi.h ****     {
ARM GAS  C:\Users\jcjco\AppData\Local\Temp\ccocbARg.s 			page 11


  30:../../libDaisy/src/hid/midi.h ****         UartHandler::Config::Peripheral periph;
  31:../../libDaisy/src/hid/midi.h ****         dsy_gpio_pin                    rx;
  32:../../libDaisy/src/hid/midi.h ****         dsy_gpio_pin                    tx;
  33:../../libDaisy/src/hid/midi.h **** 
  34:../../libDaisy/src/hid/midi.h ****         Config()
  35:../../libDaisy/src/hid/midi.h ****         {
  36:../../libDaisy/src/hid/midi.h ****             periph = UartHandler::Config::Peripheral::USART_1;
  37:../../libDaisy/src/hid/midi.h ****             rx     = {DSY_GPIOB, 7};
  38:../../libDaisy/src/hid/midi.h ****             tx     = {DSY_GPIOB, 6};
  39:../../libDaisy/src/hid/midi.h ****         }
  40:../../libDaisy/src/hid/midi.h ****     };
  41:../../libDaisy/src/hid/midi.h **** 
  42:../../libDaisy/src/hid/midi.h ****     inline void Init(Config config)
  43:../../libDaisy/src/hid/midi.h ****     {
  44:../../libDaisy/src/hid/midi.h ****         UartHandler::Config uart_config;
  45:../../libDaisy/src/hid/midi.h **** 
  46:../../libDaisy/src/hid/midi.h ****         //defaults
  47:../../libDaisy/src/hid/midi.h ****         uart_config.baudrate   = 31250;
  48:../../libDaisy/src/hid/midi.h ****         uart_config.stopbits   = UartHandler::Config::StopBits::BITS_1;
  49:../../libDaisy/src/hid/midi.h ****         uart_config.parity     = UartHandler::Config::Parity::NONE;
  50:../../libDaisy/src/hid/midi.h ****         uart_config.mode       = UartHandler::Config::Mode::TX_RX;
  51:../../libDaisy/src/hid/midi.h ****         uart_config.wordlength = UartHandler::Config::WordLength::BITS_8;
  52:../../libDaisy/src/hid/midi.h **** 
  53:../../libDaisy/src/hid/midi.h ****         //user settings
  54:../../libDaisy/src/hid/midi.h ****         uart_config.periph        = config.periph;
  55:../../libDaisy/src/hid/midi.h ****         uart_config.pin_config.rx = config.rx;
  56:../../libDaisy/src/hid/midi.h ****         uart_config.pin_config.tx = config.tx;
  57:../../libDaisy/src/hid/midi.h **** 
  58:../../libDaisy/src/hid/midi.h ****         uart_.Init(uart_config);
  59:../../libDaisy/src/hid/midi.h ****     }
  60:../../libDaisy/src/hid/midi.h **** 
  61:../../libDaisy/src/hid/midi.h ****     inline void    StartRx() { uart_.StartRx(); }
  62:../../libDaisy/src/hid/midi.h ****     inline size_t  Readable() { return uart_.Readable(); }
  63:../../libDaisy/src/hid/midi.h ****     inline uint8_t Rx() { return uart_.PopRx(); }
  64:../../libDaisy/src/hid/midi.h ****     inline bool    RxActive() { return uart_.RxActive(); }
  65:../../libDaisy/src/hid/midi.h ****     inline void    FlushRx() { uart_.FlushRx(); }
  66:../../libDaisy/src/hid/midi.h ****     inline void    Tx(uint8_t* buff, size_t size) { uart_.PollTx(buff, size); }
  67:../../libDaisy/src/hid/midi.h **** 
  68:../../libDaisy/src/hid/midi.h ****   private:
  69:../../libDaisy/src/hid/midi.h ****     UartHandler uart_;
  70:../../libDaisy/src/hid/midi.h **** };
  71:../../libDaisy/src/hid/midi.h **** 
  72:../../libDaisy/src/hid/midi.h **** /** 
  73:../../libDaisy/src/hid/midi.h ****     @brief Simple MIDI Handler \n 
  74:../../libDaisy/src/hid/midi.h ****     Parses bytes from an input into valid MidiEvents. \n 
  75:../../libDaisy/src/hid/midi.h ****     The MidiEvents fill a FIFO queue that the user can pop messages from.
  76:../../libDaisy/src/hid/midi.h ****     @author shensley
  77:../../libDaisy/src/hid/midi.h ****     @date March 2020
  78:../../libDaisy/src/hid/midi.h ****     @ingroup midi
  79:../../libDaisy/src/hid/midi.h **** */
  80:../../libDaisy/src/hid/midi.h **** template <typename Transport>
  81:../../libDaisy/src/hid/midi.h **** class MidiHandler
  82:../../libDaisy/src/hid/midi.h **** {
  83:../../libDaisy/src/hid/midi.h ****   public:
  84:../../libDaisy/src/hid/midi.h ****     MidiHandler() {}
  85:../../libDaisy/src/hid/midi.h ****     ~MidiHandler() {}
 125              		.loc 8 85 5 is_stmt 1 view -0
ARM GAS  C:\Users\jcjco\AppData\Local\Temp\ccocbARg.s 			page 12


 126              		.cfi_startproc
 127              		@ args = 0, pretend = 0, frame = 0
 128              		@ frame_needed = 0, uses_anonymous_args = 0
 129              		@ link register save eliminated.
 130              	.LBB243:
 131              	.LBI243:
 132              		.file 9 "../../libDaisy/src/hid/usb_midi.h"
   1:../../libDaisy/src/hid/usb_midi.h **** #pragma once
   2:../../libDaisy/src/hid/usb_midi.h **** #ifndef __DSY_MIDIUSBTRANSPORT_H__
   3:../../libDaisy/src/hid/usb_midi.h **** #define __DSY_MIDIUSBTRANSPORT_H__
   4:../../libDaisy/src/hid/usb_midi.h **** 
   5:../../libDaisy/src/hid/usb_midi.h **** #include "hid/usb.h"
   6:../../libDaisy/src/hid/usb_midi.h **** #include "sys/system.h"
   7:../../libDaisy/src/hid/usb_midi.h **** #include "util/ringbuffer.h"
   8:../../libDaisy/src/hid/usb_midi.h **** 
   9:../../libDaisy/src/hid/usb_midi.h **** namespace daisy
  10:../../libDaisy/src/hid/usb_midi.h **** {
  11:../../libDaisy/src/hid/usb_midi.h **** /** @brief USB Transport for MIDI 
  12:../../libDaisy/src/hid/usb_midi.h ****  *  @ingroup midi
  13:../../libDaisy/src/hid/usb_midi.h ****  */
  14:../../libDaisy/src/hid/usb_midi.h **** class MidiUsbTransport
  15:../../libDaisy/src/hid/usb_midi.h **** {
  16:../../libDaisy/src/hid/usb_midi.h ****   public:
  17:../../libDaisy/src/hid/usb_midi.h ****     // MidiUsbTransport() {}
  18:../../libDaisy/src/hid/usb_midi.h ****     ~MidiUsbTransport() {}
 133              		.loc 9 18 5 view .LVU21
 134              		.loc 9 18 5 is_stmt 0 view .LVU22
 135              	.LBE243:
 136              		.loc 8 85 21 view .LVU23
 137 0000 7047     		bx	lr
 138              		.cfi_endproc
 139              	.LFE5388:
 141              		.weak	_ZN5daisy11MidiHandlerINS_16MidiUsbTransportEED1Ev
 142              		.thumb_set _ZN5daisy11MidiHandlerINS_16MidiUsbTransportEED1Ev,_ZN5daisy11MidiHandlerINS_16MidiUsbT
 143 0002 00BF     		.section	.text._ZN7daisysp9DelayLineIfLj48000EED2Ev,"axG",%progbits,_ZN7daisysp9DelayLineIfLj48000
 144              		.align	1
 145              		.p2align 2,,3
 146              		.weak	_ZN7daisysp9DelayLineIfLj48000EED2Ev
 147              		.syntax unified
 148              		.thumb
 149              		.thumb_func
 150              		.fpu fpv5-d16
 152              	_ZN7daisysp9DelayLineIfLj48000EED2Ev:
 153              	.LVL3:
 154              	.LFB5391:
 155              		.file 10 "../../DaisySP/Source/Utility/delayline.h"
   1:../../DaisySP/Source/Utility/delayline.h **** #pragma once
   2:../../DaisySP/Source/Utility/delayline.h **** #ifndef DSY_DELAY_H
   3:../../DaisySP/Source/Utility/delayline.h **** #define DSY_DELAY_H
   4:../../DaisySP/Source/Utility/delayline.h **** #include <stdlib.h>
   5:../../DaisySP/Source/Utility/delayline.h **** #include <stdint.h>
   6:../../DaisySP/Source/Utility/delayline.h **** namespace daisysp
   7:../../DaisySP/Source/Utility/delayline.h **** {
   8:../../DaisySP/Source/Utility/delayline.h **** /** Simple Delay line.
   9:../../DaisySP/Source/Utility/delayline.h **** November 2019
  10:../../DaisySP/Source/Utility/delayline.h **** 
  11:../../DaisySP/Source/Utility/delayline.h **** Converted to Template December 2019
ARM GAS  C:\Users\jcjco\AppData\Local\Temp\ccocbARg.s 			page 13


  12:../../DaisySP/Source/Utility/delayline.h **** 
  13:../../DaisySP/Source/Utility/delayline.h **** declaration example: (1 second of floats)
  14:../../DaisySP/Source/Utility/delayline.h **** 
  15:../../DaisySP/Source/Utility/delayline.h **** DelayLine<float, SAMPLE_RATE> del;
  16:../../DaisySP/Source/Utility/delayline.h **** 
  17:../../DaisySP/Source/Utility/delayline.h **** By: shensley
  18:../../DaisySP/Source/Utility/delayline.h **** */
  19:../../DaisySP/Source/Utility/delayline.h **** template <typename T, size_t max_size>
  20:../../DaisySP/Source/Utility/delayline.h **** class DelayLine
  21:../../DaisySP/Source/Utility/delayline.h **** {
  22:../../DaisySP/Source/Utility/delayline.h ****   public:
  23:../../DaisySP/Source/Utility/delayline.h ****     DelayLine() {}
  24:../../DaisySP/Source/Utility/delayline.h ****     ~DelayLine() {}
 156              		.loc 10 24 5 is_stmt 1 view -0
 157              		.cfi_startproc
 158              		@ args = 0, pretend = 0, frame = 0
 159              		@ frame_needed = 0, uses_anonymous_args = 0
 160              		@ link register save eliminated.
 161              		.loc 10 24 19 is_stmt 0 view .LVU25
 162 0000 7047     		bx	lr
 163              		.cfi_endproc
 164              	.LFE5391:
 166              		.weak	_ZN7daisysp9DelayLineIfLj48000EED1Ev
 167              		.thumb_set _ZN7daisysp9DelayLineIfLj48000EED1Ev,_ZN7daisysp9DelayLineIfLj48000EED2Ev
 168              		.section	.text._Z13AudioCallbackPKfPfj,"ax",%progbits
 169              		.align	1
 170              		.p2align 2,,3
 171              		.global	_Z13AudioCallbackPKfPfj
 172              		.syntax unified
 173              		.thumb
 174              		.thumb_func
 175              		.fpu fpv5-d16
 177              	_Z13AudioCallbackPKfPfj:
 178              	.LVL4:
 179              	.LFB4792:
 180              		.file 11 "main.cpp"
   1:main.cpp      **** /*This is code modified by Jacob August Colburn based on the code created by those credited below,
   2:main.cpp      **** it seeks to make the midi implimentation more universal at the moment, or at the least deployed in 
   3:main.cpp      **** my nektar impact lx49 (non plus) can handle.
   4:main.cpp      **** /*
   5:main.cpp      **** 
   6:main.cpp      **** 
   7:main.cpp      **** /*
   8:main.cpp      **** This code is a modification of OscPocketD/VASynth, created by Staffan Melin, staffan.melin@oscillat
   9:main.cpp      **** It was later modified by (Steven @moonfriendsynth) to work with the Daisy Pod.
  10:main.cpp      **** I (Christopher @Nettech15) have modified it further to run on the Daisy Seed without the use of the
  11:main.cpp      **** Synth parameters are now controlled by a Miditech i2-61 midi keyboard.
  12:main.cpp      **** Feel free to copy, modify, and improve this code to match your equipment and sound requirements.
  13:main.cpp      **** */
  14:main.cpp      **** 
  15:main.cpp      **** #include "daisy_seed.h"
  16:main.cpp      **** #include "daisysp.h"
  17:main.cpp      **** 
  18:main.cpp      **** #include "main.h"
  19:main.cpp      **** #include "vasynth.h"
  20:main.cpp      **** 
  21:main.cpp      **** using namespace daisy;
ARM GAS  C:\Users\jcjco\AppData\Local\Temp\ccocbARg.s 			page 14


  22:main.cpp      **** using namespace daisysp;
  23:main.cpp      **** 
  24:main.cpp      **** // globals
  25:main.cpp      **** DaisySeed hardware;
  26:main.cpp      **** MidiUsbHandler midi;
  27:main.cpp      **** float sysSampleRate;
  28:main.cpp      **** float sysCallbackRate;
  29:main.cpp      **** extern uint8_t preset_max;
  30:main.cpp      **** extern VASynthSetting preset_setting[PRESET_MAX];
  31:main.cpp      **** 
  32:main.cpp      **** uint8_t param_;
  33:main.cpp      **** float pitch_bend = 1.0f;
  34:main.cpp      **** float master_tune = 0.0f;
  35:main.cpp      **** 
  36:main.cpp      **** // sound
  37:main.cpp      **** VASynth vasynth;
  38:main.cpp      **** uint8_t gPlay = PLAY_ON;
  39:main.cpp      **** 
  40:main.cpp      **** // fx
  41:main.cpp      **** DelayLine<float, DELAY_MAX> DSY_SDRAM_BSS delay_;
  42:main.cpp      **** 
  43:main.cpp      **** // sequencer
  44:main.cpp      **** void SequencerPlay(uint16_t);
  45:main.cpp      **** void SequencerRecord(uint8_t, uint8_t);
  46:main.cpp      **** void SeqTimer_Config(void);
  47:main.cpp      **** void writeSram(uint32_t, uint8_t);
  48:main.cpp      **** uint8_t readSram(uint32_t);
  49:main.cpp      **** void writeSramWord(uint32_t, uint16_t);
  50:main.cpp      **** uint16_t readSramWord(uint32_t);
  51:main.cpp      **** 
  52:main.cpp      **** uint16_t seqclock = 0, seqtime = 0, seqmode = 0, seqmsg;
  53:main.cpp      **** uint16_t seqnote, seqvelocity;
  54:main.cpp      **** uint32_t seqmem = 0x00010000;
  55:main.cpp      **** 
  56:main.cpp      **** // audio callback
  57:main.cpp      **** 
  58:main.cpp      **** void AudioCallback(AudioHandle::InterleavingInputBuffer  in,
  59:main.cpp      ****                    AudioHandle::InterleavingOutputBuffer out,
  60:main.cpp      ****                    size_t                                size)
  61:main.cpp      **** {	
 181              		.loc 11 61 1 is_stmt 1 view -0
 182              		.cfi_startproc
 183              		@ args = 0, pretend = 0, frame = 8
 184              		@ frame_needed = 0, uses_anonymous_args = 0
  62:main.cpp      **** 	float voice_left, voice_right;
 185              		.loc 11 62 2 view .LVU27
  63:main.cpp      **** 	
  64:main.cpp      **** 	for (size_t n = 0; n < size; n += 2)
 186              		.loc 11 64 2 view .LVU28
 187              	.LBB244:
 188              		.loc 11 64 23 view .LVU29
 189 0000 AAB3     		cbz	r2, .L16
 190              	.LBE244:
  61:main.cpp      **** 	float voice_left, voice_right;
 191              		.loc 11 61 1 is_stmt 0 view .LVU30
 192 0002 2DE9F041 		push	{r4, r5, r6, r7, r8, lr}
 193              		.cfi_def_cfa_offset 24
ARM GAS  C:\Users\jcjco\AppData\Local\Temp\ccocbARg.s 			page 15


 194              		.cfi_offset 4, -24
 195              		.cfi_offset 5, -20
 196              		.cfi_offset 6, -16
 197              		.cfi_offset 7, -12
 198              		.cfi_offset 8, -8
 199              		.cfi_offset 14, -4
 200 0006 1746     		mov	r7, r2
 201 0008 82B0     		sub	sp, sp, #8
 202              		.cfi_def_cfa_offset 32
 203 000a 0646     		mov	r6, r0
 204 000c 0C46     		mov	r4, r1
 205              	.LBB245:
 206              		.loc 11 64 14 view .LVU31
 207 000e 0025     		movs	r5, #0
 208 0010 DFF86080 		ldr	r8, .L20+4
 209 0014 07E0     		b	.L10
 210              	.LVL5:
 211              	.L8:
 212              		.loc 11 64 33 view .LVU32
 213 0016 0235     		adds	r5, r5, #2
 214              	.LVL6:
  65:main.cpp      **** 	{	
  66:main.cpp      **** 		if (gPlay == PLAY_ON)
  67:main.cpp      **** 		{			
  68:main.cpp      **** 			vasynth.Process(&voice_left, &voice_right);
  69:main.cpp      **** 			
  70:main.cpp      **** 			out[n] = voice_left + in[n];
  71:main.cpp      **** 			out[n + 1] = voice_right + in[n + 1];
  72:main.cpp      **** 		} 
  73:main.cpp      **** 		else 
  74:main.cpp      **** 		{
  75:main.cpp      **** 			out[n] = 0;
 215              		.loc 11 75 11 view .LVU33
 216 0018 2360     		str	r3, [r4]	@ float
  76:main.cpp      **** 			out[n + 1] = 0;		
 217              		.loc 11 76 4 is_stmt 1 view .LVU34
 218              		.loc 11 76 15 is_stmt 0 view .LVU35
 219 001a 6360     		str	r3, [r4, #4]	@ float
  64:main.cpp      **** 	{	
 220              		.loc 11 64 2 is_stmt 1 view .LVU36
 221              	.LVL7:
  64:main.cpp      **** 	{	
 222              		.loc 11 64 23 view .LVU37
 223 001c 0836     		adds	r6, r6, #8
 224 001e AF42     		cmp	r7, r5
 225 0020 04F10804 		add	r4, r4, #8
 226 0024 20D9     		bls	.L19
 227              	.LVL8:
 228              	.L10:
  66:main.cpp      **** 		{			
 229              		.loc 11 66 3 view .LVU38
  75:main.cpp      **** 			out[n + 1] = 0;		
 230              		.loc 11 75 4 view .LVU39
  66:main.cpp      **** 		{			
 231              		.loc 11 66 3 is_stmt 0 view .LVU40
 232 0026 98F80010 		ldrb	r1, [r8]	@ zero_extendqisi2
  75:main.cpp      **** 			out[n + 1] = 0;		
ARM GAS  C:\Users\jcjco\AppData\Local\Temp\ccocbARg.s 			page 16


 233              		.loc 11 75 11 view .LVU41
 234 002a 0023     		movs	r3, #0
  66:main.cpp      **** 		{			
 235              		.loc 11 66 3 view .LVU42
 236 002c 0129     		cmp	r1, #1
 237 002e F2D1     		bne	.L8
  68:main.cpp      **** 			
 238              		.loc 11 68 4 is_stmt 1 view .LVU43
  68:main.cpp      **** 			
 239              		.loc 11 68 19 is_stmt 0 view .LVU44
 240 0030 01AA     		add	r2, sp, #4
 241 0032 6946     		mov	r1, sp
 242 0034 0E48     		ldr	r0, .L20
  64:main.cpp      **** 	{	
 243              		.loc 11 64 33 view .LVU45
 244 0036 0235     		adds	r5, r5, #2
 245              	.LVL9:
  68:main.cpp      **** 			
 246              		.loc 11 68 19 view .LVU46
 247 0038 FFF7FEFF 		bl	_ZN7VASynth7ProcessEPfS0_
 248              	.LVL10:
  70:main.cpp      **** 			out[n + 1] = voice_right + in[n + 1];
 249              		.loc 11 70 4 is_stmt 1 view .LVU47
  70:main.cpp      **** 			out[n + 1] = voice_right + in[n + 1];
 250              		.loc 11 70 24 is_stmt 0 view .LVU48
 251 003c 96ED007A 		vldr.32	s14, [r6]
 252 0040 DDED007A 		vldr.32	s15, [sp]
  64:main.cpp      **** 	{	
 253              		.loc 11 64 23 view .LVU49
 254 0044 AF42     		cmp	r7, r5
  71:main.cpp      **** 		} 
 255              		.loc 11 71 29 view .LVU50
 256 0046 DDED016A 		vldr.32	s13, [sp, #4]
  64:main.cpp      **** 	{	
 257              		.loc 11 64 23 view .LVU51
 258 004a 06F10806 		add	r6, r6, #8
  70:main.cpp      **** 			out[n + 1] = voice_right + in[n + 1];
 259              		.loc 11 70 24 view .LVU52
 260 004e 37EE277A 		vadd.f32	s14, s14, s15
  64:main.cpp      **** 	{	
 261              		.loc 11 64 23 view .LVU53
 262 0052 04F10804 		add	r4, r4, #8
  70:main.cpp      **** 			out[n + 1] = voice_right + in[n + 1];
 263              		.loc 11 70 11 view .LVU54
 264 0056 04ED027A 		vstr.32	s14, [r4, #-8]
  71:main.cpp      **** 		} 
 265              		.loc 11 71 4 is_stmt 1 view .LVU55
  71:main.cpp      **** 		} 
 266              		.loc 11 71 29 is_stmt 0 view .LVU56
 267 005a 56ED017A 		vldr.32	s15, [r6, #-4]
 268 005e 77EEA67A 		vadd.f32	s15, s15, s13
  71:main.cpp      **** 		} 
 269              		.loc 11 71 15 view .LVU57
 270 0062 44ED017A 		vstr.32	s15, [r4, #-4]
  64:main.cpp      **** 	{	
 271              		.loc 11 64 2 is_stmt 1 view .LVU58
 272              	.LVL11:
ARM GAS  C:\Users\jcjco\AppData\Local\Temp\ccocbARg.s 			page 17


  64:main.cpp      **** 	{	
 273              		.loc 11 64 23 view .LVU59
 274 0066 DED8     		bhi	.L10
 275              	.L19:
  64:main.cpp      **** 	{	
 276              		.loc 11 64 23 is_stmt 0 view .LVU60
 277              	.LBE245:
  77:main.cpp      **** 		}		
  78:main.cpp      **** 	}
  79:main.cpp      **** }
 278              		.loc 11 79 1 view .LVU61
 279 0068 02B0     		add	sp, sp, #8
 280              		.cfi_def_cfa_offset 24
 281              		@ sp needed
 282 006a BDE8F081 		pop	{r4, r5, r6, r7, r8, pc}
 283              	.LVL12:
 284              	.L16:
 285              		.cfi_def_cfa_offset 0
 286              		.cfi_restore 4
 287              		.cfi_restore 5
 288              		.cfi_restore 6
 289              		.cfi_restore 7
 290              		.cfi_restore 8
 291              		.cfi_restore 14
 292              		.loc 11 79 1 view .LVU62
 293 006e 7047     		bx	lr
 294              	.L21:
 295              		.align	2
 296              	.L20:
 297 0070 00000000 		.word	.LANCHOR1
 298 0074 00000000 		.word	.LANCHOR0
 299              		.cfi_endproc
 300              	.LFE4792:
 302              		.section	.text._Z13SequencerPlayt.part.0,"ax",%progbits
 303              		.align	1
 304              		.p2align 2,,3
 305              		.syntax unified
 306              		.thumb
 307              		.thumb_func
 308              		.fpu fpv5-d16
 310              	_Z13SequencerPlayt.part.0:
 311              	.LVL13:
 312              	.LFB5394:
  80:main.cpp      **** 
  81:main.cpp      **** 
  82:main.cpp      **** // midi handler
  83:main.cpp      **** void HandleMidiMessage(MidiEvent m)
  84:main.cpp      **** {
  85:main.cpp      ****     switch(m.type)
  86:main.cpp      ****     {
  87:main.cpp      ****         case NoteOn:
  88:main.cpp      ****         {
  89:main.cpp      ****             NoteOnEvent p = m.AsNoteOn();
  90:main.cpp      ****             if ((vasynth.midi_channel_ == MIDI_CHANNEL_ALL) || (p.channel == vasynth.midi_channel_)
  91:main.cpp      **** 			{
  92:main.cpp      **** 				if(seqmode == 1)
  93:main.cpp      **** 				{
ARM GAS  C:\Users\jcjco\AppData\Local\Temp\ccocbARg.s 			page 18


  94:main.cpp      **** 					SequencerRecord((p.note | 0x80), p.velocity);
  95:main.cpp      **** 				}
  96:main.cpp      **** 				vasynth.NoteOn(p.note, p.velocity);
  97:main.cpp      **** 				hardware.SetLed(true);
  98:main.cpp      **** 			}
  99:main.cpp      **** 	        break;
 100:main.cpp      ****         }
 101:main.cpp      ****         case NoteOff:
 102:main.cpp      ****         {
 103:main.cpp      ****             NoteOnEvent p = m.AsNoteOn();
 104:main.cpp      ****             if ((vasynth.midi_channel_ == MIDI_CHANNEL_ALL) || (p.channel == vasynth.midi_channel_)
 105:main.cpp      **** 			{
 106:main.cpp      **** 				if(seqmode == 1)
 107:main.cpp      **** 				{
 108:main.cpp      **** 					SequencerRecord(p.note, 0);
 109:main.cpp      **** 				}
 110:main.cpp      **** 				vasynth.NoteOff(p.note);
 111:main.cpp      **** 				hardware.SetLed(false);
 112:main.cpp      **** 			}			
 113:main.cpp      **** 	        break;
 114:main.cpp      ****         } 
 115:main.cpp      **** 		case PitchBend:
 116:main.cpp      ****         {
 117:main.cpp      ****             PitchBendEvent p = m.AsPitchBend();
 118:main.cpp      ****             if ((vasynth.midi_channel_ == MIDI_CHANNEL_ALL) || (p.channel == vasynth.midi_channel_)
 119:main.cpp      **** 			{
 120:main.cpp      **** 				vasynth.PitchBend(p.value);
 121:main.cpp      **** 			}			
 122:main.cpp      **** 	        break;
 123:main.cpp      ****         } 
 124:main.cpp      ****         case ControlChange:
 125:main.cpp      ****         {
 126:main.cpp      ****             ControlChangeEvent p = m.AsControlChange();
 127:main.cpp      ****             switch(p.control_number)
 128:main.cpp      ****             {
 129:main.cpp      **** 				case 1: // Modulation Wheel
 130:main.cpp      **** 					vasynth.filter_cutoff_ = ((float)p.value / 127.0f) * FILTER_CUTOFF_MAX;
 131:main.cpp      ****                     vasynth.SetFilter();			
 132:main.cpp      **** 						 	break;	
 133:main.cpp      ****                     break;
 134:main.cpp      **** 				{
 135:main.cpp      **** 
 136:main.cpp      **** 						case 119:
 137:main.cpp      **** 						{
 138:main.cpp      **** 							switch(p.value >> 5)
 139:main.cpp      **** 							{
 140:main.cpp      **** 								case 1:
 141:main.cpp      **** 									vasynth.waveform_ = WAVE_TRI;
 142:main.cpp      **** 									break;
 143:main.cpp      **** 								case 4:
 144:main.cpp      **** 									vasynth.waveform_ = WAVE_SAW;
 145:main.cpp      **** 									break;
 146:main.cpp      **** 								case 3:
 147:main.cpp      **** 									vasynth.waveform_ = WAVE_SQUARE;
 148:main.cpp      **** 									break;
 149:main.cpp      **** 								case 2:
 150:main.cpp      **** 									vasynth.waveform_ = WAVE_POLYBLEP_SAW;
ARM GAS  C:\Users\jcjco\AppData\Local\Temp\ccocbARg.s 			page 19


 151:main.cpp      **** 									break;
 152:main.cpp      **** 							}
 153:main.cpp      **** 							vasynth.SetWaveform();
 154:main.cpp      **** 							break;
 155:main.cpp      **** 						}
 156:main.cpp      **** 						case 120:
 157:main.cpp      **** 						{
 158:main.cpp      **** 							switch(p.value >> 5)
 159:main.cpp      **** 							{
 160:main.cpp      **** 								case 1:
 161:main.cpp      **** 									vasynth.osc2_waveform_ = WAVE_TRI;
 162:main.cpp      **** 									break;
 163:main.cpp      **** 								case 2:
 164:main.cpp      **** 									vasynth.osc2_waveform_ = WAVE_SAW;
 165:main.cpp      **** 									break;
 166:main.cpp      **** 								case 3:
 167:main.cpp      **** 									vasynth.osc2_waveform_ = WAVE_SQUARE;
 168:main.cpp      **** 									break;
 169:main.cpp      **** 								case 4:
 170:main.cpp      **** 									vasynth.osc2_waveform_ = WAVE_POLYBLEP_SAW;
 171:main.cpp      **** 									break;
 172:main.cpp      **** 							}
 173:main.cpp      **** 							vasynth.SetWaveform();
 174:main.cpp      **** 							break;
 175:main.cpp      **** 						}
 176:main.cpp      **** 						case 2:
 177:main.cpp      **** 						{
 178:main.cpp      **** 							vasynth.filter_res_ = ((float)p.value / 127.0f);
 179:main.cpp      ****                     		vasynth.SetFilter();
 180:main.cpp      **** 							break;
 181:main.cpp      **** 						}
 182:main.cpp      **** 	//					{					
 183:main.cpp      **** 	//				vasynth.filter_cutoff_ = ((float)p.value / 127.0f) * FILTER_CUTOFF_MAX;
 184:main.cpp      ****      //               vasynth.SetFilter();			
 185:main.cpp      **** 	//					 	break;		
 186:main.cpp      **** 	//				}
 187:main.cpp      **** 						case 3:
 188:main.cpp      **** 						{
 189:main.cpp      **** 							vasynth.osc_mix_ = ((float)p.value / 127.0f);
 190:main.cpp      **** 							break;
 191:main.cpp      **** 						}
 192:main.cpp      **** 						case 4:
 193:main.cpp      **** 						{
 194:main.cpp      **** 							vasynth.osc2_detune_ = ((float)p.value / 255.0f);
 195:main.cpp      **** 							break;
 196:main.cpp      **** 						}
 197:main.cpp      **** 						case 5:
 198:main.cpp      **** 						{
 199:main.cpp      **** 							vasynth.osc2_transpose_ = (1.0f + ((float)p.value / 127.0f));
 200:main.cpp      **** 							break;
 201:main.cpp      **** 						}
 202:main.cpp      **** 						case 6:
 203:main.cpp      **** 							{
 204:main.cpp      **** 							vasynth.eg_f_attack_ = ((float)p.value / 127.0f);
 205:main.cpp      **** 							vasynth.SetEG();
 206:main.cpp      **** 							break;
 207:main.cpp      **** 						}
ARM GAS  C:\Users\jcjco\AppData\Local\Temp\ccocbARg.s 			page 20


 208:main.cpp      **** 					//	{
 209:main.cpp      **** 					//		vasynth.filter_res_ = ((float)p.value / 127.0f);
 210:main.cpp      ****                     //		vasynth.SetFilter();
 211:main.cpp      **** 					//		break;
 212:main.cpp      **** 					//	}
 213:main.cpp      **** 
 214:main.cpp      **** 						// case 7 and 8 can go 
 215:main.cpp      **** 						case 7:
 216:main.cpp      **** 						{
 217:main.cpp      **** 							vasynth.eg_f_attack_ = ((float)p.value / 127.0f);
 218:main.cpp      **** 							vasynth.SetEG();
 219:main.cpp      **** 							break;
 220:main.cpp      **** 						}						
 221:main.cpp      **** 
 222:main.cpp      **** 						case 8:
 223:main.cpp      **** 						{
 224:main.cpp      **** 							vasynth.eg_f_decay_ = ((float)p.value / 127.0f);
 225:main.cpp      **** 							vasynth.SetEG();
 226:main.cpp      **** 							break;
 227:main.cpp      **** 						}
 228:main.cpp      **** 
 229:main.cpp      **** 
 230:main.cpp      **** 
 231:main.cpp      **** 						// find way to multiplex filter/amp EG or matrix?
 232:main.cpp      **** 						case 9:	
 233:main.cpp      **** 							{
 234:main.cpp      **** 							vasynth.eg_f_sustain_ = ((float)p.value / 127.0f);
 235:main.cpp      **** 							vasynth.SetEG();
 236:main.cpp      **** 							break;
 237:main.cpp      **** 						}
 238:main.cpp      **** 
 239:main.cpp      **** 						case 10:
 240:main.cpp      **** 						{
 241:main.cpp      **** 							vasynth.eg_f_release_ = ((float)p.value / 127.0f);
 242:main.cpp      **** 							vasynth.SetEG();
 243:main.cpp      **** 							break;
 244:main.cpp      **** 						}
 245:main.cpp      **** 						case 11:
 246:main.cpp      **** 						{
 247:main.cpp      **** 							vasynth.eg_a_attack_ = ((float)p.value / 127.0f);
 248:main.cpp      **** 							vasynth.SetEG();
 249:main.cpp      **** 							break;
 250:main.cpp      **** 						}
 251:main.cpp      **** 
 252:main.cpp      **** 
 253:main.cpp      **** 						case 12:
 254:main.cpp      **** 						{
 255:main.cpp      **** 							vasynth.eg_a_decay_ = ((float)p.value / 127.0f);
 256:main.cpp      **** 							vasynth.SetEG();
 257:main.cpp      **** 							break;
 258:main.cpp      **** 						}
 259:main.cpp      **** 						case 13:
 260:main.cpp      **** 						{
 261:main.cpp      **** 							vasynth.eg_a_sustain_ = ((float)p.value / 127.0f);
 262:main.cpp      **** 							vasynth.SetEG();
 263:main.cpp      **** 							break;
 264:main.cpp      **** 						}
ARM GAS  C:\Users\jcjco\AppData\Local\Temp\ccocbARg.s 			page 21


 265:main.cpp      **** 						case 14:
 266:main.cpp      **** 						{
 267:main.cpp      **** 							vasynth.eg_a_release_ = ((float)p.value / 127.0f);
 268:main.cpp      **** 							vasynth.SetEG();
 269:main.cpp      **** 							break;
 270:main.cpp      **** 						}
 271:main.cpp      **** 						case 15:
 272:main.cpp      **** 						{
 273:main.cpp      **** 							vasynth.osc_pw_ = ((float)p.value / 255.0f);
 274:main.cpp      **** 							break;
 275:main.cpp      **** 						}
 276:main.cpp      **** 						case 16:
 277:main.cpp      **** 						{
 278:main.cpp      **** 							vasynth.osc2_pw_ = ((float)p.value / 255.0f);
 279:main.cpp      **** 							break;
 280:main.cpp      **** 						}
 281:main.cpp      **** 
 282:main.cpp      **** 					
 283:main.cpp      **** 						case 17:
 284:main.cpp      **** 						{
 285:main.cpp      **** 							vasynth.vcf_kbd_follow_= ((float)p.value / 127.0f);
 286:main.cpp      **** 							break;
 287:main.cpp      **** 						}
 288:main.cpp      **** 						case 18:
 289:main.cpp      **** 						{
 290:main.cpp      **** 							vasynth.env_kbd_follow_ = ((float)p.value / 127.0f);
 291:main.cpp      **** 							break;
 292:main.cpp      **** 						}
 293:main.cpp      **** 					case 20:
 294:main.cpp      **** 						{
 295:main.cpp      **** 							vasynth.filter_res_ = ((float)p.value / 127.0f);
 296:main.cpp      ****                     		vasynth.SetFilter();
 297:main.cpp      **** 							break;
 298:main.cpp      **** 						}
 299:main.cpp      **** 						case 19:
 300:main.cpp      **** 				vasynth.filter_cutoff_ = ((float)p.value / 127.0f) * FILTER_CUTOFF_MAX;
 301:main.cpp      ****                     vasynth.SetFilter();			
 302:main.cpp      **** 					 	break;		
 303:main.cpp      **** 				}
 304:main.cpp      **** 						case 21:
 305:main.cpp      **** 						{
 306:main.cpp      **** 							vasynth.lfo_freq_ = ((float)p.value / 127.0f);
 307:main.cpp      **** 							vasynth.SetLFO();
 308:main.cpp      **** 							break;
 309:main.cpp      **** 						}
 310:main.cpp      **** 						case 22:
 311:main.cpp      **** 						{
 312:main.cpp      **** 							vasynth.pwmlfo_freq_ = ((float)p.value / 127.0f);
 313:main.cpp      **** 							vasynth.SetPWMLFO();
 314:main.cpp      **** 							break;
 315:main.cpp      **** 						}
 316:main.cpp      **** 						case 23:
 317:main.cpp      **** 						{
 318:main.cpp      **** 							vasynth.pwmlfo_amp_ = ((float)p.value / 511.0f);
 319:main.cpp      **** 							vasynth.SetPWMLFO();
 320:main.cpp      **** 							break;
 321:main.cpp      **** 						}
ARM GAS  C:\Users\jcjco\AppData\Local\Temp\ccocbARg.s 			page 22


 322:main.cpp      **** 						case 24:
 323:main.cpp      **** 						{
 324:main.cpp      **** 							vasynth.pwm2lfo_freq_ = ((float)p.value / 127.0f);
 325:main.cpp      **** 							vasynth.SetPWM2LFO();
 326:main.cpp      **** 							break;
 327:main.cpp      **** 						}
 328:main.cpp      **** 						case 25:
 329:main.cpp      **** 						{
 330:main.cpp      **** 							vasynth.pwm2lfo_amp_ = ((float)p.value / 511.0f);
 331:main.cpp      **** 							vasynth.SetPWM2LFO();
 332:main.cpp      **** 							break;
 333:main.cpp      **** 						}
 334:main.cpp      **** 						case 26:
 335:main.cpp      **** 						{
 336:main.cpp      **** 							vasynth.vcavcflfo_freq_ = ((float)p.value / 127.0f);
 337:main.cpp      **** 							vasynth.SetVCAVCFLFO();
 338:main.cpp      **** 							break;
 339:main.cpp      **** 						}
 340:main.cpp      **** 						case 27:
 341:main.cpp      **** 						{
 342:main.cpp      **** 							vasynth.vcavcflfo_amp_ = ((float)p.value / 127.0f);
 343:main.cpp      **** 							vasynth.SetVCAVCFLFO();
 344:main.cpp      **** 							break;
 345:main.cpp      **** 						}
 346:main.cpp      **** 						case 28:
 347:main.cpp      **** 						{
 348:main.cpp      **** 							switch(p.value >> 5)
 349:main.cpp      **** 							{
 350:main.cpp      **** 								case 0:
 351:main.cpp      **** 									vasynth.vcavcflfo_waveform_ = WAVE_TRI;
 352:main.cpp      **** 									break;
 353:main.cpp      **** 								case 1:
 354:main.cpp      **** 									vasynth.vcavcflfo_waveform_ = WAVE_SAW;
 355:main.cpp      **** 									break;
 356:main.cpp      **** 								case 2:
 357:main.cpp      **** 									vasynth.vcavcflfo_waveform_ = WAVE_SQUARE;
 358:main.cpp      **** 									break;
 359:main.cpp      **** 								case 3:
 360:main.cpp      **** 									vasynth.vcavcflfo_waveform_ = WAVE_POLYBLEP_SAW;
 361:main.cpp      **** 									break;
 362:main.cpp      **** 							}
 363:main.cpp      **** 						
 364:main.cpp      **** 						case 35:
 365:main.cpp      **** 						{
 366:main.cpp      **** 							// Sequencer Mode Record
 367:main.cpp      **** 							seqmode = 1;
 368:main.cpp      **** 							seqclock = 0;
 369:main.cpp      **** 							break;
 370:main.cpp      **** 						}
 371:main.cpp      **** 						case 36:
 372:main.cpp      **** 						{
 373:main.cpp      **** 							// Sequencer Mode Record End
 374:main.cpp      **** 							seqmode = 2;
 375:main.cpp      **** 							// Place a time-stamp and stop marker at the current position and stop the sequencer
 376:main.cpp      **** 							writeSramWord(seqmem, seqclock);
 377:main.cpp      **** 							seqmem++;
 378:main.cpp      **** 							seqmem++;
ARM GAS  C:\Users\jcjco\AppData\Local\Temp\ccocbARg.s 			page 23


 379:main.cpp      **** 							writeSramWord(seqmem, 0xFFFF);
 380:main.cpp      **** 							seqmode = 0;
 381:main.cpp      **** 							seqclock = 0;
 382:main.cpp      **** 							seqmem = 0x00010000;
 383:main.cpp      **** 							break;
 384:main.cpp      **** 						}
 385:main.cpp      **** 						case 37:
 386:main.cpp      **** 						{
 387:main.cpp      **** 							// Sequencer Mode Stop
 388:main.cpp      **** 							seqmode = 0;
 389:main.cpp      **** 							seqclock = 0;
 390:main.cpp      **** 							seqmem = 0x00010000;
 391:main.cpp      **** 							break;
 392:main.cpp      **** 						}
 393:main.cpp      **** 						case 38:
 394:main.cpp      **** 						{
 395:main.cpp      **** 							// Sequencer Mode Play
 396:main.cpp      **** 							seqmode = 3;
 397:main.cpp      **** 							seqclock = 0;
 398:main.cpp      **** 							seqmem = 0x00010000;
 399:main.cpp      **** 							break;
 400:main.cpp      **** 						}
 401:main.cpp      **** 				
 402:main.cpp      **** 					}
 403:main.cpp      **** 				}	
 404:main.cpp      **** 
 405:main.cpp      **** 
 406:main.cpp      **** 		}
 407:main.cpp      **** 		default: break;
 408:main.cpp      **** 	}
 409:main.cpp      **** }
 410:main.cpp      **** 
 411:main.cpp      **** void SequencerPlay(uint16_t modenum)
 313              		.loc 11 411 6 is_stmt 1 view -0
 314              		.cfi_startproc
 315              		@ args = 0, pretend = 0, frame = 0
 316              		@ frame_needed = 0, uses_anonymous_args = 0
 412:main.cpp      **** {
 413:main.cpp      **** 	if(modenum == 0)
 414:main.cpp      **** 	{
 415:main.cpp      **** 		seqclock = 0;
 416:main.cpp      **** 		seqmem = 0x00010000;
 417:main.cpp      **** 		return;
 418:main.cpp      **** 	}
 419:main.cpp      **** 	
 420:main.cpp      **** 	if(modenum == 3)
 317              		.loc 11 420 2 view .LVU64
 318 0000 0328     		cmp	r0, #3
 411:main.cpp      **** {
 319              		.loc 11 411 6 is_stmt 0 view .LVU65
 320 0002 2DE9F84F 		push	{r3, r4, r5, r6, r7, r8, r9, r10, fp, lr}
 321              		.cfi_def_cfa_offset 40
 322              		.cfi_offset 3, -40
 323              		.cfi_offset 4, -36
 324              		.cfi_offset 5, -32
 325              		.cfi_offset 6, -28
 326              		.cfi_offset 7, -24
ARM GAS  C:\Users\jcjco\AppData\Local\Temp\ccocbARg.s 			page 24


 327              		.cfi_offset 8, -20
 328              		.cfi_offset 9, -16
 329              		.cfi_offset 10, -12
 330              		.cfi_offset 11, -8
 331              		.cfi_offset 14, -4
 332              		.loc 11 420 2 view .LVU66
 333 0006 08D0     		beq	.L31
 421:main.cpp      **** 	{
 422:main.cpp      **** 		/* Read the time-stamp from SRAM and compare to seqclock*/
 423:main.cpp      **** 		seqtime = readSramWord(seqmem);
 424:main.cpp      **** 		
 425:main.cpp      **** 		while(seqtime == seqclock)
 426:main.cpp      **** 		{
 427:main.cpp      **** 			/* Move pointer to note data */
 428:main.cpp      **** 			seqmem++;
 429:main.cpp      **** 			seqmem++;
 430:main.cpp      **** 			
 431:main.cpp      **** 			/* Read the note from SRAM */
 432:main.cpp      **** 			seqnote = readSram(seqmem);
 433:main.cpp      **** 			seqmsg = seqnote & 0x80;
 434:main.cpp      **** 			seqnote = seqnote & 0x7F;
 435:main.cpp      **** 			seqmem++;
 436:main.cpp      **** 		
 437:main.cpp      **** 			/* Read the velocity from SRAM */
 438:main.cpp      **** 			seqvelocity = readSram(seqmem);
 439:main.cpp      **** 			seqmem++;
 440:main.cpp      **** 			
 441:main.cpp      **** 			if(seqvelocity == 0xFF)
 442:main.cpp      **** 			{
 443:main.cpp      **** 				/* End of sequence reached, reset the position to the beginning and restart */
 444:main.cpp      **** 				seqclock = 0;
 445:main.cpp      **** 				seqmem = 0x00010000;
 446:main.cpp      **** 				return;
 447:main.cpp      **** 			}
 448:main.cpp      **** 			
 449:main.cpp      **** 			if(seqmsg)
 450:main.cpp      **** 			{
 451:main.cpp      **** 				/* Play the note */
 452:main.cpp      **** 				vasynth.NoteOn(seqnote, seqvelocity);
 453:main.cpp      **** 			}
 454:main.cpp      **** 			else
 455:main.cpp      **** 			{
 456:main.cpp      **** 				/* Stop the note */
 457:main.cpp      **** 				vasynth.NoteOff(seqnote);
 458:main.cpp      **** 			}
 459:main.cpp      **** 			
 460:main.cpp      **** 			/* Check to see if there are other events at the current sequencer clock */
 461:main.cpp      **** 			seqtime = readSramWord(seqmem);
 462:main.cpp      **** 		}
 463:main.cpp      **** 	}
 464:main.cpp      **** 	
 465:main.cpp      **** 	/* All events processed so increment the sequencer clock */
 466:main.cpp      **** 	seqclock++;
 334              		.loc 11 466 10 view .LVU67
 335 0008 DFF8BC90 		ldr	r9, .L34+24
 336 000c B9F80010 		ldrh	r1, [r9]
 337              	.LVL14:
ARM GAS  C:\Users\jcjco\AppData\Local\Temp\ccocbARg.s 			page 25


 338              	.L24:
 339              		.loc 11 466 2 is_stmt 1 view .LVU68
 340              		.loc 11 466 10 is_stmt 0 view .LVU69
 341 0010 0131     		adds	r1, r1, #1
 342 0012 A9F80010 		strh	r1, [r9]	@ movhi
 467:main.cpp      **** }
 343              		.loc 11 467 1 view .LVU70
 344 0016 BDE8F88F 		pop	{r3, r4, r5, r6, r7, r8, r9, r10, fp, pc}
 345              	.LVL15:
 346              	.L31:
 423:main.cpp      **** 		
 347              		.loc 11 423 3 is_stmt 1 view .LVU71
 423:main.cpp      **** 		
 348              		.loc 11 423 25 is_stmt 0 view .LVU72
 349 001a 254C     		ldr	r4, .L34
 425:main.cpp      **** 		{
 350              		.loc 11 425 17 view .LVU73
 351 001c DFF8A890 		ldr	r9, .L34+24
 423:main.cpp      **** 		
 352              		.loc 11 423 25 view .LVU74
 353 0020 2368     		ldr	r3, [r4]
 354              	.LVL16:
 355              	.LBB246:
 356              	.LBI246:
 468:main.cpp      **** 
 469:main.cpp      **** void SequencerRecord(uint8_t recnote, uint8_t recvelocity)
 470:main.cpp      **** {
 471:main.cpp      **** 	/* Write the timestamp to SRAM */
 472:main.cpp      **** 	writeSramWord(seqmem, seqclock);
 473:main.cpp      **** 	seqmem++;
 474:main.cpp      **** 	seqmem++;
 475:main.cpp      **** 		
 476:main.cpp      **** 	/* Write the note to SRAM */
 477:main.cpp      **** 	writeSram(seqmem, recnote);
 478:main.cpp      **** 	seqmem++;
 479:main.cpp      **** 		
 480:main.cpp      **** 	/* Write the velocity to SRAM */
 481:main.cpp      **** 	writeSram(seqmem, recvelocity);
 482:main.cpp      **** 	seqmem++;
 483:main.cpp      **** 	
 484:main.cpp      **** 	if(seqmem > 0x7FFF8)
 485:main.cpp      **** 	{
 486:main.cpp      **** 		/* There is no more memory left for the sequencer to use */
 487:main.cpp      **** 		/* Place a timestamp and stop marker at the current position and select stop mode */
 488:main.cpp      **** 		writeSramWord(seqmem, seqclock);
 489:main.cpp      **** 		seqmem++;
 490:main.cpp      **** 		seqmem++;
 491:main.cpp      **** 		writeSramWord(seqmem, 0xFFFF);
 492:main.cpp      **** 		seqmode = 0;
 493:main.cpp      **** 		seqclock = 0;
 494:main.cpp      **** 		seqmem = 0x00010000;
 495:main.cpp      **** 	}
 496:main.cpp      **** 	}
 497:main.cpp      **** 
 498:main.cpp      **** /* SRAM memory handling routines */
 499:main.cpp      **** void writeSram(uint32_t l_addr, uint8_t l_data)
 500:main.cpp      **** {
ARM GAS  C:\Users\jcjco\AppData\Local\Temp\ccocbARg.s 			page 26


 501:main.cpp      ****   /* Pointer write on specific location of backup SRAM */
 502:main.cpp      ****   *(volatile uint8_t *) (WRITE_READ_SRAM_ADDR + l_addr) = l_data;
 503:main.cpp      **** }
 504:main.cpp      **** 
 505:main.cpp      **** uint8_t readSram(uint32_t l_addr)
 506:main.cpp      **** {
 507:main.cpp      ****   uint8_t i_retval;
 508:main.cpp      **** 	
 509:main.cpp      ****   /* Pointer write from specific location of backup SRAM */
 510:main.cpp      ****   i_retval =  *(volatile uint8_t *) (WRITE_READ_SRAM_ADDR + l_addr);
 511:main.cpp      **** 	
 512:main.cpp      ****   return i_retval;
 513:main.cpp      **** }
 514:main.cpp      **** 
 515:main.cpp      **** void writeSramWord(uint32_t l_addr_w, uint16_t l_data_w)
 516:main.cpp      **** {
 517:main.cpp      ****   /* Pointer write on specific location of backup SRAM */
 518:main.cpp      ****   *(volatile uint16_t *) (WRITE_READ_SRAM_ADDR + l_addr_w) = l_data_w;
 519:main.cpp      **** }
 520:main.cpp      **** 
 521:main.cpp      **** uint16_t readSramWord(uint32_t l_addr_w)
 357              		.loc 11 521 10 is_stmt 1 view .LVU75
 358              	.LBB247:
 522:main.cpp      **** {
 523:main.cpp      ****   uint16_t i_retval_w;
 359              		.loc 11 523 3 view .LVU76
 524:main.cpp      **** 	
 525:main.cpp      ****   /* Pointer write from specific location of backup SRAM */
 526:main.cpp      ****   i_retval_w =  *(volatile uint16_t *) (WRITE_READ_SRAM_ADDR + l_addr_w);
 360              		.loc 11 526 3 view .LVU77
 361              	.LBE247:
 362              	.LBE246:
 425:main.cpp      **** 		{
 363              		.loc 11 425 17 is_stmt 0 view .LVU78
 364 0022 B9F80010 		ldrh	r1, [r9]
 365              	.LBB250:
 366              	.LBB248:
 367              		.loc 11 526 62 view .LVU79
 368 0026 03F10052 		add	r2, r3, #536870912
 369              	.LBE248:
 370              	.LBE250:
 423:main.cpp      **** 		
 371              		.loc 11 423 11 view .LVU80
 372 002a 224D     		ldr	r5, .L34+4
 373              	.LBB251:
 374              	.LBB249:
 375              		.loc 11 526 14 view .LVU81
 376 002c 1288     		ldrh	r2, [r2]
 377 002e 92B2     		uxth	r2, r2
 378              	.LVL17:
 527:main.cpp      **** 	
 528:main.cpp      ****   return i_retval_w;
 379              		.loc 11 528 3 is_stmt 1 view .LVU82
 380              		.loc 11 528 3 is_stmt 0 view .LVU83
 381              	.LBE249:
 382              	.LBE251:
 425:main.cpp      **** 		{
ARM GAS  C:\Users\jcjco\AppData\Local\Temp\ccocbARg.s 			page 27


 383              		.loc 11 425 17 view .LVU84
 384 0030 8A42     		cmp	r2, r1
 423:main.cpp      **** 		
 385              		.loc 11 423 11 view .LVU85
 386 0032 2A80     		strh	r2, [r5]	@ movhi
 425:main.cpp      **** 		{
 387              		.loc 11 425 3 is_stmt 1 view .LVU86
 425:main.cpp      **** 		{
 388              		.loc 11 425 17 view .LVU87
 389 0034 ECD1     		bne	.L24
 390 0036 DFF89480 		ldr	r8, .L34+28
 391 003a 1F4F     		ldr	r7, .L34+8
 392 003c 1F4E     		ldr	r6, .L34+12
 393 003e 0BE0     		b	.L29
 394              	.LVL18:
 395              	.L33:
 452:main.cpp      **** 			}
 396              		.loc 11 452 19 is_stmt 0 view .LVU88
 397 0040 FFF7FEFF 		bl	_ZN7VASynth6NoteOnEhh
 398              	.LVL19:
 399              	.L28:
 461:main.cpp      **** 		}
 400              		.loc 11 461 4 is_stmt 1 view .LVU89
 461:main.cpp      **** 		}
 401              		.loc 11 461 26 is_stmt 0 view .LVU90
 402 0044 2368     		ldr	r3, [r4]
 403              	.LVL20:
 404              	.LBB252:
 405              	.LBI252:
 521:main.cpp      **** {
 406              		.loc 11 521 10 is_stmt 1 view .LVU91
 407              	.LBB253:
 523:main.cpp      **** 	
 408              		.loc 11 523 3 view .LVU92
 526:main.cpp      **** 	
 409              		.loc 11 526 3 view .LVU93
 410              	.LBE253:
 411              	.LBE252:
 425:main.cpp      **** 		{
 412              		.loc 11 425 17 is_stmt 0 view .LVU94
 413 0046 B9F80010 		ldrh	r1, [r9]
 414              	.LBB255:
 415              	.LBB254:
 526:main.cpp      **** 	
 416              		.loc 11 526 62 view .LVU95
 417 004a 03F10052 		add	r2, r3, #536870912
 526:main.cpp      **** 	
 418              		.loc 11 526 14 view .LVU96
 419 004e 1288     		ldrh	r2, [r2]
 420 0050 92B2     		uxth	r2, r2
 421              	.LVL21:
 422              		.loc 11 528 3 is_stmt 1 view .LVU97
 423              		.loc 11 528 3 is_stmt 0 view .LVU98
 424              	.LBE254:
 425              	.LBE255:
 425:main.cpp      **** 		{
 426              		.loc 11 425 17 view .LVU99
ARM GAS  C:\Users\jcjco\AppData\Local\Temp\ccocbARg.s 			page 28


 427 0052 9142     		cmp	r1, r2
 461:main.cpp      **** 		}
 428              		.loc 11 461 12 view .LVU100
 429 0054 2A80     		strh	r2, [r5]	@ movhi
 425:main.cpp      **** 		{
 430              		.loc 11 425 3 is_stmt 1 view .LVU101
 425:main.cpp      **** 		{
 431              		.loc 11 425 17 view .LVU102
 432 0056 DBD1     		bne	.L24
 433              	.L29:
 428:main.cpp      **** 			seqmem++;
 434              		.loc 11 428 4 view .LVU103
 429:main.cpp      **** 			
 435              		.loc 11 429 4 view .LVU104
 449:main.cpp      **** 			{
 436              		.loc 11 449 4 view .LVU105
 452:main.cpp      **** 			}
 437              		.loc 11 452 5 view .LVU106
 457:main.cpp      **** 			}
 438              		.loc 11 457 5 view .LVU107
 429:main.cpp      **** 			
 439              		.loc 11 429 10 is_stmt 0 view .LVU108
 440 0058 981C     		adds	r0, r3, #2
 441              	.LBB256:
 442              	.LBB257:
 510:main.cpp      **** 	
 443              		.loc 11 510 59 view .LVU109
 444 005a 194A     		ldr	r2, .L34+16
 445              	.LBE257:
 446              	.LBE256:
 435:main.cpp      **** 		
 447              		.loc 11 435 10 view .LVU110
 448 005c D91C     		adds	r1, r3, #3
 449              	.LBB260:
 450              	.LBB261:
 510:main.cpp      **** 	
 451              		.loc 11 510 59 view .LVU111
 452 005e DFF870A0 		ldr	r10, .L34+32
 453              	.LBE261:
 454              	.LBE260:
 429:main.cpp      **** 			
 455              		.loc 11 429 10 view .LVU112
 456 0062 2060     		str	r0, [r4]
 432:main.cpp      **** 			seqmsg = seqnote & 0x80;
 457              		.loc 11 432 4 is_stmt 1 view .LVU113
 458              	.LVL22:
 459              	.LBB264:
 460              	.LBI256:
 505:main.cpp      **** {
 461              		.loc 11 505 9 view .LVU114
 462              	.LBB258:
 507:main.cpp      **** 	
 463              		.loc 11 507 3 view .LVU115
 510:main.cpp      **** 	
 464              		.loc 11 510 3 view .LVU116
 510:main.cpp      **** 	
 465              		.loc 11 510 12 is_stmt 0 view .LVU117
ARM GAS  C:\Users\jcjco\AppData\Local\Temp\ccocbARg.s 			page 29


 466 0064 9A5C     		ldrb	r2, [r3, r2]	@ zero_extendqisi2
 467              	.LBE258:
 468              	.LBE264:
 435:main.cpp      **** 		
 469              		.loc 11 435 10 view .LVU118
 470 0066 2160     		str	r1, [r4]
 439:main.cpp      **** 			
 471              		.loc 11 439 10 view .LVU119
 472 0068 191D     		adds	r1, r3, #4
 473 006a 02F07F0C 		and	ip, r2, #127
 433:main.cpp      **** 			seqnote = seqnote & 0x7F;
 474              		.loc 11 433 21 view .LVU120
 475 006e 02F0800B 		and	fp, r2, #128
 476              	.LBB265:
 477              	.LBB259:
 510:main.cpp      **** 	
 478              		.loc 11 510 12 view .LVU121
 479 0072 5FFA82FE 		uxtb	lr, r2
 480              	.LVL23:
 512:main.cpp      **** }
 481              		.loc 11 512 3 is_stmt 1 view .LVU122
 512:main.cpp      **** }
 482              		.loc 11 512 3 is_stmt 0 view .LVU123
 483              	.LBE259:
 484              	.LBE265:
 433:main.cpp      **** 			seqnote = seqnote & 0x7F;
 485              		.loc 11 433 4 is_stmt 1 view .LVU124
 452:main.cpp      **** 			}
 486              		.loc 11 452 19 is_stmt 0 view .LVU125
 487 0076 1348     		ldr	r0, .L34+20
 433:main.cpp      **** 			seqnote = seqnote & 0x7F;
 488              		.loc 11 433 21 view .LVU126
 489 0078 A8F800B0 		strh	fp, [r8]	@ movhi
 434:main.cpp      **** 			seqmem++;
 490              		.loc 11 434 4 is_stmt 1 view .LVU127
 434:main.cpp      **** 			seqmem++;
 491              		.loc 11 434 22 is_stmt 0 view .LVU128
 492 007c A7F800C0 		strh	ip, [r7]	@ movhi
 435:main.cpp      **** 		
 493              		.loc 11 435 4 is_stmt 1 view .LVU129
 438:main.cpp      **** 			seqmem++;
 494              		.loc 11 438 4 view .LVU130
 495              	.LVL24:
 496              	.LBB266:
 497              	.LBI260:
 505:main.cpp      **** {
 498              		.loc 11 505 9 view .LVU131
 499              	.LBB262:
 507:main.cpp      **** 	
 500              		.loc 11 507 3 view .LVU132
 510:main.cpp      **** 	
 501              		.loc 11 510 3 view .LVU133
 510:main.cpp      **** 	
 502              		.loc 11 510 12 is_stmt 0 view .LVU134
 503 0080 13F80A20 		ldrb	r2, [r3, r10]	@ zero_extendqisi2
 504              	.LBE262:
 505              	.LBE266:
ARM GAS  C:\Users\jcjco\AppData\Local\Temp\ccocbARg.s 			page 30


 439:main.cpp      **** 			
 506              		.loc 11 439 10 view .LVU135
 507 0084 2160     		str	r1, [r4]
 508              	.LVL25:
 452:main.cpp      **** 			}
 509              		.loc 11 452 19 view .LVU136
 510 0086 6146     		mov	r1, ip
 438:main.cpp      **** 			seqmem++;
 511              		.loc 11 438 26 view .LVU137
 512 0088 1346     		mov	r3, r2
 513              	.LVL26:
 514              	.LBB267:
 515              	.LBB263:
 510:main.cpp      **** 	
 516              		.loc 11 510 12 view .LVU138
 517 008a D2B2     		uxtb	r2, r2
 518              	.LVL27:
 512:main.cpp      **** }
 519              		.loc 11 512 3 is_stmt 1 view .LVU139
 512:main.cpp      **** }
 520              		.loc 11 512 3 is_stmt 0 view .LVU140
 521              	.LBE263:
 522              	.LBE267:
 441:main.cpp      **** 			{
 523              		.loc 11 441 4 view .LVU141
 524 008c FF2B     		cmp	r3, #255
 438:main.cpp      **** 			seqmem++;
 525              		.loc 11 438 16 view .LVU142
 526 008e 3380     		strh	r3, [r6]	@ movhi
 439:main.cpp      **** 			
 527              		.loc 11 439 4 is_stmt 1 view .LVU143
 441:main.cpp      **** 			{
 528              		.loc 11 441 4 view .LVU144
 529 0090 06D0     		beq	.L32
 449:main.cpp      **** 			{
 530              		.loc 11 449 4 is_stmt 0 view .LVU145
 531 0092 1EF0800F 		tst	lr, #128
 532 0096 D3D1     		bne	.L33
 457:main.cpp      **** 			}
 533              		.loc 11 457 20 view .LVU146
 534 0098 0A48     		ldr	r0, .L34+20
 535 009a FFF7FEFF 		bl	_ZN7VASynth7NoteOffEh
 536              	.LVL28:
 537 009e D1E7     		b	.L28
 538              	.L32:
 444:main.cpp      **** 				seqmem = 0x00010000;
 539              		.loc 11 444 5 is_stmt 1 view .LVU147
 444:main.cpp      **** 				seqmem = 0x00010000;
 540              		.loc 11 444 14 is_stmt 0 view .LVU148
 541 00a0 0022     		movs	r2, #0
 445:main.cpp      **** 				return;
 542              		.loc 11 445 12 view .LVU149
 543 00a2 4FF48033 		mov	r3, #65536
 444:main.cpp      **** 				seqmem = 0x00010000;
 544              		.loc 11 444 14 view .LVU150
 545 00a6 A9F80020 		strh	r2, [r9]	@ movhi
 445:main.cpp      **** 				return;
ARM GAS  C:\Users\jcjco\AppData\Local\Temp\ccocbARg.s 			page 31


 546              		.loc 11 445 5 is_stmt 1 view .LVU151
 445:main.cpp      **** 				return;
 547              		.loc 11 445 12 is_stmt 0 view .LVU152
 548 00aa 2360     		str	r3, [r4]
 446:main.cpp      **** 			}
 549              		.loc 11 446 5 is_stmt 1 view .LVU153
 467:main.cpp      **** 
 550              		.loc 11 467 1 is_stmt 0 view .LVU154
 551 00ac BDE8F88F 		pop	{r3, r4, r5, r6, r7, r8, r9, r10, fp, pc}
 552              	.L35:
 553              		.align	2
 554              	.L34:
 555 00b0 00000000 		.word	.LANCHOR2
 556 00b4 00000000 		.word	.LANCHOR3
 557 00b8 00000000 		.word	.LANCHOR6
 558 00bc 00000000 		.word	.LANCHOR7
 559 00c0 02000020 		.word	536870914
 560 00c4 00000000 		.word	.LANCHOR1
 561 00c8 00000000 		.word	.LANCHOR4
 562 00cc 00000000 		.word	.LANCHOR5
 563 00d0 03000020 		.word	536870915
 564              		.cfi_endproc
 565              	.LFE5394:
 567              		.section	.text._Z8CallbackPv,"ax",%progbits
 568              		.align	1
 569              		.p2align 2,,3
 570              		.global	_Z8CallbackPv
 571              		.syntax unified
 572              		.thumb
 573              		.thumb_func
 574              		.fpu fpv5-d16
 576              	_Z8CallbackPv:
 577              	.LVL29:
 578              	.LFB4800:
 529:main.cpp      **** }
 530:main.cpp      **** 
 531:main.cpp      **** /* Process sequencer requests */
 532:main.cpp      **** void Callback(void* data)
 533:main.cpp      **** {
 579              		.loc 11 533 1 is_stmt 1 view -0
 580              		.cfi_startproc
 581              		@ args = 0, pretend = 0, frame = 0
 582              		@ frame_needed = 0, uses_anonymous_args = 0
 583              		@ link register save eliminated.
 534:main.cpp      **** 	SequencerPlay(seqmode);
 584              		.loc 11 534 2 view .LVU156
 585              		.loc 11 534 15 is_stmt 0 view .LVU157
 586 0000 054B     		ldr	r3, .L41
 587 0002 1888     		ldrh	r0, [r3]
 588              	.LVL30:
 589              	.LBB270:
 590              	.LBI270:
 411:main.cpp      **** {
 591              		.loc 11 411 6 is_stmt 1 view .LVU158
 592              	.LBB271:
 413:main.cpp      **** 	{
 593              		.loc 11 413 2 view .LVU159
ARM GAS  C:\Users\jcjco\AppData\Local\Temp\ccocbARg.s 			page 32


 594 0004 08B1     		cbz	r0, .L40
 595 0006 FFF7FEBF 		b	_Z13SequencerPlayt.part.0
 596              	.LVL31:
 597              	.L40:
 415:main.cpp      **** 		seqmem = 0x00010000;
 598              		.loc 11 415 3 view .LVU160
 415:main.cpp      **** 		seqmem = 0x00010000;
 599              		.loc 11 415 12 is_stmt 0 view .LVU161
 600 000a 0449     		ldr	r1, .L41+4
 416:main.cpp      **** 		return;
 601              		.loc 11 416 10 view .LVU162
 602 000c 4FF48032 		mov	r2, #65536
 603 0010 034B     		ldr	r3, .L41+8
 415:main.cpp      **** 		seqmem = 0x00010000;
 604              		.loc 11 415 12 view .LVU163
 605 0012 0880     		strh	r0, [r1]	@ movhi
 416:main.cpp      **** 		return;
 606              		.loc 11 416 3 is_stmt 1 view .LVU164
 416:main.cpp      **** 		return;
 607              		.loc 11 416 10 is_stmt 0 view .LVU165
 608 0014 1A60     		str	r2, [r3]
 417:main.cpp      **** 	}
 609              		.loc 11 417 3 is_stmt 1 view .LVU166
 610              	.LBE271:
 611              	.LBE270:
 535:main.cpp      **** }
 612              		.loc 11 535 1 is_stmt 0 view .LVU167
 613 0016 7047     		bx	lr
 614              	.L42:
 615              		.align	2
 616              	.L41:
 617 0018 00000000 		.word	.LANCHOR8
 618 001c 00000000 		.word	.LANCHOR4
 619 0020 00000000 		.word	.LANCHOR2
 620              		.cfi_endproc
 621              	.LFE4800:
 623              		.section	.text._ZN7VASynthC2Ev,"axG",%progbits,_ZN7VASynthC5Ev,comdat
 624              		.align	1
 625              		.p2align 2,,3
 626              		.weak	_ZN7VASynthC2Ev
 627              		.syntax unified
 628              		.thumb
 629              		.thumb_func
 630              		.fpu fpv5-d16
 632              	_ZN7VASynthC2Ev:
 633              	.LVL32:
 634              	.LFB4787:
  74:vasynth.h     ****     ~VASynth() {}
 635              		.loc 6 74 5 is_stmt 1 view -0
 636              		.cfi_startproc
 637              		@ args = 0, pretend = 0, frame = 0
 638              		@ frame_needed = 0, uses_anonymous_args = 0
 639              	.LBB292:
  74:vasynth.h     ****     ~VASynth() {}
 640              		.loc 6 74 15 view .LVU169
  74:vasynth.h     ****     ~VASynth() {}
 641              		.loc 6 74 15 view .LVU170
ARM GAS  C:\Users\jcjco\AppData\Local\Temp\ccocbARg.s 			page 33


 642              	.LBB293:
 643              	.LBI293:
  15:../../DaisySP/Source/Synthesis/oscillator.h ****     ~Oscillator() {}
 644              		.loc 7 15 5 view .LVU171
  15:../../DaisySP/Source/Synthesis/oscillator.h ****     ~Oscillator() {}
 645              		.loc 7 15 5 is_stmt 0 view .LVU172
 646              	.LBE293:
 647              	.LBB294:
 648              	.LBI294:
  15:../../DaisySP/Source/Synthesis/oscillator.h ****     ~Oscillator() {}
 649              		.loc 7 15 5 is_stmt 1 view .LVU173
  15:../../DaisySP/Source/Synthesis/oscillator.h ****     ~Oscillator() {}
 650              		.loc 7 15 5 is_stmt 0 view .LVU174
 651              	.LBE294:
 652              	.LBB295:
 653              	.LBI295:
  15:../../DaisySP/Source/Synthesis/oscillator.h ****     ~Oscillator() {}
 654              		.loc 7 15 5 is_stmt 1 view .LVU175
  15:../../DaisySP/Source/Synthesis/oscillator.h ****     ~Oscillator() {}
 655              		.loc 7 15 5 is_stmt 0 view .LVU176
 656              	.LBE295:
 657              	.LBB296:
 658              	.LBI296:
  15:../../DaisySP/Source/Synthesis/oscillator.h ****     ~Oscillator() {}
 659              		.loc 7 15 5 is_stmt 1 view .LVU177
  15:../../DaisySP/Source/Synthesis/oscillator.h ****     ~Oscillator() {}
 660              		.loc 7 15 5 is_stmt 0 view .LVU178
 661              	.LBE296:
  74:vasynth.h     ****     ~VASynth() {}
 662              		.loc 6 74 15 is_stmt 1 view .LVU179
 663              	.LBE292:
  74:vasynth.h     ****     ~VASynth() {}
 664              		.loc 6 74 5 is_stmt 0 view .LVU180
 665 0000 10B5     		push	{r4, lr}
 666              		.cfi_def_cfa_offset 8
 667              		.cfi_offset 4, -8
 668              		.cfi_offset 14, -4
 669 0002 00F2D443 		addw	r3, r0, #1236
 670 0006 00F25464 		addw	r4, r0, #1620
 671              	.L44:
 672              	.LVL33:
 673              	.LBB315:
 674              	.LBB297:
 675              	.LBI297:
 676              		.file 12 "../../DaisySP/Source/Control/adsr.h"
   1:../../DaisySP/Source/Control/adsr.h **** #pragma once
   2:../../DaisySP/Source/Control/adsr.h **** #ifndef DSY_ADSR_H
   3:../../DaisySP/Source/Control/adsr.h **** #define DSY_ADSR_H
   4:../../DaisySP/Source/Control/adsr.h **** 
   5:../../DaisySP/Source/Control/adsr.h **** #include <stdint.h>
   6:../../DaisySP/Source/Control/adsr.h **** #ifdef __cplusplus
   7:../../DaisySP/Source/Control/adsr.h **** 
   8:../../DaisySP/Source/Control/adsr.h **** namespace daisysp
   9:../../DaisySP/Source/Control/adsr.h **** {
  10:../../DaisySP/Source/Control/adsr.h **** /** Distinct stages that the phase of the envelope can be located in.
  11:../../DaisySP/Source/Control/adsr.h **** - IDLE   = located at phase location 0, and not currently running
  12:../../DaisySP/Source/Control/adsr.h **** - ATTACK  = First segment of envelope where phase moves from 0 to 1
ARM GAS  C:\Users\jcjco\AppData\Local\Temp\ccocbARg.s 			page 34


  13:../../DaisySP/Source/Control/adsr.h **** - DECAY   = Second segment of envelope where phase moves from 1 to SUSTAIN value
  14:../../DaisySP/Source/Control/adsr.h **** - RELEASE =     Fourth segment of envelop where phase moves from SUSTAIN to 0
  15:../../DaisySP/Source/Control/adsr.h **** */
  16:../../DaisySP/Source/Control/adsr.h **** enum
  17:../../DaisySP/Source/Control/adsr.h **** {
  18:../../DaisySP/Source/Control/adsr.h ****     ADSR_SEG_IDLE    = 0,
  19:../../DaisySP/Source/Control/adsr.h ****     ADSR_SEG_ATTACK  = 1,
  20:../../DaisySP/Source/Control/adsr.h ****     ADSR_SEG_DECAY   = 2,
  21:../../DaisySP/Source/Control/adsr.h ****     ADSR_SEG_RELEASE = 4
  22:../../DaisySP/Source/Control/adsr.h **** };
  23:../../DaisySP/Source/Control/adsr.h **** 
  24:../../DaisySP/Source/Control/adsr.h **** 
  25:../../DaisySP/Source/Control/adsr.h **** /** adsr envelope module
  26:../../DaisySP/Source/Control/adsr.h **** 
  27:../../DaisySP/Source/Control/adsr.h **** Original author(s) : Paul Batchelor
  28:../../DaisySP/Source/Control/adsr.h **** 
  29:../../DaisySP/Source/Control/adsr.h **** Ported from Soundpipe by Ben Sergentanis, May 2020
  30:../../DaisySP/Source/Control/adsr.h ****  
  31:../../DaisySP/Source/Control/adsr.h **** Remake by Steffan DIedrichsen, May 2021
  32:../../DaisySP/Source/Control/adsr.h **** */
  33:../../DaisySP/Source/Control/adsr.h **** class Adsr
  34:../../DaisySP/Source/Control/adsr.h **** {
  35:../../DaisySP/Source/Control/adsr.h ****   public:
  36:../../DaisySP/Source/Control/adsr.h ****     Adsr() {}
 677              		.loc 12 36 5 is_stmt 1 view .LVU181
 678              	.LBE297:
  74:vasynth.h     ****     ~VASynth() {}
 679              		.loc 6 74 15 is_stmt 0 view .LVU182
 680 000a 3033     		adds	r3, r3, #48
 681              	.LVL34:
 682              	.LBB300:
 683              	.LBB298:
 684              		.loc 12 36 12 view .LVU183
 685 000c 0022     		movs	r2, #0
 686 000e 2D49     		ldr	r1, .L51
 687 0010 4FF0000C 		mov	ip, #0
 688              	.LBE298:
 689              	.LBE300:
  74:vasynth.h     ****     ~VASynth() {}
 690              		.loc 6 74 15 view .LVU184
 691 0014 A342     		cmp	r3, r4
 692              	.LBB301:
 693              	.LBB299:
 694              		.loc 12 36 12 view .LVU185
 695 0016 43F8302C 		str	r2, [r3, #-48]	@ float
 696 001a 43F82C2C 		str	r2, [r3, #-44]	@ float
 697 001e 43F8281C 		str	r1, [r3, #-40]	@ float
 698 0022 43F8242C 		str	r2, [r3, #-36]	@ float
 699 0026 43F8201C 		str	r1, [r3, #-32]	@ float
 700 002a 43F81C1C 		str	r1, [r3, #-28]	@ float
 701 002e 43F8181C 		str	r1, [r3, #-24]	@ float
 702 0032 43F8142C 		str	r2, [r3, #-20]	@ float
 703 0036 43F8102C 		str	r2, [r3, #-16]	@ float
 704 003a 43F80C2C 		str	r2, [r3, #-12]	@ float
 705 003e 03F804CC 		strb	ip, [r3, #-4]
 706 0042 03F803CC 		strb	ip, [r3, #-3]
 707              	.LVL35:
ARM GAS  C:\Users\jcjco\AppData\Local\Temp\ccocbARg.s 			page 35


 708              		.loc 12 36 12 view .LVU186
 709              	.LBE299:
 710              	.LBE301:
  74:vasynth.h     ****     ~VASynth() {}
 711              		.loc 6 74 15 is_stmt 1 view .LVU187
  74:vasynth.h     ****     ~VASynth() {}
 712              		.loc 6 74 15 view .LVU188
 713 0046 E0D1     		bne	.L44
  74:vasynth.h     ****     ~VASynth() {}
 714              		.loc 6 74 15 discriminator 10 view .LVU189
 715 0048 00F2D474 		addw	r4, r0, #2004
 716              	.L45:
 717              	.LVL36:
 718              	.LBB302:
 719              	.LBI302:
 720              		.loc 12 36 5 view .LVU190
 721              	.LBE302:
  74:vasynth.h     ****     ~VASynth() {}
 722              		.loc 6 74 15 is_stmt 0 view .LVU191
 723 004c 3033     		adds	r3, r3, #48
 724              	.LVL37:
 725              	.LBB305:
 726              	.LBB303:
 727              		.loc 12 36 12 view .LVU192
 728 004e 0022     		movs	r2, #0
 729 0050 1C49     		ldr	r1, .L51
 730 0052 4FF0000C 		mov	ip, #0
 731              	.LBE303:
 732              	.LBE305:
  74:vasynth.h     ****     ~VASynth() {}
 733              		.loc 6 74 15 view .LVU193
 734 0056 A342     		cmp	r3, r4
 735              	.LBB306:
 736              	.LBB304:
 737              		.loc 12 36 12 view .LVU194
 738 0058 43F8302C 		str	r2, [r3, #-48]	@ float
 739 005c 43F82C2C 		str	r2, [r3, #-44]	@ float
 740 0060 43F8281C 		str	r1, [r3, #-40]	@ float
 741 0064 43F8242C 		str	r2, [r3, #-36]	@ float
 742 0068 43F8201C 		str	r1, [r3, #-32]	@ float
 743 006c 43F81C1C 		str	r1, [r3, #-28]	@ float
 744 0070 43F8181C 		str	r1, [r3, #-24]	@ float
 745 0074 43F8142C 		str	r2, [r3, #-20]	@ float
 746 0078 43F8102C 		str	r2, [r3, #-16]	@ float
 747 007c 43F80C2C 		str	r2, [r3, #-12]	@ float
 748 0080 03F804CC 		strb	ip, [r3, #-4]
 749 0084 03F803CC 		strb	ip, [r3, #-3]
 750              	.LVL38:
 751              		.loc 12 36 12 view .LVU195
 752              	.LBE304:
 753              	.LBE306:
  74:vasynth.h     ****     ~VASynth() {}
 754              		.loc 6 74 15 is_stmt 1 view .LVU196
  74:vasynth.h     ****     ~VASynth() {}
 755              		.loc 6 74 15 view .LVU197
 756 0088 E0D1     		bne	.L45
  74:vasynth.h     ****     ~VASynth() {}
ARM GAS  C:\Users\jcjco\AppData\Local\Temp\ccocbARg.s 			page 36


 757              		.loc 6 74 15 discriminator 14 view .LVU198
 758 008a 00F63424 		addw	r4, r0, #2612
 759              	.L46:
 760              	.LVL39:
 761              	.LBB307:
 762              	.LBI307:
 763              		.file 13 "../../DaisySP/Source/Filters/moogladder.h"
   1:../../DaisySP/Source/Filters/moogladder.h **** /* Ported from Audio Library for Teensy, Ladder Filter
   2:../../DaisySP/Source/Filters/moogladder.h ****  * Copyright (c) 2021, Richard van Hoesel
   3:../../DaisySP/Source/Filters/moogladder.h ****  * Copyright (c) 2022, Infrasonic Audio LLC
   4:../../DaisySP/Source/Filters/moogladder.h ****  *
   5:../../DaisySP/Source/Filters/moogladder.h ****  * Permission is hereby granted, free of charge, to any person obtaining a copy
   6:../../DaisySP/Source/Filters/moogladder.h ****  * of this software and associated documentation files (the "Software"), to deal
   7:../../DaisySP/Source/Filters/moogladder.h ****  * in the Software without restriction, including without limitation the rights
   8:../../DaisySP/Source/Filters/moogladder.h ****  * to use, copy, modify, merge, publish, distribute, sublicense, and/or sell
   9:../../DaisySP/Source/Filters/moogladder.h ****  * copies of the Software, and to permit persons to whom the Software is
  10:../../DaisySP/Source/Filters/moogladder.h ****  * furnished to do so, subject to the following conditions:
  11:../../DaisySP/Source/Filters/moogladder.h ****  *
  12:../../DaisySP/Source/Filters/moogladder.h ****  * The above copyright notice, development funding notice, and this permission
  13:../../DaisySP/Source/Filters/moogladder.h ****  * notice shall be included in all copies or substantial portions of the Software.
  14:../../DaisySP/Source/Filters/moogladder.h ****  *
  15:../../DaisySP/Source/Filters/moogladder.h ****  * THE SOFTWARE IS PROVIDED "AS IS", WITHOUT WARRANTY OF ANY KIND, EXPRESS OR
  16:../../DaisySP/Source/Filters/moogladder.h ****  * IMPLIED, INCLUDING BUT NOT LIMITED TO THE WARRANTIES OF MERCHANTABILITY,
  17:../../DaisySP/Source/Filters/moogladder.h ****  * FITNESS FOR A PARTICULAR PURPOSE AND NONINFRINGEMENT. IN NO EVENT SHALL THE
  18:../../DaisySP/Source/Filters/moogladder.h ****  * AUTHORS OR COPYRIGHT HOLDERS BE LIABLE FOR ANY CLAIM, DAMAGES OR OTHER
  19:../../DaisySP/Source/Filters/moogladder.h ****  * LIABILITY, WHETHER IN AN ACTION OF CONTRACT, TORT OR OTHERWISE, ARISING FROM,
  20:../../DaisySP/Source/Filters/moogladder.h ****  * OUT OF OR IN CONNECTION WITH THE SOFTWARE OR THE USE OR OTHER DEALINGS IN
  21:../../DaisySP/Source/Filters/moogladder.h ****  * THE SOFTWARE.
  22:../../DaisySP/Source/Filters/moogladder.h ****  */
  23:../../DaisySP/Source/Filters/moogladder.h **** 
  24:../../DaisySP/Source/Filters/moogladder.h **** //-----------------------------------------------------------
  25:../../DaisySP/Source/Filters/moogladder.h **** // Huovilainen New Moog (HNM) model as per CMJ jun 2006
  26:../../DaisySP/Source/Filters/moogladder.h **** // Richard van Hoesel, v. 1.03, Feb. 14 2021
  27:../../DaisySP/Source/Filters/moogladder.h **** // v1.6 (Infrasonic) removes polyphase FIR, uses 2x linear
  28:../../DaisySP/Source/Filters/moogladder.h **** //      oversampling for performance reasons, port to DaisySP conventions
  29:../../DaisySP/Source/Filters/moogladder.h **** // v1.5 adds polyphase FIR or Linear interpolation
  30:../../DaisySP/Source/Filters/moogladder.h **** // v1.4 FC extended to 18.7kHz, max res to 1.8, 4x oversampling,
  31:../../DaisySP/Source/Filters/moogladder.h **** //      and a minor Q-tuning adjustment
  32:../../DaisySP/Source/Filters/moogladder.h **** // v.1.03 adds oversampling, extended resonance,
  33:../../DaisySP/Source/Filters/moogladder.h **** // and exposes parameters input_drive and passband_gain
  34:../../DaisySP/Source/Filters/moogladder.h **** // v.1.02 now includes both cutoff and resonance "CV" modulation inputs
  35:../../DaisySP/Source/Filters/moogladder.h **** // please retain this header if you use this code.
  36:../../DaisySP/Source/Filters/moogladder.h **** //-----------------------------------------------------------
  37:../../DaisySP/Source/Filters/moogladder.h **** 
  38:../../DaisySP/Source/Filters/moogladder.h **** #pragma once
  39:../../DaisySP/Source/Filters/moogladder.h **** #ifndef INFS_MOOGLADDER_H
  40:../../DaisySP/Source/Filters/moogladder.h **** #define INFS_MOOGLADDER_H
  41:../../DaisySP/Source/Filters/moogladder.h **** 
  42:../../DaisySP/Source/Filters/moogladder.h **** #include <stdlib.h>
  43:../../DaisySP/Source/Filters/moogladder.h **** #include <stdint.h>
  44:../../DaisySP/Source/Filters/moogladder.h **** #ifdef __cplusplus
  45:../../DaisySP/Source/Filters/moogladder.h **** 
  46:../../DaisySP/Source/Filters/moogladder.h **** namespace infrasonic
  47:../../DaisySP/Source/Filters/moogladder.h **** {
  48:../../DaisySP/Source/Filters/moogladder.h **** 
  49:../../DaisySP/Source/Filters/moogladder.h **** class MoogLadder
  50:../../DaisySP/Source/Filters/moogladder.h **** {
ARM GAS  C:\Users\jcjco\AppData\Local\Temp\ccocbARg.s 			page 37


  51:../../DaisySP/Source/Filters/moogladder.h ****     public:
  52:../../DaisySP/Source/Filters/moogladder.h ****         MoogLadder() {}
 764              		.loc 13 52 9 view .LVU199
 765              	.LBB308:
 766              		.loc 13 52 22 is_stmt 0 view .LVU200
 767 008e 0022     		movs	r2, #0
 768 0090 03F1180C 		add	ip, r3, #24
 769 0094 03F12801 		add	r1, r3, #40
 770 0098 03F1080E 		add	lr, r3, #8
 771 009c C3E90222 		strd	r2, r2, [r3, #8]
 772 00a0 C3E90422 		strd	r2, r2, [r3, #16]
 773              	.LBE308:
 774              	.LBE307:
  74:vasynth.h     ****     ~VASynth() {}
 775              		.loc 6 74 15 view .LVU201
 776 00a4 4C33     		adds	r3, r3, #76
 777              	.LVL40:
 778              	.LBB312:
 779              	.LBB309:
 780              		.loc 13 52 22 view .LVU202
 781 00a6 43F8342C 		str	r2, [r3, #-52]
 782 00aa CCF80C20 		str	r2, [ip, #12]
 783              	.LBE309:
 784              	.LBE312:
  74:vasynth.h     ****     ~VASynth() {}
 785              		.loc 6 74 15 view .LVU203
 786 00ae A342     		cmp	r3, r4
 787              	.LBB313:
 788              	.LBB310:
 789              		.loc 13 52 22 view .LVU204
 790 00b0 CCE90122 		strd	r2, r2, [ip, #4]
 791 00b4 43F8242C 		str	r2, [r3, #-36]
 792 00b8 CA60     		str	r2, [r1, #12]
 793              	.LVL41:
 794              		.loc 13 52 22 view .LVU205
 795              	.LBE310:
 796              	.LBE313:
  74:vasynth.h     ****     ~VASynth() {}
 797              		.loc 6 74 15 is_stmt 1 view .LVU206
  74:vasynth.h     ****     ~VASynth() {}
 798              		.loc 6 74 15 view .LVU207
 799              	.LBB314:
 800              	.LBB311:
 801              		.loc 13 52 22 is_stmt 0 view .LVU208
 802 00ba C1E90122 		strd	r2, r2, [r1, #4]
 803              	.LBE311:
 804              	.LBE314:
  74:vasynth.h     ****     ~VASynth() {}
 805              		.loc 6 74 15 view .LVU209
 806 00be E6D1     		bne	.L46
 807              	.LBE315:
  74:vasynth.h     ****     ~VASynth() {}
 808              		.loc 6 74 16 discriminator 18 view .LVU210
 809 00c0 10BD     		pop	{r4, pc}
 810              	.L52:
 811 00c2 00BF     		.align	2
 812              	.L51:
ARM GAS  C:\Users\jcjco\AppData\Local\Temp\ccocbARg.s 			page 38


 813 00c4 000080BF 		.word	-1082130432
 814              		.cfi_endproc
 815              	.LFE4787:
 817              		.weak	_ZN7VASynthC1Ev
 818              		.thumb_set _ZN7VASynthC1Ev,_ZN7VASynthC2Ev
 819              		.section	.text._Z13SequencerPlayt,"ax",%progbits
 820              		.align	1
 821              		.p2align 2,,3
 822              		.global	_Z13SequencerPlayt
 823              		.syntax unified
 824              		.thumb
 825              		.thumb_func
 826              		.fpu fpv5-d16
 828              	_Z13SequencerPlayt:
 829              	.LVL42:
 830              	.LFB4794:
 412:main.cpp      **** 	if(modenum == 0)
 831              		.loc 11 412 1 is_stmt 1 view -0
 832              		.cfi_startproc
 833              		@ args = 0, pretend = 0, frame = 0
 834              		@ frame_needed = 0, uses_anonymous_args = 0
 835              		@ link register save eliminated.
 413:main.cpp      **** 	{
 836              		.loc 11 413 2 view .LVU212
 837 0000 0346     		mov	r3, r0
 838 0002 08B1     		cbz	r0, .L57
 839 0004 FFF7FEBF 		b	_Z13SequencerPlayt.part.0
 840              	.LVL43:
 841              	.L57:
 415:main.cpp      **** 		seqmem = 0x00010000;
 842              		.loc 11 415 3 view .LVU213
 415:main.cpp      **** 		seqmem = 0x00010000;
 843              		.loc 11 415 12 is_stmt 0 view .LVU214
 844 0008 0348     		ldr	r0, .L58
 845              	.LVL44:
 416:main.cpp      **** 		return;
 846              		.loc 11 416 10 view .LVU215
 847 000a 4FF48031 		mov	r1, #65536
 848 000e 034A     		ldr	r2, .L58+4
 415:main.cpp      **** 		seqmem = 0x00010000;
 849              		.loc 11 415 12 view .LVU216
 850 0010 0380     		strh	r3, [r0]	@ movhi
 416:main.cpp      **** 		return;
 851              		.loc 11 416 3 is_stmt 1 view .LVU217
 416:main.cpp      **** 		return;
 852              		.loc 11 416 10 is_stmt 0 view .LVU218
 853 0012 1160     		str	r1, [r2]
 417:main.cpp      **** 	}
 854              		.loc 11 417 3 is_stmt 1 view .LVU219
 467:main.cpp      **** 
 855              		.loc 11 467 1 is_stmt 0 view .LVU220
 856 0014 7047     		bx	lr
 857              	.L59:
 858 0016 00BF     		.align	2
 859              	.L58:
 860 0018 00000000 		.word	.LANCHOR4
 861 001c 00000000 		.word	.LANCHOR2
ARM GAS  C:\Users\jcjco\AppData\Local\Temp\ccocbARg.s 			page 39


 862              		.cfi_endproc
 863              	.LFE4794:
 865              		.section	.text._Z15SequencerRecordhh,"ax",%progbits
 866              		.align	1
 867              		.p2align 2,,3
 868              		.global	_Z15SequencerRecordhh
 869              		.syntax unified
 870              		.thumb
 871              		.thumb_func
 872              		.fpu fpv5-d16
 874              	_Z15SequencerRecordhh:
 875              	.LVL45:
 876              	.LFB4795:
 470:main.cpp      **** 	/* Write the timestamp to SRAM */
 877              		.loc 11 470 1 is_stmt 1 view -0
 878              		.cfi_startproc
 879              		@ args = 0, pretend = 0, frame = 0
 880              		@ frame_needed = 0, uses_anonymous_args = 0
 881              		@ link register save eliminated.
 472:main.cpp      **** 	seqmem++;
 882              		.loc 11 472 2 view .LVU222
 472:main.cpp      **** 	seqmem++;
 883              		.loc 11 472 15 is_stmt 0 view .LVU223
 884 0000 134B     		ldr	r3, .L63
 470:main.cpp      **** 	/* Write the timestamp to SRAM */
 885              		.loc 11 470 1 view .LVU224
 886 0002 30B4     		push	{r4, r5}
 887              		.cfi_def_cfa_offset 8
 888              		.cfi_offset 4, -8
 889              		.cfi_offset 5, -4
 472:main.cpp      **** 	seqmem++;
 890              		.loc 11 472 15 view .LVU225
 891 0004 1A68     		ldr	r2, [r3]
 892 0006 134C     		ldr	r4, .L63+4
 893              	.LBB316:
 894              	.LBB317:
 518:main.cpp      **** }
 895              		.loc 11 518 48 view .LVU226
 896 0008 02F10055 		add	r5, r2, #536870912
 897              	.LBE317:
 898              	.LBE316:
 472:main.cpp      **** 	seqmem++;
 899              		.loc 11 472 15 view .LVU227
 900 000c B4F800C0 		ldrh	ip, [r4]
 901              	.LVL46:
 902              	.LBB319:
 903              	.LBI316:
 515:main.cpp      **** {
 904              		.loc 11 515 6 is_stmt 1 view .LVU228
 905              	.LBB318:
 518:main.cpp      **** }
 906              		.loc 11 518 3 view .LVU229
 518:main.cpp      **** }
 907              		.loc 11 518 60 is_stmt 0 view .LVU230
 908 0010 A5F800C0 		strh	ip, [r5]	@ movhi
 909              	.LVL47:
 518:main.cpp      **** }
ARM GAS  C:\Users\jcjco\AppData\Local\Temp\ccocbARg.s 			page 40


 910              		.loc 11 518 60 view .LVU231
 911              	.LBE318:
 912              	.LBE319:
 473:main.cpp      **** 	seqmem++;
 913              		.loc 11 473 2 is_stmt 1 view .LVU232
 474:main.cpp      **** 		
 914              		.loc 11 474 2 view .LVU233
 474:main.cpp      **** 		
 915              		.loc 11 474 8 is_stmt 0 view .LVU234
 916 0014 951C     		adds	r5, r2, #2
 917 0016 1D60     		str	r5, [r3]
 477:main.cpp      **** 	seqmem++;
 918              		.loc 11 477 2 is_stmt 1 view .LVU235
 919              	.LVL48:
 920              	.LBB320:
 921              	.LBI320:
 499:main.cpp      **** {
 922              		.loc 11 499 6 view .LVU236
 923              	.LBB321:
 502:main.cpp      **** }
 924              		.loc 11 502 3 view .LVU237
 502:main.cpp      **** }
 925              		.loc 11 502 47 is_stmt 0 view .LVU238
 926 0018 0F4D     		ldr	r5, .L63+8
 927              	.LVL49:
 502:main.cpp      **** }
 928              		.loc 11 502 57 view .LVU239
 929 001a 5055     		strb	r0, [r2, r5]
 930              	.LVL50:
 502:main.cpp      **** }
 931              		.loc 11 502 57 view .LVU240
 932              	.LBE321:
 933              	.LBE320:
 478:main.cpp      **** 		
 934              		.loc 11 478 2 is_stmt 1 view .LVU241
 478:main.cpp      **** 		
 935              		.loc 11 478 8 is_stmt 0 view .LVU242
 936 001c 1A68     		ldr	r2, [r3]
 484:main.cpp      **** 	{
 937              		.loc 11 484 2 view .LVU243
 938 001e 0F4D     		ldr	r5, .L63+12
 478:main.cpp      **** 		
 939              		.loc 11 478 8 view .LVU244
 940 0020 501C     		adds	r0, r2, #1
 941              	.LVL51:
 478:main.cpp      **** 		
 942              		.loc 11 478 8 view .LVU245
 943 0022 1860     		str	r0, [r3]
 481:main.cpp      **** 	seqmem++;
 944              		.loc 11 481 2 is_stmt 1 view .LVU246
 945              	.LVL52:
 946              	.LBB322:
 947              	.LBI322:
 499:main.cpp      **** {
 948              		.loc 11 499 6 view .LVU247
 949              	.LBB323:
 502:main.cpp      **** }
ARM GAS  C:\Users\jcjco\AppData\Local\Temp\ccocbARg.s 			page 41


 950              		.loc 11 502 3 view .LVU248
 502:main.cpp      **** }
 951              		.loc 11 502 47 is_stmt 0 view .LVU249
 952 0024 0E48     		ldr	r0, .L63+16
 953              	.LVL53:
 502:main.cpp      **** }
 954              		.loc 11 502 57 view .LVU250
 955 0026 1154     		strb	r1, [r2, r0]
 956              	.LVL54:
 502:main.cpp      **** }
 957              		.loc 11 502 57 view .LVU251
 958              	.LBE323:
 959              	.LBE322:
 482:main.cpp      **** 	
 960              		.loc 11 482 2 is_stmt 1 view .LVU252
 482:main.cpp      **** 	
 961              		.loc 11 482 8 is_stmt 0 view .LVU253
 962 0028 1A68     		ldr	r2, [r3]
 963 002a 511C     		adds	r1, r2, #1
 964              	.LVL55:
 484:main.cpp      **** 	{
 965              		.loc 11 484 2 view .LVU254
 966 002c A942     		cmp	r1, r5
 482:main.cpp      **** 	
 967              		.loc 11 482 8 view .LVU255
 968 002e 1960     		str	r1, [r3]
 484:main.cpp      **** 	{
 969              		.loc 11 484 2 is_stmt 1 view .LVU256
 970 0030 0CD9     		bls	.L60
 488:main.cpp      **** 		seqmem++;
 971              		.loc 11 488 3 view .LVU257
 488:main.cpp      **** 		seqmem++;
 972              		.loc 11 488 16 is_stmt 0 view .LVU258
 973 0032 2188     		ldrh	r1, [r4]
 974              	.LVL56:
 975              	.LBB324:
 976              	.LBI324:
 515:main.cpp      **** {
 977              		.loc 11 515 6 is_stmt 1 view .LVU259
 978              	.LBB325:
 518:main.cpp      **** }
 979              		.loc 11 518 3 view .LVU260
 518:main.cpp      **** }
 980              		.loc 11 518 60 is_stmt 0 view .LVU261
 981 0034 1152     		strh	r1, [r2, r0]	@ movhi
 982              	.LVL57:
 518:main.cpp      **** }
 983              		.loc 11 518 60 view .LVU262
 984              	.LBE325:
 985              	.LBE324:
 489:main.cpp      **** 		seqmem++;
 986              		.loc 11 489 3 is_stmt 1 view .LVU263
 490:main.cpp      **** 		writeSramWord(seqmem, 0xFFFF);
 987              		.loc 11 490 3 view .LVU264
 491:main.cpp      **** 		seqmode = 0;
 988              		.loc 11 491 3 view .LVU265
 989              	.LBB326:
ARM GAS  C:\Users\jcjco\AppData\Local\Temp\ccocbARg.s 			page 42


 990              	.LBI326:
 515:main.cpp      **** {
 991              		.loc 11 515 6 view .LVU266
 992              	.LBB327:
 518:main.cpp      **** }
 993              		.loc 11 518 3 view .LVU267
 518:main.cpp      **** }
 994              		.loc 11 518 60 is_stmt 0 view .LVU268
 995 0036 4FF6FF70 		movw	r0, #65535
 518:main.cpp      **** }
 996              		.loc 11 518 48 view .LVU269
 997 003a 0A49     		ldr	r1, .L63+20
 518:main.cpp      **** }
 998              		.loc 11 518 60 view .LVU270
 999 003c 5052     		strh	r0, [r2, r1]	@ movhi
 1000              	.LVL58:
 518:main.cpp      **** }
 1001              		.loc 11 518 60 view .LVU271
 1002              	.LBE327:
 1003              	.LBE326:
 492:main.cpp      **** 		seqclock = 0;
 1004              		.loc 11 492 3 is_stmt 1 view .LVU272
 492:main.cpp      **** 		seqclock = 0;
 1005              		.loc 11 492 11 is_stmt 0 view .LVU273
 1006 003e 0022     		movs	r2, #0
 1007 0040 0948     		ldr	r0, .L63+24
 494:main.cpp      **** 	}
 1008              		.loc 11 494 10 view .LVU274
 1009 0042 4FF48031 		mov	r1, #65536
 493:main.cpp      **** 		seqmem = 0x00010000;
 1010              		.loc 11 493 12 view .LVU275
 1011 0046 2280     		strh	r2, [r4]	@ movhi
 492:main.cpp      **** 		seqclock = 0;
 1012              		.loc 11 492 11 view .LVU276
 1013 0048 0280     		strh	r2, [r0]	@ movhi
 493:main.cpp      **** 		seqmem = 0x00010000;
 1014              		.loc 11 493 3 is_stmt 1 view .LVU277
 494:main.cpp      **** 	}
 1015              		.loc 11 494 3 view .LVU278
 494:main.cpp      **** 	}
 1016              		.loc 11 494 10 is_stmt 0 view .LVU279
 1017 004a 1960     		str	r1, [r3]
 1018              	.L60:
 496:main.cpp      **** 
 1019              		.loc 11 496 2 view .LVU280
 1020 004c 30BC     		pop	{r4, r5}
 1021              		.cfi_restore 5
 1022              		.cfi_restore 4
 1023              		.cfi_def_cfa_offset 0
 1024 004e 7047     		bx	lr
 1025              	.L64:
 1026              		.align	2
 1027              	.L63:
 1028 0050 00000000 		.word	.LANCHOR2
 1029 0054 00000000 		.word	.LANCHOR4
 1030 0058 02000020 		.word	536870914
 1031 005c F8FF0700 		.word	524280
ARM GAS  C:\Users\jcjco\AppData\Local\Temp\ccocbARg.s 			page 43


 1032 0060 01000020 		.word	536870913
 1033 0064 03000020 		.word	536870915
 1034 0068 00000000 		.word	.LANCHOR8
 1035              		.cfi_endproc
 1036              	.LFE4795:
 1038              		.section	.text._Z17HandleMidiMessageN5daisy9MidiEventE,"ax",%progbits
 1039              		.align	1
 1040              		.p2align 2,,3
 1041              		.global	_Z17HandleMidiMessageN5daisy9MidiEventE
 1042              		.syntax unified
 1043              		.thumb
 1044              		.thumb_func
 1045              		.fpu fpv5-d16
 1047              	_Z17HandleMidiMessageN5daisy9MidiEventE:
 1048              	.LFB4793:
  84:main.cpp      ****     switch(m.type)
 1049              		.loc 11 84 1 is_stmt 1 view -0
 1050              		.cfi_startproc
 1051              		@ args = 144, pretend = 16, frame = 8
 1052              		@ frame_needed = 0, uses_anonymous_args = 0
 1053 0000 84B0     		sub	sp, sp, #16
 1054              		.cfi_def_cfa_offset 16
 1055 0002 F0B5     		push	{r4, r5, r6, r7, lr}
 1056              		.cfi_def_cfa_offset 36
 1057              		.cfi_offset 4, -36
 1058              		.cfi_offset 5, -32
 1059              		.cfi_offset 6, -28
 1060              		.cfi_offset 7, -24
 1061              		.cfi_offset 14, -20
 1062 0004 83B0     		sub	sp, sp, #12
 1063              		.cfi_def_cfa_offset 48
  84:main.cpp      ****     switch(m.type)
 1064              		.loc 11 84 1 is_stmt 0 view .LVU282
 1065 0006 08AC     		add	r4, sp, #32
 1066 0008 84E80F00 		stm	r4, {r0, r1, r2, r3}
 1067 000c 9DF82030 		ldrb	r3, [sp, #32]	@ zero_extendqisi2
 1068              	.LVL59:
  84:main.cpp      ****     switch(m.type)
 1069              		.loc 11 84 1 view .LVU283
 1070 0010 9DF82840 		ldrb	r4, [sp, #40]	@ zero_extendqisi2
 1071              	.LVL60:
  84:main.cpp      ****     switch(m.type)
 1072              		.loc 11 84 1 view .LVU284
 1073 0014 9DF82920 		ldrb	r2, [sp, #41]	@ zero_extendqisi2
 1074              	.LVL61:
  85:main.cpp      ****     {
 1075              		.loc 11 85 5 is_stmt 1 view .LVU285
 1076 0018 062B     		cmp	r3, #6
 1077 001a 11D8     		bhi	.L65
 1078 001c DFE813F0 		tbh	[pc, r3, lsl #1]
 1079              	.L68:
 1080 0020 1E01     		.2byte	(.L71-.L68)/2
 1081 0022 0700     		.2byte	(.L70-.L68)/2
 1082 0024 1000     		.2byte	(.L65-.L68)/2
 1083 0026 2800     		.2byte	(.L69-.L68)/2
 1084 0028 1000     		.2byte	(.L65-.L68)/2
 1085 002a 1000     		.2byte	(.L65-.L68)/2
ARM GAS  C:\Users\jcjco\AppData\Local\Temp\ccocbARg.s 			page 44


 1086 002c 1500     		.2byte	(.L67-.L68)/2
 1087              		.p2align 1
 1088              	.L70:
  87:main.cpp      ****         {
 1089              		.loc 11 87 9 view .LVU286
  88:main.cpp      ****             NoteOnEvent p = m.AsNoteOn();
 1090              		.loc 11 88 9 view .LVU287
 1091              	.LBB328:
 1092              	.LBB329:
  89:main.cpp      ****             if ((vasynth.midi_channel_ == MIDI_CHANNEL_ALL) || (p.channel == vasynth.midi_channel_)
 1093              		.loc 11 89 13 view .LVU288
 1094              	.LVL62:
 1095              	.LBB330:
 1096              	.LBI330:
 1097              		.file 14 "../../libDaisy/src/hid/MidiEvent.h"
   1:../../libDaisy/src/hid/MidiEvent.h **** namespace daisy
   2:../../libDaisy/src/hid/MidiEvent.h **** {
   3:../../libDaisy/src/hid/MidiEvent.h **** /** @addtogroup midi MIDI
   4:../../libDaisy/src/hid/MidiEvent.h ****  *  @ingroup human_interface
   5:../../libDaisy/src/hid/MidiEvent.h ****  *  @ingroup libdaisy
   6:../../libDaisy/src/hid/MidiEvent.h ****  *  @brief MIDI handlers, transports, and message types
   7:../../libDaisy/src/hid/MidiEvent.h ****  *  @{
   8:../../libDaisy/src/hid/MidiEvent.h ****  */
   9:../../libDaisy/src/hid/MidiEvent.h **** 
  10:../../libDaisy/src/hid/MidiEvent.h **** /** @defgroup midi_events MIDI_EVENTS 
  11:../../libDaisy/src/hid/MidiEvent.h ****  *  @{
  12:../../libDaisy/src/hid/MidiEvent.h **** */
  13:../../libDaisy/src/hid/MidiEvent.h **** 
  14:../../libDaisy/src/hid/MidiEvent.h **** /** Parsed from the Status Byte, these are the common Midi Messages that can be handled. \n
  15:../../libDaisy/src/hid/MidiEvent.h **** At this time only 3-byte messages are correctly parsed into MidiEvents.
  16:../../libDaisy/src/hid/MidiEvent.h **** */
  17:../../libDaisy/src/hid/MidiEvent.h **** enum MidiMessageType
  18:../../libDaisy/src/hid/MidiEvent.h **** {
  19:../../libDaisy/src/hid/MidiEvent.h ****     NoteOff,               /**< & */
  20:../../libDaisy/src/hid/MidiEvent.h ****     NoteOn,                /**< & */
  21:../../libDaisy/src/hid/MidiEvent.h ****     PolyphonicKeyPressure, /**< & */
  22:../../libDaisy/src/hid/MidiEvent.h ****     ControlChange,         /**< & */
  23:../../libDaisy/src/hid/MidiEvent.h ****     ProgramChange,         /**< & */
  24:../../libDaisy/src/hid/MidiEvent.h ****     ChannelPressure,       /**< & */
  25:../../libDaisy/src/hid/MidiEvent.h ****     PitchBend,             /**< & */
  26:../../libDaisy/src/hid/MidiEvent.h ****     SystemCommon,          /**< & */
  27:../../libDaisy/src/hid/MidiEvent.h ****     SystemRealTime,        /**< & */
  28:../../libDaisy/src/hid/MidiEvent.h ****     ChannelMode,           /**< & */
  29:../../libDaisy/src/hid/MidiEvent.h ****     MessageLast,           /**< & */
  30:../../libDaisy/src/hid/MidiEvent.h **** };
  31:../../libDaisy/src/hid/MidiEvent.h **** 
  32:../../libDaisy/src/hid/MidiEvent.h **** enum SystemCommonType
  33:../../libDaisy/src/hid/MidiEvent.h **** {
  34:../../libDaisy/src/hid/MidiEvent.h ****     SystemExclusive,     /**< & */
  35:../../libDaisy/src/hid/MidiEvent.h ****     MTCQuarterFrame,     /**< & */
  36:../../libDaisy/src/hid/MidiEvent.h ****     SongPositionPointer, /**< & */
  37:../../libDaisy/src/hid/MidiEvent.h ****     SongSelect,          /**< & */
  38:../../libDaisy/src/hid/MidiEvent.h ****     SCUndefined0,        /**< & */
  39:../../libDaisy/src/hid/MidiEvent.h ****     SCUndefined1,        /**< & */
  40:../../libDaisy/src/hid/MidiEvent.h ****     TuneRequest,         /**< & */
  41:../../libDaisy/src/hid/MidiEvent.h ****     SysExEnd,            /**< & */
  42:../../libDaisy/src/hid/MidiEvent.h ****     SystemCommonLast,    /**< & */
ARM GAS  C:\Users\jcjco\AppData\Local\Temp\ccocbARg.s 			page 45


  43:../../libDaisy/src/hid/MidiEvent.h **** };
  44:../../libDaisy/src/hid/MidiEvent.h **** 
  45:../../libDaisy/src/hid/MidiEvent.h **** enum SystemRealTimeType
  46:../../libDaisy/src/hid/MidiEvent.h **** {
  47:../../libDaisy/src/hid/MidiEvent.h ****     TimingClock,        /**< & */
  48:../../libDaisy/src/hid/MidiEvent.h ****     SRTUndefined0,      /**< & */
  49:../../libDaisy/src/hid/MidiEvent.h ****     Start,              /**< & */
  50:../../libDaisy/src/hid/MidiEvent.h ****     Continue,           /**< & */
  51:../../libDaisy/src/hid/MidiEvent.h ****     Stop,               /**< & */
  52:../../libDaisy/src/hid/MidiEvent.h ****     SRTUndefined1,      /**< & */
  53:../../libDaisy/src/hid/MidiEvent.h ****     ActiveSensing,      /**< & */
  54:../../libDaisy/src/hid/MidiEvent.h ****     Reset,              /**< & */
  55:../../libDaisy/src/hid/MidiEvent.h ****     SystemRealTimeLast, /**< & */
  56:../../libDaisy/src/hid/MidiEvent.h **** };
  57:../../libDaisy/src/hid/MidiEvent.h **** 
  58:../../libDaisy/src/hid/MidiEvent.h **** enum ChannelModeType
  59:../../libDaisy/src/hid/MidiEvent.h **** {
  60:../../libDaisy/src/hid/MidiEvent.h ****     AllSoundOff,         /**< & */
  61:../../libDaisy/src/hid/MidiEvent.h ****     ResetAllControllers, /**< & */
  62:../../libDaisy/src/hid/MidiEvent.h ****     LocalControl,        /**< & */
  63:../../libDaisy/src/hid/MidiEvent.h ****     AllNotesOff,         /**< & */
  64:../../libDaisy/src/hid/MidiEvent.h ****     OmniModeOff,         /**< & */
  65:../../libDaisy/src/hid/MidiEvent.h ****     OmniModeOn,          /**< & */
  66:../../libDaisy/src/hid/MidiEvent.h ****     MonoModeOn,          /**< & */
  67:../../libDaisy/src/hid/MidiEvent.h ****     PolyModeOn,          /**< & */
  68:../../libDaisy/src/hid/MidiEvent.h ****     ChannelModeLast,     /**< & */
  69:../../libDaisy/src/hid/MidiEvent.h **** };
  70:../../libDaisy/src/hid/MidiEvent.h **** 
  71:../../libDaisy/src/hid/MidiEvent.h **** /** Struct containing note, and velocity data for a given channel.
  72:../../libDaisy/src/hid/MidiEvent.h **** Can be made from MidiEvent
  73:../../libDaisy/src/hid/MidiEvent.h **** */
  74:../../libDaisy/src/hid/MidiEvent.h **** struct NoteOffEvent
  75:../../libDaisy/src/hid/MidiEvent.h **** {
  76:../../libDaisy/src/hid/MidiEvent.h ****     int     channel;  /**< & */
  77:../../libDaisy/src/hid/MidiEvent.h ****     uint8_t note;     /**< & */
  78:../../libDaisy/src/hid/MidiEvent.h ****     uint8_t velocity; /**< & */
  79:../../libDaisy/src/hid/MidiEvent.h **** };
  80:../../libDaisy/src/hid/MidiEvent.h **** 
  81:../../libDaisy/src/hid/MidiEvent.h **** 
  82:../../libDaisy/src/hid/MidiEvent.h **** /** Struct containing note, and velocity data for a given channel.
  83:../../libDaisy/src/hid/MidiEvent.h **** Can be made from MidiEvent
  84:../../libDaisy/src/hid/MidiEvent.h **** */
  85:../../libDaisy/src/hid/MidiEvent.h **** struct NoteOnEvent
  86:../../libDaisy/src/hid/MidiEvent.h **** {
  87:../../libDaisy/src/hid/MidiEvent.h ****     int     channel;  /**< & */
  88:../../libDaisy/src/hid/MidiEvent.h ****     uint8_t note;     /**< & */
  89:../../libDaisy/src/hid/MidiEvent.h ****     uint8_t velocity; /**< & */
  90:../../libDaisy/src/hid/MidiEvent.h **** };
  91:../../libDaisy/src/hid/MidiEvent.h **** /** Struct containing note, and pressure data for a given channel.
  92:../../libDaisy/src/hid/MidiEvent.h **** Can be made from MidiEvent
  93:../../libDaisy/src/hid/MidiEvent.h **** */
  94:../../libDaisy/src/hid/MidiEvent.h **** struct PolyphonicKeyPressureEvent
  95:../../libDaisy/src/hid/MidiEvent.h **** {
  96:../../libDaisy/src/hid/MidiEvent.h ****     int     channel;
  97:../../libDaisy/src/hid/MidiEvent.h ****     uint8_t note;
  98:../../libDaisy/src/hid/MidiEvent.h ****     uint8_t pressure;
  99:../../libDaisy/src/hid/MidiEvent.h **** };
ARM GAS  C:\Users\jcjco\AppData\Local\Temp\ccocbARg.s 			page 46


 100:../../libDaisy/src/hid/MidiEvent.h **** /** Struct containing control number, and value for a given channel.
 101:../../libDaisy/src/hid/MidiEvent.h **** Can be made from MidiEvent
 102:../../libDaisy/src/hid/MidiEvent.h **** */
 103:../../libDaisy/src/hid/MidiEvent.h **** struct ControlChangeEvent
 104:../../libDaisy/src/hid/MidiEvent.h **** {
 105:../../libDaisy/src/hid/MidiEvent.h ****     int     channel;        /**< & */
 106:../../libDaisy/src/hid/MidiEvent.h ****     uint8_t control_number; /**< & */
 107:../../libDaisy/src/hid/MidiEvent.h ****     uint8_t 
 108:../../libDaisy/src/hid/MidiEvent.h ****     value;          /**< & */
 109:../../libDaisy/src/hid/MidiEvent.h **** };
 110:../../libDaisy/src/hid/MidiEvent.h **** /** Struct containing new program number, for a given channel.
 111:../../libDaisy/src/hid/MidiEvent.h **** Can be made from MidiEvent
 112:../../libDaisy/src/hid/MidiEvent.h **** */
 113:../../libDaisy/src/hid/MidiEvent.h **** struct ProgramChangeEvent
 114:../../libDaisy/src/hid/MidiEvent.h **** {
 115:../../libDaisy/src/hid/MidiEvent.h ****     int     channel; /**< & */
 116:../../libDaisy/src/hid/MidiEvent.h ****     uint8_t program; /**< & */
 117:../../libDaisy/src/hid/MidiEvent.h **** };
 118:../../libDaisy/src/hid/MidiEvent.h **** /** Struct containing pressure (aftertouch), for a given channel.
 119:../../libDaisy/src/hid/MidiEvent.h **** Can be made from MidiEvent
 120:../../libDaisy/src/hid/MidiEvent.h **** */
 121:../../libDaisy/src/hid/MidiEvent.h **** struct ChannelPressureEvent
 122:../../libDaisy/src/hid/MidiEvent.h **** {
 123:../../libDaisy/src/hid/MidiEvent.h ****     int     channel;  /**< & */
 124:../../libDaisy/src/hid/MidiEvent.h ****     uint8_t pressure; /**< & */
 125:../../libDaisy/src/hid/MidiEvent.h **** };
 126:../../libDaisy/src/hid/MidiEvent.h **** /** Struct containing pitch bend value for a given channel.
 127:../../libDaisy/src/hid/MidiEvent.h **** Can be made from MidiEvent
 128:../../libDaisy/src/hid/MidiEvent.h **** */
 129:../../libDaisy/src/hid/MidiEvent.h **** struct PitchBendEvent
 130:../../libDaisy/src/hid/MidiEvent.h **** {
 131:../../libDaisy/src/hid/MidiEvent.h ****     int     channel; /**< & */
 132:../../libDaisy/src/hid/MidiEvent.h ****     int16_t value;   /**< & */
 133:../../libDaisy/src/hid/MidiEvent.h **** };
 134:../../libDaisy/src/hid/MidiEvent.h **** /** Struct containing channel mode event for a given channel.
 135:../../libDaisy/src/hid/MidiEvent.h **** Can be made from MidiEvent
 136:../../libDaisy/src/hid/MidiEvent.h **** */
 137:../../libDaisy/src/hid/MidiEvent.h **** struct ChannelModeEvent
 138:../../libDaisy/src/hid/MidiEvent.h **** {
 139:../../libDaisy/src/hid/MidiEvent.h ****     int             channel;    /**< & */
 140:../../libDaisy/src/hid/MidiEvent.h ****     ChannelModeType event_type; /**< & */
 141:../../libDaisy/src/hid/MidiEvent.h ****     int16_t         value;      /**< & */
 142:../../libDaisy/src/hid/MidiEvent.h **** };
 143:../../libDaisy/src/hid/MidiEvent.h **** /** Struct containing sysex data.
 144:../../libDaisy/src/hid/MidiEvent.h **** Can be made from MidiEvent
 145:../../libDaisy/src/hid/MidiEvent.h **** */
 146:../../libDaisy/src/hid/MidiEvent.h **** struct SystemExclusiveEvent
 147:../../libDaisy/src/hid/MidiEvent.h **** {
 148:../../libDaisy/src/hid/MidiEvent.h ****     int     length;
 149:../../libDaisy/src/hid/MidiEvent.h ****     uint8_t data[SYSEX_BUFFER_LEN]; /**< & */
 150:../../libDaisy/src/hid/MidiEvent.h **** };
 151:../../libDaisy/src/hid/MidiEvent.h **** /** Struct containing QuarterFrame data.
 152:../../libDaisy/src/hid/MidiEvent.h **** Can be made from MidiEvent
 153:../../libDaisy/src/hid/MidiEvent.h **** */
 154:../../libDaisy/src/hid/MidiEvent.h **** struct MTCQuarterFrameEvent
 155:../../libDaisy/src/hid/MidiEvent.h **** {
 156:../../libDaisy/src/hid/MidiEvent.h ****     uint8_t message_type; /**< & */
ARM GAS  C:\Users\jcjco\AppData\Local\Temp\ccocbARg.s 			page 47


 157:../../libDaisy/src/hid/MidiEvent.h ****     uint8_t value;        /**< & */
 158:../../libDaisy/src/hid/MidiEvent.h **** };
 159:../../libDaisy/src/hid/MidiEvent.h **** /** Struct containing song position data.
 160:../../libDaisy/src/hid/MidiEvent.h **** Can be made from MidiEvent
 161:../../libDaisy/src/hid/MidiEvent.h **** */
 162:../../libDaisy/src/hid/MidiEvent.h **** struct SongPositionPointerEvent
 163:../../libDaisy/src/hid/MidiEvent.h **** {
 164:../../libDaisy/src/hid/MidiEvent.h ****     uint16_t position; /**< & */
 165:../../libDaisy/src/hid/MidiEvent.h **** };
 166:../../libDaisy/src/hid/MidiEvent.h **** /** Struct containing song select data.
 167:../../libDaisy/src/hid/MidiEvent.h **** Can be made from MidiEvent
 168:../../libDaisy/src/hid/MidiEvent.h **** */
 169:../../libDaisy/src/hid/MidiEvent.h **** struct SongSelectEvent
 170:../../libDaisy/src/hid/MidiEvent.h **** {
 171:../../libDaisy/src/hid/MidiEvent.h ****     uint8_t song; /**< & */
 172:../../libDaisy/src/hid/MidiEvent.h **** };
 173:../../libDaisy/src/hid/MidiEvent.h **** /** Struct containing sound off data.
 174:../../libDaisy/src/hid/MidiEvent.h **** Can be made from MidiEvent
 175:../../libDaisy/src/hid/MidiEvent.h **** */
 176:../../libDaisy/src/hid/MidiEvent.h **** struct AllSoundOffEvent
 177:../../libDaisy/src/hid/MidiEvent.h **** {
 178:../../libDaisy/src/hid/MidiEvent.h ****     int channel; /**< & */
 179:../../libDaisy/src/hid/MidiEvent.h **** };
 180:../../libDaisy/src/hid/MidiEvent.h **** /** Struct containing ResetAllControllersEvent data.
 181:../../libDaisy/src/hid/MidiEvent.h **** Can be made from MidiEvent
 182:../../libDaisy/src/hid/MidiEvent.h **** */
 183:../../libDaisy/src/hid/MidiEvent.h **** struct ResetAllControllersEvent
 184:../../libDaisy/src/hid/MidiEvent.h **** {
 185:../../libDaisy/src/hid/MidiEvent.h ****     int     channel; /**< & */
 186:../../libDaisy/src/hid/MidiEvent.h ****     uint8_t value;   /**< & */
 187:../../libDaisy/src/hid/MidiEvent.h **** };
 188:../../libDaisy/src/hid/MidiEvent.h **** /** Struct containing LocalControlEvent data.
 189:../../libDaisy/src/hid/MidiEvent.h **** Can be made from MidiEvent
 190:../../libDaisy/src/hid/MidiEvent.h **** */
 191:../../libDaisy/src/hid/MidiEvent.h **** struct LocalControlEvent
 192:../../libDaisy/src/hid/MidiEvent.h **** {
 193:../../libDaisy/src/hid/MidiEvent.h ****     int  channel;           /**< & */
 194:../../libDaisy/src/hid/MidiEvent.h ****     bool local_control_off; /**< & */
 195:../../libDaisy/src/hid/MidiEvent.h ****     bool local_control_on;  /**< & */
 196:../../libDaisy/src/hid/MidiEvent.h **** };
 197:../../libDaisy/src/hid/MidiEvent.h **** /** Struct containing AllNotesOffEvent data.
 198:../../libDaisy/src/hid/MidiEvent.h **** Can be made from MidiEvent
 199:../../libDaisy/src/hid/MidiEvent.h **** */
 200:../../libDaisy/src/hid/MidiEvent.h **** struct AllNotesOffEvent
 201:../../libDaisy/src/hid/MidiEvent.h **** {
 202:../../libDaisy/src/hid/MidiEvent.h ****     int channel; /**< & */
 203:../../libDaisy/src/hid/MidiEvent.h **** };
 204:../../libDaisy/src/hid/MidiEvent.h **** /** Struct containing OmniModeOffEvent data. 
 205:../../libDaisy/src/hid/MidiEvent.h ****  * Can be made from MidiEvent
 206:../../libDaisy/src/hid/MidiEvent.h **** */
 207:../../libDaisy/src/hid/MidiEvent.h **** struct OmniModeOffEvent
 208:../../libDaisy/src/hid/MidiEvent.h **** {
 209:../../libDaisy/src/hid/MidiEvent.h ****     int channel; /**< & */
 210:../../libDaisy/src/hid/MidiEvent.h **** };
 211:../../libDaisy/src/hid/MidiEvent.h **** /** Struct containing OmniModeOnEvent data.
 212:../../libDaisy/src/hid/MidiEvent.h **** Can be made from MidiEvent
 213:../../libDaisy/src/hid/MidiEvent.h **** */
ARM GAS  C:\Users\jcjco\AppData\Local\Temp\ccocbARg.s 			page 48


 214:../../libDaisy/src/hid/MidiEvent.h **** struct OmniModeOnEvent
 215:../../libDaisy/src/hid/MidiEvent.h **** {
 216:../../libDaisy/src/hid/MidiEvent.h ****     int channel; /**< & */
 217:../../libDaisy/src/hid/MidiEvent.h **** };
 218:../../libDaisy/src/hid/MidiEvent.h **** /** Struct containing MonoModeOnEvent data.
 219:../../libDaisy/src/hid/MidiEvent.h **** Can be made from MidiEvent
 220:../../libDaisy/src/hid/MidiEvent.h **** */
 221:../../libDaisy/src/hid/MidiEvent.h **** struct MonoModeOnEvent
 222:../../libDaisy/src/hid/MidiEvent.h **** {
 223:../../libDaisy/src/hid/MidiEvent.h ****     int     channel;      /**< & */
 224:../../libDaisy/src/hid/MidiEvent.h ****     uint8_t num_channels; /**< & */
 225:../../libDaisy/src/hid/MidiEvent.h **** };
 226:../../libDaisy/src/hid/MidiEvent.h **** /** Struct containing PolyModeOnEvent data.
 227:../../libDaisy/src/hid/MidiEvent.h **** Can be made from MidiEvent
 228:../../libDaisy/src/hid/MidiEvent.h **** */
 229:../../libDaisy/src/hid/MidiEvent.h **** struct PolyModeOnEvent
 230:../../libDaisy/src/hid/MidiEvent.h **** {
 231:../../libDaisy/src/hid/MidiEvent.h ****     int channel; /**< & */
 232:../../libDaisy/src/hid/MidiEvent.h **** };
 233:../../libDaisy/src/hid/MidiEvent.h **** 
 234:../../libDaisy/src/hid/MidiEvent.h **** 
 235:../../libDaisy/src/hid/MidiEvent.h **** /** Simple MidiEvent with message type, channel, and data[2] members.
 236:../../libDaisy/src/hid/MidiEvent.h **** */
 237:../../libDaisy/src/hid/MidiEvent.h **** struct MidiEvent
 238:../../libDaisy/src/hid/MidiEvent.h **** {
 239:../../libDaisy/src/hid/MidiEvent.h ****     // Newer ish.
 240:../../libDaisy/src/hid/MidiEvent.h ****     MidiMessageType    type;                         /**< & */
 241:../../libDaisy/src/hid/MidiEvent.h ****     int                channel;                      /**< & */
 242:../../libDaisy/src/hid/MidiEvent.h ****     uint8_t            data[2];                      /**< & */
 243:../../libDaisy/src/hid/MidiEvent.h ****     uint8_t            sysex_data[SYSEX_BUFFER_LEN]; /**< & */
 244:../../libDaisy/src/hid/MidiEvent.h ****     uint8_t            sysex_message_len;
 245:../../libDaisy/src/hid/MidiEvent.h ****     SystemCommonType   sc_type;
 246:../../libDaisy/src/hid/MidiEvent.h ****     SystemRealTimeType srt_type;
 247:../../libDaisy/src/hid/MidiEvent.h ****     ChannelModeType    cm_type;
 248:../../libDaisy/src/hid/MidiEvent.h **** 
 249:../../libDaisy/src/hid/MidiEvent.h ****     /** Returns the data within the MidiEvent as a NoteOffEvent struct */
 250:../../libDaisy/src/hid/MidiEvent.h ****     NoteOffEvent AsNoteOff()
 251:../../libDaisy/src/hid/MidiEvent.h ****     {
 252:../../libDaisy/src/hid/MidiEvent.h ****         NoteOffEvent m;
 253:../../libDaisy/src/hid/MidiEvent.h ****         m.channel  = channel;
 254:../../libDaisy/src/hid/MidiEvent.h ****         m.note     = data[0];
 255:../../libDaisy/src/hid/MidiEvent.h ****         m.velocity = data[1];
 256:../../libDaisy/src/hid/MidiEvent.h ****         return m;
 257:../../libDaisy/src/hid/MidiEvent.h ****     }
 258:../../libDaisy/src/hid/MidiEvent.h **** 
 259:../../libDaisy/src/hid/MidiEvent.h ****     /** Returns the data within the MidiEvent as a NoteOnEvent struct */
 260:../../libDaisy/src/hid/MidiEvent.h ****     NoteOnEvent AsNoteOn()
 1098              		.loc 14 260 17 view .LVU289
 1099              	.LBB331:
 261:../../libDaisy/src/hid/MidiEvent.h ****     {
 262:../../libDaisy/src/hid/MidiEvent.h ****         NoteOnEvent m;
 1100              		.loc 14 262 9 view .LVU290
 263:../../libDaisy/src/hid/MidiEvent.h ****         m.channel  = channel;
 1101              		.loc 14 263 9 view .LVU291
 264:../../libDaisy/src/hid/MidiEvent.h ****         m.note     = data[0];
 1102              		.loc 14 264 9 view .LVU292
 265:../../libDaisy/src/hid/MidiEvent.h ****         m.velocity = data[1];
ARM GAS  C:\Users\jcjco\AppData\Local\Temp\ccocbARg.s 			page 49


 1103              		.loc 14 265 9 view .LVU293
 266:../../libDaisy/src/hid/MidiEvent.h ****         return m;
 1104              		.loc 14 266 9 view .LVU294
 1105              		.loc 14 266 9 is_stmt 0 view .LVU295
 1106              	.LBE331:
 1107              	.LBE330:
  90:main.cpp      **** 			{
 1108              		.loc 11 90 13 is_stmt 1 view .LVU296
  90:main.cpp      **** 			{
 1109              		.loc 11 90 26 is_stmt 0 view .LVU297
 1110 002e D04B     		ldr	r3, .L146
 1111 0030 93F88930 		ldrb	r3, [r3, #137]	@ zero_extendqisi2
  90:main.cpp      **** 			{
 1112              		.loc 11 90 13 view .LVU298
 1113 0034 112B     		cmp	r3, #17
 1114 0036 00F02A81 		beq	.L72
  90:main.cpp      **** 			{
 1115              		.loc 11 90 61 discriminator 1 view .LVU299
 1116 003a 8B42     		cmp	r3, r1
 1117 003c 00F02781 		beq	.L72
 1118              	.LVL63:
 1119              	.L65:
  90:main.cpp      **** 			{
 1120              		.loc 11 90 61 discriminator 1 view .LVU300
 1121              	.LBE329:
 1122              	.LBE328:
 409:main.cpp      **** 
 1123              		.loc 11 409 1 view .LVU301
 1124 0040 03B0     		add	sp, sp, #12
 1125              		.cfi_remember_state
 1126              		.cfi_def_cfa_offset 36
 1127              		@ sp needed
 1128 0042 BDE8F040 		pop	{r4, r5, r6, r7, lr}
 1129              		.cfi_restore 14
 1130              		.cfi_restore 7
 1131              		.cfi_restore 6
 1132              		.cfi_restore 5
 1133              		.cfi_restore 4
 1134              		.cfi_def_cfa_offset 16
 1135 0046 04B0     		add	sp, sp, #16
 1136              		.cfi_def_cfa_offset 0
 1137 0048 7047     		bx	lr
 1138              	.LVL64:
 1139              	.L67:
 1140              		.cfi_restore_state
 115:main.cpp      ****         {
 1141              		.loc 11 115 3 is_stmt 1 view .LVU302
 116:main.cpp      ****             PitchBendEvent p = m.AsPitchBend();
 1142              		.loc 11 116 9 view .LVU303
 1143              	.LBB369:
 1144              	.LBB332:
 117:main.cpp      ****             if ((vasynth.midi_channel_ == MIDI_CHANNEL_ALL) || (p.channel == vasynth.midi_channel_)
 1145              		.loc 11 117 13 view .LVU304
 1146              	.LBB333:
 1147              	.LBI333:
 267:../../libDaisy/src/hid/MidiEvent.h ****     }
 268:../../libDaisy/src/hid/MidiEvent.h **** 
ARM GAS  C:\Users\jcjco\AppData\Local\Temp\ccocbARg.s 			page 50


 269:../../libDaisy/src/hid/MidiEvent.h ****     /** Returns the data within the MidiEvent as a PolyphonicKeyPressureEvent struct */
 270:../../libDaisy/src/hid/MidiEvent.h ****     PolyphonicKeyPressureEvent AsPolyphonicKeyPressure()
 271:../../libDaisy/src/hid/MidiEvent.h ****     {
 272:../../libDaisy/src/hid/MidiEvent.h ****         PolyphonicKeyPressureEvent m;
 273:../../libDaisy/src/hid/MidiEvent.h ****         m.channel  = channel;
 274:../../libDaisy/src/hid/MidiEvent.h ****         m.note     = data[0];
 275:../../libDaisy/src/hid/MidiEvent.h ****         m.pressure = data[1];
 276:../../libDaisy/src/hid/MidiEvent.h ****         return m;
 277:../../libDaisy/src/hid/MidiEvent.h ****     }
 278:../../libDaisy/src/hid/MidiEvent.h **** 
 279:../../libDaisy/src/hid/MidiEvent.h ****     /** Returns the data within the MidiEvent as a ControlChangeEvent struct.*/
 280:../../libDaisy/src/hid/MidiEvent.h ****     ControlChangeEvent AsControlChange()
 281:../../libDaisy/src/hid/MidiEvent.h ****     {
 282:../../libDaisy/src/hid/MidiEvent.h ****         ControlChangeEvent m;
 283:../../libDaisy/src/hid/MidiEvent.h ****         m.channel        = channel;
 284:../../libDaisy/src/hid/MidiEvent.h ****         m.control_number = data[0];
 285:../../libDaisy/src/hid/MidiEvent.h ****         m.value          = data[1];
 286:../../libDaisy/src/hid/MidiEvent.h ****         return m;
 287:../../libDaisy/src/hid/MidiEvent.h ****     }
 288:../../libDaisy/src/hid/MidiEvent.h **** 
 289:../../libDaisy/src/hid/MidiEvent.h ****     /** Returns the data within the MidiEvent as a ProgramChangeEvent struct.*/
 290:../../libDaisy/src/hid/MidiEvent.h ****     ProgramChangeEvent AsProgramChange()
 291:../../libDaisy/src/hid/MidiEvent.h ****     {
 292:../../libDaisy/src/hid/MidiEvent.h ****         ProgramChangeEvent m;
 293:../../libDaisy/src/hid/MidiEvent.h ****         m.channel = channel;
 294:../../libDaisy/src/hid/MidiEvent.h ****         m.program = data[0];
 295:../../libDaisy/src/hid/MidiEvent.h ****         return m;
 296:../../libDaisy/src/hid/MidiEvent.h ****     }
 297:../../libDaisy/src/hid/MidiEvent.h **** 
 298:../../libDaisy/src/hid/MidiEvent.h ****     /** Returns the data within the MidiEvent as a ProgramChangeEvent struct.*/
 299:../../libDaisy/src/hid/MidiEvent.h ****     ChannelPressureEvent AsChannelPressure()
 300:../../libDaisy/src/hid/MidiEvent.h ****     {
 301:../../libDaisy/src/hid/MidiEvent.h ****         ChannelPressureEvent m;
 302:../../libDaisy/src/hid/MidiEvent.h ****         m.channel  = channel;
 303:../../libDaisy/src/hid/MidiEvent.h ****         m.pressure = data[0];
 304:../../libDaisy/src/hid/MidiEvent.h ****         return m;
 305:../../libDaisy/src/hid/MidiEvent.h ****     }
 306:../../libDaisy/src/hid/MidiEvent.h **** 
 307:../../libDaisy/src/hid/MidiEvent.h ****     /** Returns the data within the MidiEvent as a PitchBendEvent struct.*/
 308:../../libDaisy/src/hid/MidiEvent.h ****     PitchBendEvent AsPitchBend()
 1148              		.loc 14 308 20 view .LVU305
 1149              	.LBB334:
 309:../../libDaisy/src/hid/MidiEvent.h ****     {
 310:../../libDaisy/src/hid/MidiEvent.h ****         PitchBendEvent m;
 1150              		.loc 14 310 9 view .LVU306
 311:../../libDaisy/src/hid/MidiEvent.h ****         m.channel = channel;
 1151              		.loc 14 311 9 view .LVU307
 312:../../libDaisy/src/hid/MidiEvent.h ****         m.value   = ((uint16_t)data[1] << 7) + (data[0] - 8192);
 1152              		.loc 14 312 9 view .LVU308
 313:../../libDaisy/src/hid/MidiEvent.h ****         return m;
 1153              		.loc 14 313 9 view .LVU309
 1154              		.loc 14 313 9 is_stmt 0 view .LVU310
 1155              	.LBE334:
 1156              	.LBE333:
 118:main.cpp      **** 			{
 1157              		.loc 11 118 13 is_stmt 1 view .LVU311
 118:main.cpp      **** 			{
ARM GAS  C:\Users\jcjco\AppData\Local\Temp\ccocbARg.s 			page 51


 1158              		.loc 11 118 26 is_stmt 0 view .LVU312
 1159 004a C94B     		ldr	r3, .L146
 1160 004c 93F88930 		ldrb	r3, [r3, #137]	@ zero_extendqisi2
 118:main.cpp      **** 			{
 1161              		.loc 11 118 13 view .LVU313
 1162 0050 112B     		cmp	r3, #17
 1163 0052 01D0     		beq	.L76
 118:main.cpp      **** 			{
 1164              		.loc 11 118 61 discriminator 1 view .LVU314
 1165 0054 8B42     		cmp	r3, r1
 1166 0056 F3D1     		bne	.L65
 1167              	.L76:
 120:main.cpp      **** 			}			
 1168              		.loc 11 120 5 is_stmt 1 view .LVU315
 1169              	.LBB337:
 1170              	.LBB335:
 312:../../libDaisy/src/hid/MidiEvent.h ****         return m;
 1171              		.loc 14 312 46 is_stmt 0 view .LVU316
 1172 0058 A4F50054 		sub	r4, r4, #8192
 1173              	.LVL65:
 312:../../libDaisy/src/hid/MidiEvent.h ****         return m;
 1174              		.loc 14 312 46 view .LVU317
 1175              	.LBE335:
 1176              	.LBE337:
 120:main.cpp      **** 			}			
 1177              		.loc 11 120 22 view .LVU318
 1178 005c C448     		ldr	r0, .L146
 1179              	.LBB338:
 1180              	.LBB336:
 312:../../libDaisy/src/hid/MidiEvent.h ****         return m;
 1181              		.loc 14 312 46 view .LVU319
 1182 005e 04EBC214 		add	r4, r4, r2, lsl #7
 1183              	.LVL66:
 312:../../libDaisy/src/hid/MidiEvent.h ****         return m;
 1184              		.loc 14 312 46 view .LVU320
 1185              	.LBE336:
 1186              	.LBE338:
 120:main.cpp      **** 			}			
 1187              		.loc 11 120 22 view .LVU321
 1188 0062 21B2     		sxth	r1, r4
 1189              	.LBE332:
 1190              	.LBE369:
 409:main.cpp      **** 
 1191              		.loc 11 409 1 view .LVU322
 1192 0064 03B0     		add	sp, sp, #12
 1193              		.cfi_remember_state
 1194              		.cfi_def_cfa_offset 36
 1195              		@ sp needed
 1196 0066 BDE8F040 		pop	{r4, r5, r6, r7, lr}
 1197              		.cfi_restore 14
 1198              		.cfi_restore 7
 1199              		.cfi_restore 6
 1200              		.cfi_restore 5
 1201              		.cfi_restore 4
 1202              		.cfi_def_cfa_offset 16
 1203 006a 04B0     		add	sp, sp, #16
 1204              		.cfi_def_cfa_offset 0
ARM GAS  C:\Users\jcjco\AppData\Local\Temp\ccocbARg.s 			page 52


 1205              	.LBB370:
 1206              	.LBB339:
 120:main.cpp      **** 			}			
 1207              		.loc 11 120 22 view .LVU323
 1208 006c FFF7FEBF 		b	_ZN7VASynth9PitchBendEs
 1209              	.LVL67:
 1210              	.L69:
 1211              		.cfi_restore_state
 120:main.cpp      **** 			}			
 1212              		.loc 11 120 22 view .LVU324
 1213              	.LBE339:
 1214              	.LBE370:
 124:main.cpp      ****         {
 1215              		.loc 11 124 9 is_stmt 1 view .LVU325
 125:main.cpp      ****             ControlChangeEvent p = m.AsControlChange();
 1216              		.loc 11 125 9 view .LVU326
 1217              	.LBB371:
 1218              	.LBB340:
 126:main.cpp      ****             switch(p.control_number)
 1219              		.loc 11 126 13 view .LVU327
 1220              	.LBB341:
 1221              	.LBI341:
 280:../../libDaisy/src/hid/MidiEvent.h ****     {
 1222              		.loc 14 280 24 view .LVU328
 1223              	.LBB342:
 282:../../libDaisy/src/hid/MidiEvent.h ****         m.channel        = channel;
 1224              		.loc 14 282 9 view .LVU329
 283:../../libDaisy/src/hid/MidiEvent.h ****         m.control_number = data[0];
 1225              		.loc 14 283 9 view .LVU330
 284:../../libDaisy/src/hid/MidiEvent.h ****         m.value          = data[1];
 1226              		.loc 14 284 9 view .LVU331
 285:../../libDaisy/src/hid/MidiEvent.h ****         return m;
 1227              		.loc 14 285 9 view .LVU332
 286:../../libDaisy/src/hid/MidiEvent.h ****     }
 1228              		.loc 14 286 9 view .LVU333
 286:../../libDaisy/src/hid/MidiEvent.h ****     }
 1229              		.loc 14 286 9 is_stmt 0 view .LVU334
 1230              	.LBE342:
 1231              	.LBE341:
 127:main.cpp      ****             {
 1232              		.loc 11 127 13 is_stmt 1 view .LVU335
 1233 0070 013C     		subs	r4, r4, #1
 1234              	.LVL68:
 127:main.cpp      ****             {
 1235              		.loc 11 127 13 is_stmt 0 view .LVU336
 1236 0072 772C     		cmp	r4, #119
 1237 0074 E4D8     		bhi	.L65
 1238 0076 01A3     		adr	r3, .L78
 1239 0078 53F824F0 		ldr	pc, [r3, r4, lsl #2]
 1240              		.p2align 2
 1241              	.L78:
 1242 007c A5020000 		.word	.L93+1
 1243 0080 CF020000 		.word	.L110+1
 1244 0084 73050000 		.word	.L109+1
 1245 0088 8B050000 		.word	.L108+1
 1246 008c 91030000 		.word	.L107+1
 1247 0090 E7020000 		.word	.L105+1
ARM GAS  C:\Users\jcjco\AppData\Local\Temp\ccocbARg.s 			page 53


 1248 0094 E7020000 		.word	.L105+1
 1249 0098 B9050000 		.word	.L104+1
 1250 009c B3040000 		.word	.L103+1
 1251 00a0 CB040000 		.word	.L102+1
 1252 00a4 E3040000 		.word	.L101+1
 1253 00a8 FB040000 		.word	.L100+1
 1254 00ac 13050000 		.word	.L99+1
 1255 00b0 2B050000 		.word	.L98+1
 1256 00b4 43050000 		.word	.L97+1
 1257 00b8 5B050000 		.word	.L96+1
 1258 00bc 83040000 		.word	.L95+1
 1259 00c0 9B040000 		.word	.L94+1
 1260 00c4 A5020000 		.word	.L93+1
 1261 00c8 CF020000 		.word	.L110+1
 1262 00cc 05040000 		.word	.L91+1
 1263 00d0 27040000 		.word	.L90+1
 1264 00d4 49040000 		.word	.L89+1
 1265 00d8 61040000 		.word	.L88+1
 1266 00dc D1050000 		.word	.L87+1
 1267 00e0 E9050000 		.word	.L86+1
 1268 00e4 C7030000 		.word	.L85+1
 1269 00e8 E9030000 		.word	.L84+1
 1270 00ec 41000000 		.word	.L65+1
 1271 00f0 41000000 		.word	.L65+1
 1272 00f4 41000000 		.word	.L65+1
 1273 00f8 41000000 		.word	.L65+1
 1274 00fc 41000000 		.word	.L65+1
 1275 0100 41000000 		.word	.L65+1
 1276 0104 11030000 		.word	.L83+1
 1277 0108 1F030000 		.word	.L82+1
 1278 010c 5D030000 		.word	.L81+1
 1279 0110 A3050000 		.word	.L80+1
 1280 0114 41000000 		.word	.L65+1
 1281 0118 41000000 		.word	.L65+1
 1282 011c 41000000 		.word	.L65+1
 1283 0120 41000000 		.word	.L65+1
 1284 0124 41000000 		.word	.L65+1
 1285 0128 41000000 		.word	.L65+1
 1286 012c 41000000 		.word	.L65+1
 1287 0130 41000000 		.word	.L65+1
 1288 0134 41000000 		.word	.L65+1
 1289 0138 41000000 		.word	.L65+1
 1290 013c 41000000 		.word	.L65+1
 1291 0140 41000000 		.word	.L65+1
 1292 0144 41000000 		.word	.L65+1
 1293 0148 41000000 		.word	.L65+1
 1294 014c 41000000 		.word	.L65+1
 1295 0150 41000000 		.word	.L65+1
 1296 0154 41000000 		.word	.L65+1
 1297 0158 41000000 		.word	.L65+1
 1298 015c 41000000 		.word	.L65+1
 1299 0160 41000000 		.word	.L65+1
 1300 0164 41000000 		.word	.L65+1
 1301 0168 41000000 		.word	.L65+1
 1302 016c 41000000 		.word	.L65+1
 1303 0170 41000000 		.word	.L65+1
 1304 0174 41000000 		.word	.L65+1
ARM GAS  C:\Users\jcjco\AppData\Local\Temp\ccocbARg.s 			page 54


 1305 0178 41000000 		.word	.L65+1
 1306 017c 41000000 		.word	.L65+1
 1307 0180 41000000 		.word	.L65+1
 1308 0184 41000000 		.word	.L65+1
 1309 0188 41000000 		.word	.L65+1
 1310 018c 41000000 		.word	.L65+1
 1311 0190 41000000 		.word	.L65+1
 1312 0194 41000000 		.word	.L65+1
 1313 0198 41000000 		.word	.L65+1
 1314 019c 41000000 		.word	.L65+1
 1315 01a0 41000000 		.word	.L65+1
 1316 01a4 41000000 		.word	.L65+1
 1317 01a8 41000000 		.word	.L65+1
 1318 01ac 41000000 		.word	.L65+1
 1319 01b0 41000000 		.word	.L65+1
 1320 01b4 41000000 		.word	.L65+1
 1321 01b8 41000000 		.word	.L65+1
 1322 01bc 41000000 		.word	.L65+1
 1323 01c0 41000000 		.word	.L65+1
 1324 01c4 41000000 		.word	.L65+1
 1325 01c8 41000000 		.word	.L65+1
 1326 01cc 41000000 		.word	.L65+1
 1327 01d0 41000000 		.word	.L65+1
 1328 01d4 41000000 		.word	.L65+1
 1329 01d8 41000000 		.word	.L65+1
 1330 01dc 41000000 		.word	.L65+1
 1331 01e0 41000000 		.word	.L65+1
 1332 01e4 41000000 		.word	.L65+1
 1333 01e8 41000000 		.word	.L65+1
 1334 01ec 41000000 		.word	.L65+1
 1335 01f0 41000000 		.word	.L65+1
 1336 01f4 41000000 		.word	.L65+1
 1337 01f8 41000000 		.word	.L65+1
 1338 01fc 41000000 		.word	.L65+1
 1339 0200 41000000 		.word	.L65+1
 1340 0204 41000000 		.word	.L65+1
 1341 0208 41000000 		.word	.L65+1
 1342 020c 41000000 		.word	.L65+1
 1343 0210 41000000 		.word	.L65+1
 1344 0214 41000000 		.word	.L65+1
 1345 0218 41000000 		.word	.L65+1
 1346 021c 41000000 		.word	.L65+1
 1347 0220 41000000 		.word	.L65+1
 1348 0224 41000000 		.word	.L65+1
 1349 0228 41000000 		.word	.L65+1
 1350 022c 41000000 		.word	.L65+1
 1351 0230 41000000 		.word	.L65+1
 1352 0234 41000000 		.word	.L65+1
 1353 0238 41000000 		.word	.L65+1
 1354 023c 41000000 		.word	.L65+1
 1355 0240 41000000 		.word	.L65+1
 1356 0244 41000000 		.word	.L65+1
 1357 0248 41000000 		.word	.L65+1
 1358 024c 41000000 		.word	.L65+1
 1359 0250 41000000 		.word	.L65+1
 1360 0254 47030000 		.word	.L79+1
 1361 0258 B1030000 		.word	.L77+1
ARM GAS  C:\Users\jcjco\AppData\Local\Temp\ccocbARg.s 			page 55


 1362              	.LVL69:
 1363              		.p2align 1
 1364              	.L71:
 127:main.cpp      ****             {
 1365              		.loc 11 127 13 view .LVU337
 1366              	.LBE340:
 1367              	.LBE371:
 101:main.cpp      ****         {
 1368              		.loc 11 101 9 is_stmt 1 view .LVU338
 102:main.cpp      ****             NoteOnEvent p = m.AsNoteOn();
 1369              		.loc 11 102 9 view .LVU339
 1370              	.LBB372:
 1371              	.LBB353:
 103:main.cpp      ****             if ((vasynth.midi_channel_ == MIDI_CHANNEL_ALL) || (p.channel == vasynth.midi_channel_)
 1372              		.loc 11 103 13 view .LVU340
 1373              	.LBB354:
 1374              	.LBI354:
 260:../../libDaisy/src/hid/MidiEvent.h ****     {
 1375              		.loc 14 260 17 view .LVU341
 1376              	.LBB355:
 262:../../libDaisy/src/hid/MidiEvent.h ****         m.channel  = channel;
 1377              		.loc 14 262 9 view .LVU342
 263:../../libDaisy/src/hid/MidiEvent.h ****         m.note     = data[0];
 1378              		.loc 14 263 9 view .LVU343
 264:../../libDaisy/src/hid/MidiEvent.h ****         m.velocity = data[1];
 1379              		.loc 14 264 9 view .LVU344
 265:../../libDaisy/src/hid/MidiEvent.h ****         return m;
 1380              		.loc 14 265 9 view .LVU345
 266:../../libDaisy/src/hid/MidiEvent.h ****     }
 1381              		.loc 14 266 9 view .LVU346
 266:../../libDaisy/src/hid/MidiEvent.h ****     }
 1382              		.loc 14 266 9 is_stmt 0 view .LVU347
 1383              	.LBE355:
 1384              	.LBE354:
 104:main.cpp      **** 			{
 1385              		.loc 11 104 13 is_stmt 1 view .LVU348
 104:main.cpp      **** 			{
 1386              		.loc 11 104 26 is_stmt 0 view .LVU349
 1387 025c 444B     		ldr	r3, .L146
 1388 025e 93F88930 		ldrb	r3, [r3, #137]	@ zero_extendqisi2
 104:main.cpp      **** 			{
 1389              		.loc 11 104 13 view .LVU350
 1390 0262 112B     		cmp	r3, #17
 1391 0264 02D0     		beq	.L74
 104:main.cpp      **** 			{
 1392              		.loc 11 104 61 discriminator 1 view .LVU351
 1393 0266 8B42     		cmp	r3, r1
 1394 0268 7FF4EAAE 		bne	.L65
 1395              	.L74:
 106:main.cpp      **** 				{
 1396              		.loc 11 106 5 is_stmt 1 view .LVU352
 106:main.cpp      **** 				{
 1397              		.loc 11 106 16 is_stmt 0 view .LVU353
 1398 026c 414B     		ldr	r3, .L146+4
 106:main.cpp      **** 				{
 1399              		.loc 11 106 5 view .LVU354
 1400 026e 1B88     		ldrh	r3, [r3]
ARM GAS  C:\Users\jcjco\AppData\Local\Temp\ccocbARg.s 			page 56


 1401 0270 012B     		cmp	r3, #1
 1402 0272 00F00282 		beq	.L144
 1403              	.LVL70:
 1404              	.L75:
 110:main.cpp      **** 				hardware.SetLed(false);
 1405              		.loc 11 110 5 is_stmt 1 view .LVU355
 110:main.cpp      **** 				hardware.SetLed(false);
 1406              		.loc 11 110 20 is_stmt 0 view .LVU356
 1407 0276 2146     		mov	r1, r4
 1408 0278 3D48     		ldr	r0, .L146
 1409 027a FFF7FEFF 		bl	_ZN7VASynth7NoteOffEh
 1410              	.LVL71:
 111:main.cpp      **** 			}			
 1411              		.loc 11 111 5 is_stmt 1 view .LVU357
 111:main.cpp      **** 			}			
 1412              		.loc 11 111 20 is_stmt 0 view .LVU358
 1413 027e 0021     		movs	r1, #0
 1414              	.LVL72:
 1415              	.L138:
 111:main.cpp      **** 			}			
 1416              		.loc 11 111 20 view .LVU359
 1417 0280 3D48     		ldr	r0, .L146+8
 1418              	.LBE353:
 1419              	.LBE372:
 409:main.cpp      **** 
 1420              		.loc 11 409 1 view .LVU360
 1421 0282 03B0     		add	sp, sp, #12
 1422              		.cfi_remember_state
 1423              		.cfi_def_cfa_offset 36
 1424              		@ sp needed
 1425 0284 BDE8F040 		pop	{r4, r5, r6, r7, lr}
 1426              		.cfi_restore 14
 1427              		.cfi_restore 7
 1428              		.cfi_restore 6
 1429              		.cfi_restore 5
 1430              		.cfi_restore 4
 1431              		.cfi_def_cfa_offset 16
 1432              	.LVL73:
 409:main.cpp      **** 
 1433              		.loc 11 409 1 view .LVU361
 1434 0288 04B0     		add	sp, sp, #16
 1435              		.cfi_def_cfa_offset 0
 1436              	.LBB373:
 1437              	.LBB356:
 111:main.cpp      **** 			}			
 1438              		.loc 11 111 20 view .LVU362
 1439 028a FFF7FEBF 		b	_ZN5daisy9DaisySeed6SetLedEb
 1440              	.LVL74:
 1441              	.L72:
 1442              		.cfi_restore_state
 111:main.cpp      **** 			}			
 1443              		.loc 11 111 20 view .LVU363
 1444              	.LBE356:
 1445              	.LBB357:
  92:main.cpp      **** 				{
 1446              		.loc 11 92 5 is_stmt 1 view .LVU364
  92:main.cpp      **** 				{
ARM GAS  C:\Users\jcjco\AppData\Local\Temp\ccocbARg.s 			page 57


 1447              		.loc 11 92 16 is_stmt 0 view .LVU365
 1448 028e 394B     		ldr	r3, .L146+4
  92:main.cpp      **** 				{
 1449              		.loc 11 92 5 view .LVU366
 1450 0290 1B88     		ldrh	r3, [r3]
 1451 0292 012B     		cmp	r3, #1
 1452 0294 00F0E981 		beq	.L145
 1453              	.LVL75:
 1454              	.L73:
  96:main.cpp      **** 				hardware.SetLed(true);
 1455              		.loc 11 96 5 is_stmt 1 view .LVU367
  96:main.cpp      **** 				hardware.SetLed(true);
 1456              		.loc 11 96 19 is_stmt 0 view .LVU368
 1457 0298 2146     		mov	r1, r4
 1458 029a 3548     		ldr	r0, .L146
 1459 029c FFF7FEFF 		bl	_ZN7VASynth6NoteOnEhh
 1460              	.LVL76:
  97:main.cpp      **** 			}
 1461              		.loc 11 97 5 is_stmt 1 view .LVU369
  97:main.cpp      **** 			}
 1462              		.loc 11 97 20 is_stmt 0 view .LVU370
 1463 02a0 0121     		movs	r1, #1
 1464 02a2 EDE7     		b	.L138
 1465              	.LVL77:
 1466              	.L93:
  97:main.cpp      **** 			}
 1467              		.loc 11 97 20 view .LVU371
 1468              	.LBE357:
 1469              	.LBB358:
 299:main.cpp      **** 				vasynth.filter_cutoff_ = ((float)p.value / 127.0f) * FILTER_CUTOFF_MAX;
 1470              		.loc 11 299 7 is_stmt 1 view .LVU372
 300:main.cpp      ****                     vasynth.SetFilter();			
 1471              		.loc 11 300 5 view .LVU373
 300:main.cpp      ****                     vasynth.SetFilter();			
 1472              		.loc 11 300 31 is_stmt 0 view .LVU374
 1473 02a4 07EE902A 		vmov	s15, r2	@ int
 300:main.cpp      ****                     vasynth.SetFilter();			
 1474              		.loc 11 300 46 view .LVU375
 1475 02a8 DFED386A 		vldr.32	s13, .L146+28
 300:main.cpp      ****                     vasynth.SetFilter();			
 1476              		.loc 11 300 56 view .LVU376
 1477 02ac 9FED337A 		vldr.32	s14, .L146+12
 300:main.cpp      ****                     vasynth.SetFilter();			
 1478              		.loc 11 300 31 view .LVU377
 1479 02b0 B8EE676A 		vcvt.f32.u32	s12, s15
 300:main.cpp      ****                     vasynth.SetFilter();			
 1480              		.loc 11 300 28 view .LVU378
 1481 02b4 2E48     		ldr	r0, .L146
 300:main.cpp      ****                     vasynth.SetFilter();			
 1482              		.loc 11 300 46 view .LVU379
 1483 02b6 C6EE267A 		vdiv.f32	s15, s12, s13
 300:main.cpp      ****                     vasynth.SetFilter();			
 1484              		.loc 11 300 56 view .LVU380
 1485 02ba 67EE877A 		vmul.f32	s15, s15, s14
 300:main.cpp      ****                     vasynth.SetFilter();			
 1486              		.loc 11 300 28 view .LVU381
 1487 02be C0ED207A 		vstr.32	s15, [r0, #128]
ARM GAS  C:\Users\jcjco\AppData\Local\Temp\ccocbARg.s 			page 58


 301:main.cpp      **** 					 	break;		
 1488              		.loc 11 301 21 is_stmt 1 view .LVU382
 1489              	.L139:
 179:main.cpp      **** 							break;
 1490              		.loc 11 179 23 view .LVU383
 1491              	.LBE358:
 1492              	.LBE373:
 409:main.cpp      **** 
 1493              		.loc 11 409 1 is_stmt 0 view .LVU384
 1494 02c2 03B0     		add	sp, sp, #12
 1495              		.cfi_remember_state
 1496              		.cfi_def_cfa_offset 36
 1497              		@ sp needed
 1498 02c4 BDE8F040 		pop	{r4, r5, r6, r7, lr}
 1499              		.cfi_restore 14
 1500              		.cfi_restore 7
 1501              		.cfi_restore 6
 1502              		.cfi_restore 5
 1503              		.cfi_restore 4
 1504              		.cfi_def_cfa_offset 16
 1505              	.LVL78:
 409:main.cpp      **** 
 1506              		.loc 11 409 1 view .LVU385
 1507 02c8 04B0     		add	sp, sp, #16
 1508              		.cfi_def_cfa_offset 0
 1509              	.LBB374:
 1510              	.LBB359:
 179:main.cpp      **** 							break;
 1511              		.loc 11 179 40 view .LVU386
 1512 02ca FFF7FEBF 		b	_ZN7VASynth9SetFilterEv
 1513              	.LVL79:
 1514              	.L110:
 1515              		.cfi_restore_state
 176:main.cpp      **** 						{
 1516              		.loc 11 176 7 is_stmt 1 view .LVU387
 177:main.cpp      **** 							vasynth.filter_res_ = ((float)p.value / 127.0f);
 1517              		.loc 11 177 7 view .LVU388
 178:main.cpp      ****                     		vasynth.SetFilter();
 1518              		.loc 11 178 8 view .LVU389
 178:main.cpp      ****                     		vasynth.SetFilter();
 1519              		.loc 11 178 31 is_stmt 0 view .LVU390
 1520 02ce 07EE902A 		vmov	s15, r2	@ int
 178:main.cpp      ****                     		vasynth.SetFilter();
 1521              		.loc 11 178 46 view .LVU391
 1522 02d2 9FED2E7A 		vldr.32	s14, .L146+28
 178:main.cpp      ****                     		vasynth.SetFilter();
 1523              		.loc 11 178 28 view .LVU392
 1524 02d6 2648     		ldr	r0, .L146
 178:main.cpp      ****                     		vasynth.SetFilter();
 1525              		.loc 11 178 31 view .LVU393
 1526 02d8 F8EE676A 		vcvt.f32.u32	s13, s15
 178:main.cpp      ****                     		vasynth.SetFilter();
 1527              		.loc 11 178 46 view .LVU394
 1528 02dc C6EE877A 		vdiv.f32	s15, s13, s14
 178:main.cpp      ****                     		vasynth.SetFilter();
 1529              		.loc 11 178 28 view .LVU395
 1530 02e0 C0ED1F7A 		vstr.32	s15, [r0, #124]
ARM GAS  C:\Users\jcjco\AppData\Local\Temp\ccocbARg.s 			page 59


 1531 02e4 EDE7     		b	.L139
 1532              	.L105:
 215:main.cpp      **** 						{
 1533              		.loc 11 215 7 is_stmt 1 view .LVU396
 216:main.cpp      **** 							vasynth.eg_f_attack_ = ((float)p.value / 127.0f);
 1534              		.loc 11 216 7 view .LVU397
 217:main.cpp      **** 							vasynth.SetEG();
 1535              		.loc 11 217 8 view .LVU398
 217:main.cpp      **** 							vasynth.SetEG();
 1536              		.loc 11 217 32 is_stmt 0 view .LVU399
 1537 02e6 07EE902A 		vmov	s15, r2	@ int
 217:main.cpp      **** 							vasynth.SetEG();
 1538              		.loc 11 217 47 view .LVU400
 1539 02ea 9FED287A 		vldr.32	s14, .L146+28
 217:main.cpp      **** 							vasynth.SetEG();
 1540              		.loc 11 217 29 view .LVU401
 1541 02ee 2048     		ldr	r0, .L146
 217:main.cpp      **** 							vasynth.SetEG();
 1542              		.loc 11 217 32 view .LVU402
 1543 02f0 F8EE676A 		vcvt.f32.u32	s13, s15
 217:main.cpp      **** 							vasynth.SetEG();
 1544              		.loc 11 217 47 view .LVU403
 1545 02f4 C6EE877A 		vdiv.f32	s15, s13, s14
 217:main.cpp      **** 							vasynth.SetEG();
 1546              		.loc 11 217 29 view .LVU404
 1547 02f8 C0ED0D7A 		vstr.32	s15, [r0, #52]
 218:main.cpp      **** 							break;
 1548              		.loc 11 218 8 is_stmt 1 view .LVU405
 1549              	.L142:
 225:main.cpp      **** 							break;
 1550              		.loc 11 225 8 view .LVU406
 1551              	.LBE359:
 1552              	.LBE374:
 409:main.cpp      **** 
 1553              		.loc 11 409 1 is_stmt 0 view .LVU407
 1554 02fc 03B0     		add	sp, sp, #12
 1555              		.cfi_remember_state
 1556              		.cfi_def_cfa_offset 36
 1557              		@ sp needed
 1558 02fe BDE8F040 		pop	{r4, r5, r6, r7, lr}
 1559              		.cfi_restore 14
 1560              		.cfi_restore 7
 1561              		.cfi_restore 6
 1562              		.cfi_restore 5
 1563              		.cfi_restore 4
 1564              		.cfi_def_cfa_offset 16
 1565 0302 04B0     		add	sp, sp, #16
 1566              		.cfi_def_cfa_offset 0
 1567              	.LBB375:
 1568              	.LBB360:
 225:main.cpp      **** 							break;
 1569              		.loc 11 225 21 view .LVU408
 1570 0304 FFF7FEBF 		b	_ZN7VASynth5SetEGEv
 1571              	.LVL80:
 1572              	.L123:
 1573              		.cfi_restore_state
 359:main.cpp      **** 									vasynth.vcavcflfo_waveform_ = WAVE_POLYBLEP_SAW;
ARM GAS  C:\Users\jcjco\AppData\Local\Temp\ccocbARg.s 			page 60


 1574              		.loc 11 359 9 is_stmt 1 view .LVU409
 360:main.cpp      **** 									break;
 1575              		.loc 11 360 10 view .LVU410
 360:main.cpp      **** 									break;
 1576              		.loc 11 360 38 is_stmt 0 view .LVU411
 1577 0308 194B     		ldr	r3, .L146
 1578 030a 0622     		movs	r2, #6
 1579 030c 83F86820 		strb	r2, [r3, #104]
 361:main.cpp      **** 							}
 1580              		.loc 11 361 10 is_stmt 1 view .LVU412
 1581              	.L83:
 364:main.cpp      **** 						{
 1582              		.loc 11 364 7 view .LVU413
 365:main.cpp      **** 							// Sequencer Mode Record
 1583              		.loc 11 365 7 view .LVU414
 367:main.cpp      **** 							seqclock = 0;
 1584              		.loc 11 367 8 view .LVU415
 367:main.cpp      **** 							seqclock = 0;
 1585              		.loc 11 367 16 is_stmt 0 view .LVU416
 1586 0310 1849     		ldr	r1, .L146+4
 1587 0312 0120     		movs	r0, #1
 368:main.cpp      **** 							break;
 1588              		.loc 11 368 17 view .LVU417
 1589 0314 1A4B     		ldr	r3, .L146+16
 1590 0316 0022     		movs	r2, #0
 367:main.cpp      **** 							seqclock = 0;
 1591              		.loc 11 367 16 view .LVU418
 1592 0318 0880     		strh	r0, [r1]	@ movhi
 368:main.cpp      **** 							break;
 1593              		.loc 11 368 8 is_stmt 1 view .LVU419
 368:main.cpp      **** 							break;
 1594              		.loc 11 368 17 is_stmt 0 view .LVU420
 1595 031a 1A80     		strh	r2, [r3]	@ movhi
 369:main.cpp      **** 						}
 1596              		.loc 11 369 8 is_stmt 1 view .LVU421
 1597 031c 90E6     		b	.L65
 1598              	.LVL81:
 1599              	.L82:
 371:main.cpp      **** 						{
 1600              		.loc 11 371 7 view .LVU422
 372:main.cpp      **** 							// Sequencer Mode Record End
 1601              		.loc 11 372 7 view .LVU423
 374:main.cpp      **** 							// Place a time-stamp and stop marker at the current position and stop the sequencer
 1602              		.loc 11 374 8 view .LVU424
 376:main.cpp      **** 							seqmem++;
 1603              		.loc 11 376 8 view .LVU425
 376:main.cpp      **** 							seqmem++;
 1604              		.loc 11 376 21 is_stmt 0 view .LVU426
 1605 031e 194B     		ldr	r3, .L146+20
 1606              	.LBB343:
 1607              	.LBB344:
 518:main.cpp      **** }
 1608              		.loc 11 518 60 view .LVU427
 1609 0320 4FF6FF7E 		movw	lr, #65535
 1610              	.LBE344:
 1611              	.LBE343:
 376:main.cpp      **** 							seqmem++;
ARM GAS  C:\Users\jcjco\AppData\Local\Temp\ccocbARg.s 			page 61


 1612              		.loc 11 376 21 view .LVU428
 1613 0324 164A     		ldr	r2, .L146+16
 1614              	.LVL82:
 380:main.cpp      **** 							seqclock = 0;
 1615              		.loc 11 380 16 view .LVU429
 1616 0326 0021     		movs	r1, #0
 376:main.cpp      **** 							seqmem++;
 1617              		.loc 11 376 21 view .LVU430
 1618 0328 1868     		ldr	r0, [r3]
 1619 032a 1688     		ldrh	r6, [r2]
 1620              	.LVL83:
 1621              	.LBB347:
 1622              	.LBI347:
 515:main.cpp      **** {
 1623              		.loc 11 515 6 is_stmt 1 view .LVU431
 1624              	.LBB348:
 518:main.cpp      **** }
 1625              		.loc 11 518 3 view .LVU432
 518:main.cpp      **** }
 1626              		.loc 11 518 48 is_stmt 0 view .LVU433
 1627 032c 00F10055 		add	r5, r0, #536870912
 1628              	.LBE348:
 1629              	.LBE347:
 1630              	.LBB350:
 1631              	.LBB345:
 1632 0330 154F     		ldr	r7, .L146+24
 1633              	.LBE345:
 1634              	.LBE350:
 380:main.cpp      **** 							seqclock = 0;
 1635              		.loc 11 380 16 view .LVU434
 1636 0332 104C     		ldr	r4, .L146+4
 1637              	.LBB351:
 1638              	.LBB349:
 518:main.cpp      **** }
 1639              		.loc 11 518 60 view .LVU435
 1640 0334 2E80     		strh	r6, [r5]	@ movhi
 1641              	.LVL84:
 518:main.cpp      **** }
 1642              		.loc 11 518 60 view .LVU436
 1643              	.LBE349:
 1644              	.LBE351:
 377:main.cpp      **** 							seqmem++;
 1645              		.loc 11 377 8 is_stmt 1 view .LVU437
 378:main.cpp      **** 							writeSramWord(seqmem, 0xFFFF);
 1646              		.loc 11 378 8 view .LVU438
 379:main.cpp      **** 							seqmode = 0;
 1647              		.loc 11 379 8 view .LVU439
 1648              	.LBB352:
 1649              	.LBI343:
 515:main.cpp      **** {
 1650              		.loc 11 515 6 view .LVU440
 1651              	.LBB346:
 518:main.cpp      **** }
 1652              		.loc 11 518 3 view .LVU441
 518:main.cpp      **** }
 1653              		.loc 11 518 60 is_stmt 0 view .LVU442
 1654 0336 20F807E0 		strh	lr, [r0, r7]	@ movhi
ARM GAS  C:\Users\jcjco\AppData\Local\Temp\ccocbARg.s 			page 62


 1655              	.LVL85:
 518:main.cpp      **** }
 1656              		.loc 11 518 60 view .LVU443
 1657              	.LBE346:
 1658              	.LBE352:
 380:main.cpp      **** 							seqclock = 0;
 1659              		.loc 11 380 8 is_stmt 1 view .LVU444
 382:main.cpp      **** 							break;
 1660              		.loc 11 382 15 is_stmt 0 view .LVU445
 1661 033a 4FF48030 		mov	r0, #65536
 380:main.cpp      **** 							seqclock = 0;
 1662              		.loc 11 380 16 view .LVU446
 1663 033e 2180     		strh	r1, [r4]	@ movhi
 381:main.cpp      **** 							seqmem = 0x00010000;
 1664              		.loc 11 381 8 is_stmt 1 view .LVU447
 381:main.cpp      **** 							seqmem = 0x00010000;
 1665              		.loc 11 381 17 is_stmt 0 view .LVU448
 1666 0340 1180     		strh	r1, [r2]	@ movhi
 382:main.cpp      **** 							break;
 1667              		.loc 11 382 8 is_stmt 1 view .LVU449
 382:main.cpp      **** 							break;
 1668              		.loc 11 382 15 is_stmt 0 view .LVU450
 1669 0342 1860     		str	r0, [r3]
 383:main.cpp      **** 						}
 1670              		.loc 11 383 8 is_stmt 1 view .LVU451
 1671 0344 7CE6     		b	.L65
 1672              	.LVL86:
 1673              	.L79:
 134:main.cpp      **** 
 1674              		.loc 11 134 5 discriminator 6 view .LVU452
 136:main.cpp      **** 						{
 1675              		.loc 11 136 7 discriminator 6 view .LVU453
 137:main.cpp      **** 							switch(p.value >> 5)
 1676              		.loc 11 137 7 discriminator 6 view .LVU454
 138:main.cpp      **** 							{
 1677              		.loc 11 138 8 discriminator 6 view .LVU455
 1678 0346 5309     		lsrs	r3, r2, #5
 1679 0348 013B     		subs	r3, r3, #1
 1680 034a 032B     		cmp	r3, #3
 1681 034c 00F25B81 		bhi	.L112
 1682 0350 DFE813F0 		tbh	[pc, r3, lsl #1]
 1683              	.LVL87:
 1684              	.L114:
 1685 0354 8301     		.2byte	(.L117-.L114)/2
 1686 0356 8701     		.2byte	(.L116-.L114)/2
 1687 0358 7F01     		.2byte	(.L115-.L114)/2
 1688 035a 5601     		.2byte	(.L113-.L114)/2
 1689              		.p2align 1
 1690              	.L81:
 385:main.cpp      **** 						{
 1691              		.loc 11 385 7 view .LVU456
 386:main.cpp      **** 							// Sequencer Mode Stop
 1692              		.loc 11 386 7 view .LVU457
 388:main.cpp      **** 							seqclock = 0;
 1693              		.loc 11 388 8 view .LVU458
 388:main.cpp      **** 							seqclock = 0;
 1694              		.loc 11 388 16 is_stmt 0 view .LVU459
ARM GAS  C:\Users\jcjco\AppData\Local\Temp\ccocbARg.s 			page 63


 1695 035c 0023     		movs	r3, #0
 1696 035e 054C     		ldr	r4, .L146+4
 389:main.cpp      **** 							seqmem = 0x00010000;
 1697              		.loc 11 389 17 view .LVU460
 1698 0360 0748     		ldr	r0, .L146+16
 390:main.cpp      **** 							break;
 1699              		.loc 11 390 15 view .LVU461
 1700 0362 4FF48031 		mov	r1, #65536
 1701 0366 074A     		ldr	r2, .L146+20
 1702              	.LVL88:
 388:main.cpp      **** 							seqclock = 0;
 1703              		.loc 11 388 16 view .LVU462
 1704 0368 2380     		strh	r3, [r4]	@ movhi
 389:main.cpp      **** 							seqmem = 0x00010000;
 1705              		.loc 11 389 8 is_stmt 1 view .LVU463
 389:main.cpp      **** 							seqmem = 0x00010000;
 1706              		.loc 11 389 17 is_stmt 0 view .LVU464
 1707 036a 0380     		strh	r3, [r0]	@ movhi
 390:main.cpp      **** 							break;
 1708              		.loc 11 390 8 is_stmt 1 view .LVU465
 390:main.cpp      **** 							break;
 1709              		.loc 11 390 15 is_stmt 0 view .LVU466
 1710 036c 1160     		str	r1, [r2]
 391:main.cpp      **** 						}
 1711              		.loc 11 391 8 is_stmt 1 view .LVU467
 1712 036e 67E6     		b	.L65
 1713              	.L147:
 1714              		.align	2
 1715              	.L146:
 1716 0370 00000000 		.word	.LANCHOR1
 1717 0374 00000000 		.word	.LANCHOR8
 1718 0378 00000000 		.word	.LANCHOR9
 1719 037c 00A08C46 		.word	1183621120
 1720 0380 00000000 		.word	.LANCHOR4
 1721 0384 00000000 		.word	.LANCHOR2
 1722 0388 02000020 		.word	536870914
 1723 038c 0000FE42 		.word	1123942400
 1724              	.LVL89:
 1725              	.L107:
 197:main.cpp      **** 						{
 1726              		.loc 11 197 7 view .LVU468
 198:main.cpp      **** 							vasynth.osc2_transpose_ = (1.0f + ((float)p.value / 127.0f));
 1727              		.loc 11 198 7 view .LVU469
 199:main.cpp      **** 							break;
 1728              		.loc 11 199 8 view .LVU470
 199:main.cpp      **** 							break;
 1729              		.loc 11 199 43 is_stmt 0 view .LVU471
 1730 0390 07EE902A 		vmov	s15, r2	@ int
 199:main.cpp      **** 							break;
 1731              		.loc 11 199 58 view .LVU472
 1732 0394 5FED036A 		vldr.32	s13, .L146+28
 199:main.cpp      **** 							break;
 1733              		.loc 11 199 40 view .LVU473
 1734 0398 B7EE007A 		vmov.f32	s14, #1.0e+0
 199:main.cpp      **** 							break;
 1735              		.loc 11 199 32 view .LVU474
 1736 039c B94B     		ldr	r3, .L148
ARM GAS  C:\Users\jcjco\AppData\Local\Temp\ccocbARg.s 			page 64


 199:main.cpp      **** 							break;
 1737              		.loc 11 199 43 view .LVU475
 1738 039e B8EE676A 		vcvt.f32.u32	s12, s15
 199:main.cpp      **** 							break;
 1739              		.loc 11 199 58 view .LVU476
 1740 03a2 C6EE267A 		vdiv.f32	s15, s12, s13
 199:main.cpp      **** 							break;
 1741              		.loc 11 199 40 view .LVU477
 1742 03a6 77EE877A 		vadd.f32	s15, s15, s14
 199:main.cpp      **** 							break;
 1743              		.loc 11 199 32 view .LVU478
 1744 03aa C3ED077A 		vstr.32	s15, [r3, #28]
 200:main.cpp      **** 						}
 1745              		.loc 11 200 8 is_stmt 1 view .LVU479
 1746 03ae 47E6     		b	.L65
 1747              	.L77:
 156:main.cpp      **** 						{
 1748              		.loc 11 156 7 discriminator 7 view .LVU480
 157:main.cpp      **** 							switch(p.value >> 5)
 1749              		.loc 11 157 7 discriminator 7 view .LVU481
 158:main.cpp      **** 							{
 1750              		.loc 11 158 8 discriminator 7 view .LVU482
 1751 03b0 5309     		lsrs	r3, r2, #5
 1752 03b2 013B     		subs	r3, r3, #1
 1753 03b4 032B     		cmp	r3, #3
 1754 03b6 00F22681 		bhi	.L112
 1755 03ba DFE813F0 		tbh	[pc, r3, lsl #1]
 1756              	.LVL90:
 1757              	.L119:
 1758 03be 3701     		.2byte	(.L122-.L119)/2
 1759 03c0 3301     		.2byte	(.L121-.L119)/2
 1760 03c2 2F01     		.2byte	(.L120-.L119)/2
 1761 03c4 2B01     		.2byte	(.L118-.L119)/2
 1762              		.p2align 1
 1763              	.L85:
 340:main.cpp      **** 						{
 1764              		.loc 11 340 7 view .LVU483
 341:main.cpp      **** 							vasynth.vcavcflfo_amp_ = ((float)p.value / 127.0f);
 1765              		.loc 11 341 7 view .LVU484
 342:main.cpp      **** 							vasynth.SetVCAVCFLFO();
 1766              		.loc 11 342 8 view .LVU485
 342:main.cpp      **** 							vasynth.SetVCAVCFLFO();
 1767              		.loc 11 342 34 is_stmt 0 view .LVU486
 1768 03c6 07EE902A 		vmov	s15, r2	@ int
 342:main.cpp      **** 							vasynth.SetVCAVCFLFO();
 1769              		.loc 11 342 49 view .LVU487
 1770 03ca 9FEDAF7A 		vldr.32	s14, .L148+4
 342:main.cpp      **** 							vasynth.SetVCAVCFLFO();
 1771              		.loc 11 342 31 view .LVU488
 1772 03ce AD48     		ldr	r0, .L148
 342:main.cpp      **** 							vasynth.SetVCAVCFLFO();
 1773              		.loc 11 342 34 view .LVU489
 1774 03d0 F8EE676A 		vcvt.f32.u32	s13, s15
 342:main.cpp      **** 							vasynth.SetVCAVCFLFO();
 1775              		.loc 11 342 49 view .LVU490
 1776 03d4 C6EE877A 		vdiv.f32	s15, s13, s14
 342:main.cpp      **** 							vasynth.SetVCAVCFLFO();
ARM GAS  C:\Users\jcjco\AppData\Local\Temp\ccocbARg.s 			page 65


 1777              		.loc 11 342 31 view .LVU491
 1778 03d8 C0ED1C7A 		vstr.32	s15, [r0, #112]
 1779              	.L140:
 343:main.cpp      **** 							break;
 1780              		.loc 11 343 8 is_stmt 1 view .LVU492
 1781              	.LBE360:
 1782              	.LBE375:
 409:main.cpp      **** 
 1783              		.loc 11 409 1 is_stmt 0 view .LVU493
 1784 03dc 03B0     		add	sp, sp, #12
 1785              		.cfi_remember_state
 1786              		.cfi_def_cfa_offset 36
 1787              		@ sp needed
 1788 03de BDE8F040 		pop	{r4, r5, r6, r7, lr}
 1789              		.cfi_restore 14
 1790              		.cfi_restore 7
 1791              		.cfi_restore 6
 1792              		.cfi_restore 5
 1793              		.cfi_restore 4
 1794              		.cfi_def_cfa_offset 16
 1795 03e2 04B0     		add	sp, sp, #16
 1796              		.cfi_def_cfa_offset 0
 1797              	.LBB376:
 1798              	.LBB361:
 343:main.cpp      **** 							break;
 1799              		.loc 11 343 28 view .LVU494
 1800 03e4 FFF7FEBF 		b	_ZN7VASynth12SetVCAVCFLFOEv
 1801              	.LVL91:
 1802              	.L84:
 1803              		.cfi_restore_state
 346:main.cpp      **** 						{
 1804              		.loc 11 346 7 is_stmt 1 discriminator 5 view .LVU495
 347:main.cpp      **** 							switch(p.value >> 5)
 1805              		.loc 11 347 7 discriminator 5 view .LVU496
 348:main.cpp      **** 							{
 1806              		.loc 11 348 8 discriminator 5 view .LVU497
 1807 03e8 5209     		lsrs	r2, r2, #5
 1808              	.LVL92:
 348:main.cpp      **** 							{
 1809              		.loc 11 348 8 is_stmt 0 discriminator 5 view .LVU498
 1810 03ea 032A     		cmp	r2, #3
 1811 03ec 90D8     		bhi	.L83
 1812 03ee 01A3     		adr	r3, .L124
 1813 03f0 53F822F0 		ldr	pc, [r3, r2, lsl #2]
 1814              		.p2align 2
 1815              	.L124:
 1816 03f4 49060000 		.word	.L127+1
 1817 03f8 3F060000 		.word	.L126+1
 1818 03fc 35060000 		.word	.L125+1
 1819 0400 09030000 		.word	.L123+1
 1820              	.LVL93:
 1821              		.p2align 1
 1822              	.L91:
 304:main.cpp      **** 						{
 1823              		.loc 11 304 7 is_stmt 1 view .LVU499
 305:main.cpp      **** 							vasynth.lfo_freq_ = ((float)p.value / 127.0f);
 1824              		.loc 11 305 7 view .LVU500
ARM GAS  C:\Users\jcjco\AppData\Local\Temp\ccocbARg.s 			page 66


 306:main.cpp      **** 							vasynth.SetLFO();
 1825              		.loc 11 306 8 view .LVU501
 306:main.cpp      **** 							vasynth.SetLFO();
 1826              		.loc 11 306 29 is_stmt 0 view .LVU502
 1827 0404 07EE902A 		vmov	s15, r2	@ int
 306:main.cpp      **** 							vasynth.SetLFO();
 1828              		.loc 11 306 44 view .LVU503
 1829 0408 9FED9F7A 		vldr.32	s14, .L148+4
 306:main.cpp      **** 							vasynth.SetLFO();
 1830              		.loc 11 306 26 view .LVU504
 1831 040c 9D48     		ldr	r0, .L148
 306:main.cpp      **** 							vasynth.SetLFO();
 1832              		.loc 11 306 29 view .LVU505
 1833 040e F8EE676A 		vcvt.f32.u32	s13, s15
 306:main.cpp      **** 							vasynth.SetLFO();
 1834              		.loc 11 306 44 view .LVU506
 1835 0412 C6EE877A 		vdiv.f32	s15, s13, s14
 306:main.cpp      **** 							vasynth.SetLFO();
 1836              		.loc 11 306 26 view .LVU507
 1837 0416 C0ED127A 		vstr.32	s15, [r0, #72]
 307:main.cpp      **** 							break;
 1838              		.loc 11 307 8 is_stmt 1 view .LVU508
 1839              	.LBE361:
 1840              	.LBE376:
 409:main.cpp      **** 
 1841              		.loc 11 409 1 is_stmt 0 view .LVU509
 1842 041a 03B0     		add	sp, sp, #12
 1843              		.cfi_remember_state
 1844              		.cfi_def_cfa_offset 36
 1845              		@ sp needed
 1846 041c BDE8F040 		pop	{r4, r5, r6, r7, lr}
 1847              		.cfi_restore 14
 1848              		.cfi_restore 7
 1849              		.cfi_restore 6
 1850              		.cfi_restore 5
 1851              		.cfi_restore 4
 1852              		.cfi_def_cfa_offset 16
 1853 0420 04B0     		add	sp, sp, #16
 1854              		.cfi_def_cfa_offset 0
 1855              	.LBB377:
 1856              	.LBB362:
 307:main.cpp      **** 							break;
 1857              		.loc 11 307 22 view .LVU510
 1858 0422 FFF7FEBF 		b	_ZN7VASynth6SetLFOEv
 1859              	.LVL94:
 1860              	.L90:
 1861              		.cfi_restore_state
 310:main.cpp      **** 						{
 1862              		.loc 11 310 7 is_stmt 1 view .LVU511
 311:main.cpp      **** 							vasynth.pwmlfo_freq_ = ((float)p.value / 127.0f);
 1863              		.loc 11 311 7 view .LVU512
 312:main.cpp      **** 							vasynth.SetPWMLFO();
 1864              		.loc 11 312 8 view .LVU513
 312:main.cpp      **** 							vasynth.SetPWMLFO();
 1865              		.loc 11 312 32 is_stmt 0 view .LVU514
 1866 0426 07EE902A 		vmov	s15, r2	@ int
 312:main.cpp      **** 							vasynth.SetPWMLFO();
ARM GAS  C:\Users\jcjco\AppData\Local\Temp\ccocbARg.s 			page 67


 1867              		.loc 11 312 47 view .LVU515
 1868 042a 9FED977A 		vldr.32	s14, .L148+4
 312:main.cpp      **** 							vasynth.SetPWMLFO();
 1869              		.loc 11 312 29 view .LVU516
 1870 042e 9548     		ldr	r0, .L148
 312:main.cpp      **** 							vasynth.SetPWMLFO();
 1871              		.loc 11 312 32 view .LVU517
 1872 0430 F8EE676A 		vcvt.f32.u32	s13, s15
 312:main.cpp      **** 							vasynth.SetPWMLFO();
 1873              		.loc 11 312 47 view .LVU518
 1874 0434 C6EE877A 		vdiv.f32	s15, s13, s14
 312:main.cpp      **** 							vasynth.SetPWMLFO();
 1875              		.loc 11 312 29 view .LVU519
 1876 0438 C0ED157A 		vstr.32	s15, [r0, #84]
 313:main.cpp      **** 							break;
 1877              		.loc 11 313 8 is_stmt 1 view .LVU520
 1878              	.L143:
 319:main.cpp      **** 							break;
 1879              		.loc 11 319 8 view .LVU521
 1880              	.LBE362:
 1881              	.LBE377:
 409:main.cpp      **** 
 1882              		.loc 11 409 1 is_stmt 0 view .LVU522
 1883 043c 03B0     		add	sp, sp, #12
 1884              		.cfi_remember_state
 1885              		.cfi_def_cfa_offset 36
 1886              		@ sp needed
 1887 043e BDE8F040 		pop	{r4, r5, r6, r7, lr}
 1888              		.cfi_restore 14
 1889              		.cfi_restore 7
 1890              		.cfi_restore 6
 1891              		.cfi_restore 5
 1892              		.cfi_restore 4
 1893              		.cfi_def_cfa_offset 16
 1894 0442 04B0     		add	sp, sp, #16
 1895              		.cfi_def_cfa_offset 0
 1896              	.LBB378:
 1897              	.LBB363:
 319:main.cpp      **** 							break;
 1898              		.loc 11 319 25 view .LVU523
 1899 0444 FFF7FEBF 		b	_ZN7VASynth9SetPWMLFOEv
 1900              	.LVL95:
 1901              	.L89:
 1902              		.cfi_restore_state
 316:main.cpp      **** 						{
 1903              		.loc 11 316 7 is_stmt 1 view .LVU524
 317:main.cpp      **** 							vasynth.pwmlfo_amp_ = ((float)p.value / 511.0f);
 1904              		.loc 11 317 7 view .LVU525
 318:main.cpp      **** 							vasynth.SetPWMLFO();
 1905              		.loc 11 318 8 view .LVU526
 318:main.cpp      **** 							vasynth.SetPWMLFO();
 1906              		.loc 11 318 31 is_stmt 0 view .LVU527
 1907 0448 07EE902A 		vmov	s15, r2	@ int
 318:main.cpp      **** 							vasynth.SetPWMLFO();
 1908              		.loc 11 318 46 view .LVU528
 1909 044c 9FED8F7A 		vldr.32	s14, .L148+8
 318:main.cpp      **** 							vasynth.SetPWMLFO();
ARM GAS  C:\Users\jcjco\AppData\Local\Temp\ccocbARg.s 			page 68


 1910              		.loc 11 318 28 view .LVU529
 1911 0450 8C48     		ldr	r0, .L148
 318:main.cpp      **** 							vasynth.SetPWMLFO();
 1912              		.loc 11 318 31 view .LVU530
 1913 0452 F8EE676A 		vcvt.f32.u32	s13, s15
 318:main.cpp      **** 							vasynth.SetPWMLFO();
 1914              		.loc 11 318 46 view .LVU531
 1915 0456 C6EE877A 		vdiv.f32	s15, s13, s14
 318:main.cpp      **** 							vasynth.SetPWMLFO();
 1916              		.loc 11 318 28 view .LVU532
 1917 045a C0ED167A 		vstr.32	s15, [r0, #88]
 1918 045e EDE7     		b	.L143
 1919              	.L88:
 322:main.cpp      **** 						{
 1920              		.loc 11 322 7 is_stmt 1 view .LVU533
 323:main.cpp      **** 							vasynth.pwm2lfo_freq_ = ((float)p.value / 127.0f);
 1921              		.loc 11 323 7 view .LVU534
 324:main.cpp      **** 							vasynth.SetPWM2LFO();
 1922              		.loc 11 324 8 view .LVU535
 324:main.cpp      **** 							vasynth.SetPWM2LFO();
 1923              		.loc 11 324 33 is_stmt 0 view .LVU536
 1924 0460 07EE902A 		vmov	s15, r2	@ int
 324:main.cpp      **** 							vasynth.SetPWM2LFO();
 1925              		.loc 11 324 48 view .LVU537
 1926 0464 9FED887A 		vldr.32	s14, .L148+4
 324:main.cpp      **** 							vasynth.SetPWM2LFO();
 1927              		.loc 11 324 30 view .LVU538
 1928 0468 8648     		ldr	r0, .L148
 324:main.cpp      **** 							vasynth.SetPWM2LFO();
 1929              		.loc 11 324 33 view .LVU539
 1930 046a F8EE676A 		vcvt.f32.u32	s13, s15
 324:main.cpp      **** 							vasynth.SetPWM2LFO();
 1931              		.loc 11 324 48 view .LVU540
 1932 046e C6EE877A 		vdiv.f32	s15, s13, s14
 324:main.cpp      **** 							vasynth.SetPWM2LFO();
 1933              		.loc 11 324 30 view .LVU541
 1934 0472 C0ED187A 		vstr.32	s15, [r0, #96]
 325:main.cpp      **** 							break;
 1935              		.loc 11 325 8 is_stmt 1 view .LVU542
 1936              	.L141:
 331:main.cpp      **** 							break;
 1937              		.loc 11 331 8 view .LVU543
 1938              	.LBE363:
 1939              	.LBE378:
 409:main.cpp      **** 
 1940              		.loc 11 409 1 is_stmt 0 view .LVU544
 1941 0476 03B0     		add	sp, sp, #12
 1942              		.cfi_remember_state
 1943              		.cfi_def_cfa_offset 36
 1944              		@ sp needed
 1945 0478 BDE8F040 		pop	{r4, r5, r6, r7, lr}
 1946              		.cfi_restore 14
 1947              		.cfi_restore 7
 1948              		.cfi_restore 6
 1949              		.cfi_restore 5
 1950              		.cfi_restore 4
 1951              		.cfi_def_cfa_offset 16
ARM GAS  C:\Users\jcjco\AppData\Local\Temp\ccocbARg.s 			page 69


 1952 047c 04B0     		add	sp, sp, #16
 1953              		.cfi_def_cfa_offset 0
 1954              	.LBB379:
 1955              	.LBB364:
 331:main.cpp      **** 							break;
 1956              		.loc 11 331 26 view .LVU545
 1957 047e FFF7FEBF 		b	_ZN7VASynth10SetPWM2LFOEv
 1958              	.LVL96:
 1959              	.L95:
 1960              		.cfi_restore_state
 283:main.cpp      **** 						{
 1961              		.loc 11 283 7 is_stmt 1 view .LVU546
 284:main.cpp      **** 							vasynth.vcf_kbd_follow_= ((float)p.value / 127.0f);
 1962              		.loc 11 284 7 view .LVU547
 285:main.cpp      **** 							break;
 1963              		.loc 11 285 8 view .LVU548
 285:main.cpp      **** 							break;
 1964              		.loc 11 285 34 is_stmt 0 view .LVU549
 1965 0482 07EE902A 		vmov	s15, r2	@ int
 285:main.cpp      **** 							break;
 1966              		.loc 11 285 49 view .LVU550
 1967 0486 9FED807A 		vldr.32	s14, .L148+4
 285:main.cpp      **** 							break;
 1968              		.loc 11 285 31 view .LVU551
 1969 048a 7E4B     		ldr	r3, .L148
 285:main.cpp      **** 							break;
 1970              		.loc 11 285 34 view .LVU552
 1971 048c F8EE676A 		vcvt.f32.u32	s13, s15
 285:main.cpp      **** 							break;
 1972              		.loc 11 285 49 view .LVU553
 1973 0490 C6EE877A 		vdiv.f32	s15, s13, s14
 285:main.cpp      **** 							break;
 1974              		.loc 11 285 31 view .LVU554
 1975 0494 C3ED1D7A 		vstr.32	s15, [r3, #116]
 286:main.cpp      **** 						}
 1976              		.loc 11 286 8 is_stmt 1 view .LVU555
 1977 0498 D2E5     		b	.L65
 1978              	.L94:
 288:main.cpp      **** 						{
 1979              		.loc 11 288 7 view .LVU556
 289:main.cpp      **** 							vasynth.env_kbd_follow_ = ((float)p.value / 127.0f);
 1980              		.loc 11 289 7 view .LVU557
 290:main.cpp      **** 							break;
 1981              		.loc 11 290 8 view .LVU558
 290:main.cpp      **** 							break;
 1982              		.loc 11 290 35 is_stmt 0 view .LVU559
 1983 049a 07EE902A 		vmov	s15, r2	@ int
 290:main.cpp      **** 							break;
 1984              		.loc 11 290 50 view .LVU560
 1985 049e 9FED7A7A 		vldr.32	s14, .L148+4
 290:main.cpp      **** 							break;
 1986              		.loc 11 290 32 view .LVU561
 1987 04a2 784B     		ldr	r3, .L148
 290:main.cpp      **** 							break;
 1988              		.loc 11 290 35 view .LVU562
 1989 04a4 F8EE676A 		vcvt.f32.u32	s13, s15
 290:main.cpp      **** 							break;
ARM GAS  C:\Users\jcjco\AppData\Local\Temp\ccocbARg.s 			page 70


 1990              		.loc 11 290 50 view .LVU563
 1991 04a8 C6EE877A 		vdiv.f32	s15, s13, s14
 290:main.cpp      **** 							break;
 1992              		.loc 11 290 32 view .LVU564
 1993 04ac C3ED1E7A 		vstr.32	s15, [r3, #120]
 291:main.cpp      **** 						}
 1994              		.loc 11 291 8 is_stmt 1 view .LVU565
 1995 04b0 C6E5     		b	.L65
 1996              	.L103:
 232:main.cpp      **** 							{
 1997              		.loc 11 232 7 view .LVU566
 233:main.cpp      **** 							vasynth.eg_f_sustain_ = ((float)p.value / 127.0f);
 1998              		.loc 11 233 8 view .LVU567
 234:main.cpp      **** 							vasynth.SetEG();
 1999              		.loc 11 234 8 view .LVU568
 234:main.cpp      **** 							vasynth.SetEG();
 2000              		.loc 11 234 33 is_stmt 0 view .LVU569
 2001 04b2 07EE902A 		vmov	s15, r2	@ int
 234:main.cpp      **** 							vasynth.SetEG();
 2002              		.loc 11 234 48 view .LVU570
 2003 04b6 9FED747A 		vldr.32	s14, .L148+4
 234:main.cpp      **** 							vasynth.SetEG();
 2004              		.loc 11 234 30 view .LVU571
 2005 04ba 7248     		ldr	r0, .L148
 234:main.cpp      **** 							vasynth.SetEG();
 2006              		.loc 11 234 33 view .LVU572
 2007 04bc F8EE676A 		vcvt.f32.u32	s13, s15
 234:main.cpp      **** 							vasynth.SetEG();
 2008              		.loc 11 234 48 view .LVU573
 2009 04c0 C6EE877A 		vdiv.f32	s15, s13, s14
 234:main.cpp      **** 							vasynth.SetEG();
 2010              		.loc 11 234 30 view .LVU574
 2011 04c4 C0ED0F7A 		vstr.32	s15, [r0, #60]
 235:main.cpp      **** 							break;
 2012              		.loc 11 235 8 is_stmt 1 view .LVU575
 2013 04c8 18E7     		b	.L142
 2014              	.L102:
 239:main.cpp      **** 						{
 2015              		.loc 11 239 7 view .LVU576
 240:main.cpp      **** 							vasynth.eg_f_release_ = ((float)p.value / 127.0f);
 2016              		.loc 11 240 7 view .LVU577
 241:main.cpp      **** 							vasynth.SetEG();
 2017              		.loc 11 241 8 view .LVU578
 241:main.cpp      **** 							vasynth.SetEG();
 2018              		.loc 11 241 33 is_stmt 0 view .LVU579
 2019 04ca 07EE902A 		vmov	s15, r2	@ int
 241:main.cpp      **** 							vasynth.SetEG();
 2020              		.loc 11 241 48 view .LVU580
 2021 04ce 9FED6E7A 		vldr.32	s14, .L148+4
 241:main.cpp      **** 							vasynth.SetEG();
 2022              		.loc 11 241 30 view .LVU581
 2023 04d2 6C48     		ldr	r0, .L148
 241:main.cpp      **** 							vasynth.SetEG();
 2024              		.loc 11 241 33 view .LVU582
 2025 04d4 F8EE676A 		vcvt.f32.u32	s13, s15
 241:main.cpp      **** 							vasynth.SetEG();
 2026              		.loc 11 241 48 view .LVU583
ARM GAS  C:\Users\jcjco\AppData\Local\Temp\ccocbARg.s 			page 71


 2027 04d8 C6EE877A 		vdiv.f32	s15, s13, s14
 241:main.cpp      **** 							vasynth.SetEG();
 2028              		.loc 11 241 30 view .LVU584
 2029 04dc C0ED107A 		vstr.32	s15, [r0, #64]
 242:main.cpp      **** 							break;
 2030              		.loc 11 242 8 is_stmt 1 view .LVU585
 2031 04e0 0CE7     		b	.L142
 2032              	.L101:
 245:main.cpp      **** 						{
 2033              		.loc 11 245 7 view .LVU586
 246:main.cpp      **** 							vasynth.eg_a_attack_ = ((float)p.value / 127.0f);
 2034              		.loc 11 246 7 view .LVU587
 247:main.cpp      **** 							vasynth.SetEG();
 2035              		.loc 11 247 8 view .LVU588
 247:main.cpp      **** 							vasynth.SetEG();
 2036              		.loc 11 247 32 is_stmt 0 view .LVU589
 2037 04e2 07EE902A 		vmov	s15, r2	@ int
 247:main.cpp      **** 							vasynth.SetEG();
 2038              		.loc 11 247 47 view .LVU590
 2039 04e6 9FED687A 		vldr.32	s14, .L148+4
 247:main.cpp      **** 							vasynth.SetEG();
 2040              		.loc 11 247 29 view .LVU591
 2041 04ea 6648     		ldr	r0, .L148
 247:main.cpp      **** 							vasynth.SetEG();
 2042              		.loc 11 247 32 view .LVU592
 2043 04ec F8EE676A 		vcvt.f32.u32	s13, s15
 247:main.cpp      **** 							vasynth.SetEG();
 2044              		.loc 11 247 47 view .LVU593
 2045 04f0 C6EE877A 		vdiv.f32	s15, s13, s14
 247:main.cpp      **** 							vasynth.SetEG();
 2046              		.loc 11 247 29 view .LVU594
 2047 04f4 C0ED097A 		vstr.32	s15, [r0, #36]
 248:main.cpp      **** 							break;
 2048              		.loc 11 248 8 is_stmt 1 view .LVU595
 2049 04f8 00E7     		b	.L142
 2050              	.L100:
 253:main.cpp      **** 						{
 2051              		.loc 11 253 7 view .LVU596
 254:main.cpp      **** 							vasynth.eg_a_decay_ = ((float)p.value / 127.0f);
 2052              		.loc 11 254 7 view .LVU597
 255:main.cpp      **** 							vasynth.SetEG();
 2053              		.loc 11 255 8 view .LVU598
 255:main.cpp      **** 							vasynth.SetEG();
 2054              		.loc 11 255 31 is_stmt 0 view .LVU599
 2055 04fa 07EE902A 		vmov	s15, r2	@ int
 255:main.cpp      **** 							vasynth.SetEG();
 2056              		.loc 11 255 46 view .LVU600
 2057 04fe 9FED627A 		vldr.32	s14, .L148+4
 255:main.cpp      **** 							vasynth.SetEG();
 2058              		.loc 11 255 28 view .LVU601
 2059 0502 6048     		ldr	r0, .L148
 255:main.cpp      **** 							vasynth.SetEG();
 2060              		.loc 11 255 31 view .LVU602
 2061 0504 F8EE676A 		vcvt.f32.u32	s13, s15
 255:main.cpp      **** 							vasynth.SetEG();
 2062              		.loc 11 255 46 view .LVU603
 2063 0508 C6EE877A 		vdiv.f32	s15, s13, s14
ARM GAS  C:\Users\jcjco\AppData\Local\Temp\ccocbARg.s 			page 72


 255:main.cpp      **** 							vasynth.SetEG();
 2064              		.loc 11 255 28 view .LVU604
 2065 050c C0ED0A7A 		vstr.32	s15, [r0, #40]
 256:main.cpp      **** 							break;
 2066              		.loc 11 256 8 is_stmt 1 view .LVU605
 2067 0510 F4E6     		b	.L142
 2068              	.L99:
 259:main.cpp      **** 						{
 2069              		.loc 11 259 7 view .LVU606
 260:main.cpp      **** 							vasynth.eg_a_sustain_ = ((float)p.value / 127.0f);
 2070              		.loc 11 260 7 view .LVU607
 261:main.cpp      **** 							vasynth.SetEG();
 2071              		.loc 11 261 8 view .LVU608
 261:main.cpp      **** 							vasynth.SetEG();
 2072              		.loc 11 261 33 is_stmt 0 view .LVU609
 2073 0512 07EE902A 		vmov	s15, r2	@ int
 261:main.cpp      **** 							vasynth.SetEG();
 2074              		.loc 11 261 48 view .LVU610
 2075 0516 9FED5C7A 		vldr.32	s14, .L148+4
 261:main.cpp      **** 							vasynth.SetEG();
 2076              		.loc 11 261 30 view .LVU611
 2077 051a 5A48     		ldr	r0, .L148
 261:main.cpp      **** 							vasynth.SetEG();
 2078              		.loc 11 261 33 view .LVU612
 2079 051c F8EE676A 		vcvt.f32.u32	s13, s15
 261:main.cpp      **** 							vasynth.SetEG();
 2080              		.loc 11 261 48 view .LVU613
 2081 0520 C6EE877A 		vdiv.f32	s15, s13, s14
 261:main.cpp      **** 							vasynth.SetEG();
 2082              		.loc 11 261 30 view .LVU614
 2083 0524 C0ED0B7A 		vstr.32	s15, [r0, #44]
 262:main.cpp      **** 							break;
 2084              		.loc 11 262 8 is_stmt 1 view .LVU615
 2085 0528 E8E6     		b	.L142
 2086              	.L98:
 265:main.cpp      **** 						{
 2087              		.loc 11 265 7 view .LVU616
 266:main.cpp      **** 							vasynth.eg_a_release_ = ((float)p.value / 127.0f);
 2088              		.loc 11 266 7 view .LVU617
 267:main.cpp      **** 							vasynth.SetEG();
 2089              		.loc 11 267 8 view .LVU618
 267:main.cpp      **** 							vasynth.SetEG();
 2090              		.loc 11 267 33 is_stmt 0 view .LVU619
 2091 052a 07EE902A 		vmov	s15, r2	@ int
 267:main.cpp      **** 							vasynth.SetEG();
 2092              		.loc 11 267 48 view .LVU620
 2093 052e 9FED567A 		vldr.32	s14, .L148+4
 267:main.cpp      **** 							vasynth.SetEG();
 2094              		.loc 11 267 30 view .LVU621
 2095 0532 5448     		ldr	r0, .L148
 267:main.cpp      **** 							vasynth.SetEG();
 2096              		.loc 11 267 33 view .LVU622
 2097 0534 F8EE676A 		vcvt.f32.u32	s13, s15
 267:main.cpp      **** 							vasynth.SetEG();
 2098              		.loc 11 267 48 view .LVU623
 2099 0538 C6EE877A 		vdiv.f32	s15, s13, s14
 267:main.cpp      **** 							vasynth.SetEG();
ARM GAS  C:\Users\jcjco\AppData\Local\Temp\ccocbARg.s 			page 73


 2100              		.loc 11 267 30 view .LVU624
 2101 053c C0ED0C7A 		vstr.32	s15, [r0, #48]
 268:main.cpp      **** 							break;
 2102              		.loc 11 268 8 is_stmt 1 view .LVU625
 2103 0540 DCE6     		b	.L142
 2104              	.L97:
 271:main.cpp      **** 						{
 2105              		.loc 11 271 7 view .LVU626
 272:main.cpp      **** 							vasynth.osc_pw_ = ((float)p.value / 255.0f);
 2106              		.loc 11 272 7 view .LVU627
 273:main.cpp      **** 							break;
 2107              		.loc 11 273 8 view .LVU628
 273:main.cpp      **** 							break;
 2108              		.loc 11 273 27 is_stmt 0 view .LVU629
 2109 0542 07EE902A 		vmov	s15, r2	@ int
 273:main.cpp      **** 							break;
 2110              		.loc 11 273 42 view .LVU630
 2111 0546 9FED527A 		vldr.32	s14, .L148+12
 273:main.cpp      **** 							break;
 2112              		.loc 11 273 24 view .LVU631
 2113 054a 4E4B     		ldr	r3, .L148
 273:main.cpp      **** 							break;
 2114              		.loc 11 273 27 view .LVU632
 2115 054c F8EE676A 		vcvt.f32.u32	s13, s15
 273:main.cpp      **** 							break;
 2116              		.loc 11 273 42 view .LVU633
 2117 0550 C6EE877A 		vdiv.f32	s15, s13, s14
 273:main.cpp      **** 							break;
 2118              		.loc 11 273 24 view .LVU634
 2119 0554 C3ED047A 		vstr.32	s15, [r3, #16]
 274:main.cpp      **** 						}
 2120              		.loc 11 274 8 is_stmt 1 view .LVU635
 2121 0558 72E5     		b	.L65
 2122              	.L96:
 276:main.cpp      **** 						{
 2123              		.loc 11 276 7 view .LVU636
 277:main.cpp      **** 							vasynth.osc2_pw_ = ((float)p.value / 255.0f);
 2124              		.loc 11 277 7 view .LVU637
 278:main.cpp      **** 							break;
 2125              		.loc 11 278 8 view .LVU638
 278:main.cpp      **** 							break;
 2126              		.loc 11 278 28 is_stmt 0 view .LVU639
 2127 055a 07EE902A 		vmov	s15, r2	@ int
 278:main.cpp      **** 							break;
 2128              		.loc 11 278 43 view .LVU640
 2129 055e 9FED4C7A 		vldr.32	s14, .L148+12
 278:main.cpp      **** 							break;
 2130              		.loc 11 278 25 view .LVU641
 2131 0562 484B     		ldr	r3, .L148
 278:main.cpp      **** 							break;
 2132              		.loc 11 278 28 view .LVU642
 2133 0564 F8EE676A 		vcvt.f32.u32	s13, s15
 278:main.cpp      **** 							break;
 2134              		.loc 11 278 43 view .LVU643
 2135 0568 C6EE877A 		vdiv.f32	s15, s13, s14
 278:main.cpp      **** 							break;
 2136              		.loc 11 278 25 view .LVU644
ARM GAS  C:\Users\jcjco\AppData\Local\Temp\ccocbARg.s 			page 74


 2137 056c C3ED087A 		vstr.32	s15, [r3, #32]
 279:main.cpp      **** 						}
 2138              		.loc 11 279 8 is_stmt 1 view .LVU645
 2139 0570 66E5     		b	.L65
 2140              	.L109:
 187:main.cpp      **** 						{
 2141              		.loc 11 187 7 view .LVU646
 188:main.cpp      **** 							vasynth.osc_mix_ = ((float)p.value / 127.0f);
 2142              		.loc 11 188 7 view .LVU647
 189:main.cpp      **** 							break;
 2143              		.loc 11 189 8 view .LVU648
 189:main.cpp      **** 							break;
 2144              		.loc 11 189 28 is_stmt 0 view .LVU649
 2145 0572 07EE902A 		vmov	s15, r2	@ int
 189:main.cpp      **** 							break;
 2146              		.loc 11 189 43 view .LVU650
 2147 0576 9FED447A 		vldr.32	s14, .L148+4
 189:main.cpp      **** 							break;
 2148              		.loc 11 189 25 view .LVU651
 2149 057a 424B     		ldr	r3, .L148
 189:main.cpp      **** 							break;
 2150              		.loc 11 189 28 view .LVU652
 2151 057c F8EE676A 		vcvt.f32.u32	s13, s15
 189:main.cpp      **** 							break;
 2152              		.loc 11 189 43 view .LVU653
 2153 0580 C6EE877A 		vdiv.f32	s15, s13, s14
 189:main.cpp      **** 							break;
 2154              		.loc 11 189 25 view .LVU654
 2155 0584 C3ED027A 		vstr.32	s15, [r3, #8]
 190:main.cpp      **** 						}
 2156              		.loc 11 190 8 is_stmt 1 view .LVU655
 2157 0588 5AE5     		b	.L65
 2158              	.L108:
 192:main.cpp      **** 						{
 2159              		.loc 11 192 7 view .LVU656
 193:main.cpp      **** 							vasynth.osc2_detune_ = ((float)p.value / 255.0f);
 2160              		.loc 11 193 7 view .LVU657
 194:main.cpp      **** 							break;
 2161              		.loc 11 194 8 view .LVU658
 194:main.cpp      **** 							break;
 2162              		.loc 11 194 32 is_stmt 0 view .LVU659
 2163 058a 07EE902A 		vmov	s15, r2	@ int
 194:main.cpp      **** 							break;
 2164              		.loc 11 194 47 view .LVU660
 2165 058e 9FED407A 		vldr.32	s14, .L148+12
 194:main.cpp      **** 							break;
 2166              		.loc 11 194 29 view .LVU661
 2167 0592 3C4B     		ldr	r3, .L148
 194:main.cpp      **** 							break;
 2168              		.loc 11 194 32 view .LVU662
 2169 0594 F8EE676A 		vcvt.f32.u32	s13, s15
 194:main.cpp      **** 							break;
 2170              		.loc 11 194 47 view .LVU663
 2171 0598 C6EE877A 		vdiv.f32	s15, s13, s14
 194:main.cpp      **** 							break;
 2172              		.loc 11 194 29 view .LVU664
 2173 059c C3ED067A 		vstr.32	s15, [r3, #24]
ARM GAS  C:\Users\jcjco\AppData\Local\Temp\ccocbARg.s 			page 75


 195:main.cpp      **** 						}
 2174              		.loc 11 195 8 is_stmt 1 view .LVU665
 2175 05a0 4EE5     		b	.L65
 2176              	.L80:
 393:main.cpp      **** 						{
 2177              		.loc 11 393 7 view .LVU666
 394:main.cpp      **** 							// Sequencer Mode Play
 2178              		.loc 11 394 7 view .LVU667
 396:main.cpp      **** 							seqclock = 0;
 2179              		.loc 11 396 8 view .LVU668
 397:main.cpp      **** 							seqmem = 0x00010000;
 2180              		.loc 11 397 17 is_stmt 0 view .LVU669
 2181 05a2 3C4A     		ldr	r2, .L148+16
 2182              	.LVL97:
 397:main.cpp      **** 							seqmem = 0x00010000;
 2183              		.loc 11 397 17 view .LVU670
 2184 05a4 0021     		movs	r1, #0
 396:main.cpp      **** 							seqclock = 0;
 2185              		.loc 11 396 16 view .LVU671
 2186 05a6 3C48     		ldr	r0, .L148+20
 2187 05a8 0324     		movs	r4, #3
 398:main.cpp      **** 							break;
 2188              		.loc 11 398 15 view .LVU672
 2189 05aa 3C4B     		ldr	r3, .L148+24
 397:main.cpp      **** 							seqmem = 0x00010000;
 2190              		.loc 11 397 17 view .LVU673
 2191 05ac 1180     		strh	r1, [r2]	@ movhi
 398:main.cpp      **** 							break;
 2192              		.loc 11 398 15 view .LVU674
 2193 05ae 4FF48032 		mov	r2, #65536
 396:main.cpp      **** 							seqclock = 0;
 2194              		.loc 11 396 16 view .LVU675
 2195 05b2 0480     		strh	r4, [r0]	@ movhi
 397:main.cpp      **** 							seqmem = 0x00010000;
 2196              		.loc 11 397 8 is_stmt 1 view .LVU676
 398:main.cpp      **** 							break;
 2197              		.loc 11 398 8 view .LVU677
 398:main.cpp      **** 							break;
 2198              		.loc 11 398 15 is_stmt 0 view .LVU678
 2199 05b4 1A60     		str	r2, [r3]
 399:main.cpp      **** 						}
 2200              		.loc 11 399 8 is_stmt 1 view .LVU679
 2201              	.LBE364:
 2202              	.LBE379:
 409:main.cpp      **** 
 2203              		.loc 11 409 1 is_stmt 0 view .LVU680
 2204 05b6 43E5     		b	.L65
 2205              	.LVL98:
 2206              	.L104:
 2207              	.LBB380:
 2208              	.LBB365:
 222:main.cpp      **** 						{
 2209              		.loc 11 222 7 is_stmt 1 view .LVU681
 223:main.cpp      **** 							vasynth.eg_f_decay_ = ((float)p.value / 127.0f);
 2210              		.loc 11 223 7 view .LVU682
 224:main.cpp      **** 							vasynth.SetEG();
 2211              		.loc 11 224 8 view .LVU683
ARM GAS  C:\Users\jcjco\AppData\Local\Temp\ccocbARg.s 			page 76


 224:main.cpp      **** 							vasynth.SetEG();
 2212              		.loc 11 224 31 is_stmt 0 view .LVU684
 2213 05b8 07EE902A 		vmov	s15, r2	@ int
 224:main.cpp      **** 							vasynth.SetEG();
 2214              		.loc 11 224 46 view .LVU685
 2215 05bc 9FED327A 		vldr.32	s14, .L148+4
 224:main.cpp      **** 							vasynth.SetEG();
 2216              		.loc 11 224 28 view .LVU686
 2217 05c0 3048     		ldr	r0, .L148
 224:main.cpp      **** 							vasynth.SetEG();
 2218              		.loc 11 224 31 view .LVU687
 2219 05c2 F8EE676A 		vcvt.f32.u32	s13, s15
 224:main.cpp      **** 							vasynth.SetEG();
 2220              		.loc 11 224 46 view .LVU688
 2221 05c6 C6EE877A 		vdiv.f32	s15, s13, s14
 224:main.cpp      **** 							vasynth.SetEG();
 2222              		.loc 11 224 28 view .LVU689
 2223 05ca C0ED0E7A 		vstr.32	s15, [r0, #56]
 2224 05ce 95E6     		b	.L142
 2225              	.L87:
 328:main.cpp      **** 						{
 2226              		.loc 11 328 7 is_stmt 1 view .LVU690
 329:main.cpp      **** 							vasynth.pwm2lfo_amp_ = ((float)p.value / 511.0f);
 2227              		.loc 11 329 7 view .LVU691
 330:main.cpp      **** 							vasynth.SetPWM2LFO();
 2228              		.loc 11 330 8 view .LVU692
 330:main.cpp      **** 							vasynth.SetPWM2LFO();
 2229              		.loc 11 330 32 is_stmt 0 view .LVU693
 2230 05d0 07EE902A 		vmov	s15, r2	@ int
 330:main.cpp      **** 							vasynth.SetPWM2LFO();
 2231              		.loc 11 330 47 view .LVU694
 2232 05d4 9FED2D7A 		vldr.32	s14, .L148+8
 330:main.cpp      **** 							vasynth.SetPWM2LFO();
 2233              		.loc 11 330 29 view .LVU695
 2234 05d8 2A48     		ldr	r0, .L148
 330:main.cpp      **** 							vasynth.SetPWM2LFO();
 2235              		.loc 11 330 32 view .LVU696
 2236 05da F8EE676A 		vcvt.f32.u32	s13, s15
 330:main.cpp      **** 							vasynth.SetPWM2LFO();
 2237              		.loc 11 330 47 view .LVU697
 2238 05de C6EE877A 		vdiv.f32	s15, s13, s14
 330:main.cpp      **** 							vasynth.SetPWM2LFO();
 2239              		.loc 11 330 29 view .LVU698
 2240 05e2 C0ED197A 		vstr.32	s15, [r0, #100]
 2241 05e6 46E7     		b	.L141
 2242              	.L86:
 334:main.cpp      **** 						{
 2243              		.loc 11 334 7 is_stmt 1 view .LVU699
 335:main.cpp      **** 							vasynth.vcavcflfo_freq_ = ((float)p.value / 127.0f);
 2244              		.loc 11 335 7 view .LVU700
 336:main.cpp      **** 							vasynth.SetVCAVCFLFO();
 2245              		.loc 11 336 8 view .LVU701
 336:main.cpp      **** 							vasynth.SetVCAVCFLFO();
 2246              		.loc 11 336 35 is_stmt 0 view .LVU702
 2247 05e8 07EE902A 		vmov	s15, r2	@ int
 336:main.cpp      **** 							vasynth.SetVCAVCFLFO();
 2248              		.loc 11 336 50 view .LVU703
ARM GAS  C:\Users\jcjco\AppData\Local\Temp\ccocbARg.s 			page 77


 2249 05ec 9FED267A 		vldr.32	s14, .L148+4
 336:main.cpp      **** 							vasynth.SetVCAVCFLFO();
 2250              		.loc 11 336 32 view .LVU704
 2251 05f0 2448     		ldr	r0, .L148
 336:main.cpp      **** 							vasynth.SetVCAVCFLFO();
 2252              		.loc 11 336 35 view .LVU705
 2253 05f2 F8EE676A 		vcvt.f32.u32	s13, s15
 336:main.cpp      **** 							vasynth.SetVCAVCFLFO();
 2254              		.loc 11 336 50 view .LVU706
 2255 05f6 C6EE877A 		vdiv.f32	s15, s13, s14
 336:main.cpp      **** 							vasynth.SetVCAVCFLFO();
 2256              		.loc 11 336 32 view .LVU707
 2257 05fa C0ED1B7A 		vstr.32	s15, [r0, #108]
 337:main.cpp      **** 							break;
 2258              		.loc 11 337 8 is_stmt 1 view .LVU708
 2259 05fe EDE6     		b	.L140
 2260              	.LVL99:
 2261              	.L113:
 143:main.cpp      **** 									vasynth.waveform_ = WAVE_SAW;
 2262              		.loc 11 143 9 view .LVU709
 144:main.cpp      **** 									break;
 2263              		.loc 11 144 10 view .LVU710
 144:main.cpp      **** 									break;
 2264              		.loc 11 144 28 is_stmt 0 view .LVU711
 2265 0600 204B     		ldr	r3, .L148
 2266 0602 0222     		movs	r2, #2
 2267 0604 1A71     		strb	r2, [r3, #4]
 145:main.cpp      **** 								case 3:
 2268              		.loc 11 145 10 is_stmt 1 view .LVU712
 2269              	.L112:
 153:main.cpp      **** 							break;
 2270              		.loc 11 153 8 view .LVU713
 153:main.cpp      **** 							break;
 2271              		.loc 11 153 27 is_stmt 0 view .LVU714
 2272 0606 1F48     		ldr	r0, .L148
 2273              	.LBE365:
 2274              	.LBE380:
 409:main.cpp      **** 
 2275              		.loc 11 409 1 view .LVU715
 2276 0608 03B0     		add	sp, sp, #12
 2277              		.cfi_remember_state
 2278              		.cfi_def_cfa_offset 36
 2279              		@ sp needed
 2280 060a BDE8F040 		pop	{r4, r5, r6, r7, lr}
 2281              		.cfi_restore 14
 2282              		.cfi_restore 7
 2283              		.cfi_restore 6
 2284              		.cfi_restore 5
 2285              		.cfi_restore 4
 2286              		.cfi_def_cfa_offset 16
 2287 060e 04B0     		add	sp, sp, #16
 2288              		.cfi_def_cfa_offset 0
 2289              	.LBB381:
 2290              	.LBB366:
 153:main.cpp      **** 							break;
 2291              		.loc 11 153 27 view .LVU716
 2292 0610 FFF7FEBF 		b	_ZN7VASynth11SetWaveformEv
ARM GAS  C:\Users\jcjco\AppData\Local\Temp\ccocbARg.s 			page 78


 2293              	.LVL100:
 2294              	.L118:
 2295              		.cfi_restore_state
 169:main.cpp      **** 									vasynth.osc2_waveform_ = WAVE_POLYBLEP_SAW;
 2296              		.loc 11 169 9 is_stmt 1 view .LVU717
 170:main.cpp      **** 									break;
 2297              		.loc 11 170 10 view .LVU718
 170:main.cpp      **** 									break;
 2298              		.loc 11 170 33 is_stmt 0 view .LVU719
 2299 0614 1B4B     		ldr	r3, .L148
 2300 0616 0622     		movs	r2, #6
 2301 0618 1A75     		strb	r2, [r3, #20]
 171:main.cpp      **** 							}
 2302              		.loc 11 171 10 is_stmt 1 view .LVU720
 2303 061a F4E7     		b	.L112
 2304              	.L120:
 166:main.cpp      **** 									vasynth.osc2_waveform_ = WAVE_SQUARE;
 2305              		.loc 11 166 9 view .LVU721
 167:main.cpp      **** 									break;
 2306              		.loc 11 167 10 view .LVU722
 167:main.cpp      **** 									break;
 2307              		.loc 11 167 33 is_stmt 0 view .LVU723
 2308 061c 194B     		ldr	r3, .L148
 2309 061e 0422     		movs	r2, #4
 2310 0620 1A75     		strb	r2, [r3, #20]
 168:main.cpp      **** 								case 4:
 2311              		.loc 11 168 10 is_stmt 1 view .LVU724
 2312 0622 F0E7     		b	.L112
 2313              	.L121:
 163:main.cpp      **** 									vasynth.osc2_waveform_ = WAVE_SAW;
 2314              		.loc 11 163 9 view .LVU725
 164:main.cpp      **** 									break;
 2315              		.loc 11 164 10 view .LVU726
 164:main.cpp      **** 									break;
 2316              		.loc 11 164 33 is_stmt 0 view .LVU727
 2317 0624 174B     		ldr	r3, .L148
 2318 0626 0222     		movs	r2, #2
 2319 0628 1A75     		strb	r2, [r3, #20]
 165:main.cpp      **** 								case 3:
 2320              		.loc 11 165 10 is_stmt 1 view .LVU728
 2321 062a ECE7     		b	.L112
 2322              	.L122:
 160:main.cpp      **** 									vasynth.osc2_waveform_ = WAVE_TRI;
 2323              		.loc 11 160 9 view .LVU729
 161:main.cpp      **** 									break;
 2324              		.loc 11 161 10 view .LVU730
 161:main.cpp      **** 									break;
 2325              		.loc 11 161 33 is_stmt 0 view .LVU731
 2326 062c 154B     		ldr	r3, .L148
 2327 062e 0122     		movs	r2, #1
 2328 0630 1A75     		strb	r2, [r3, #20]
 162:main.cpp      **** 								case 2:
 2329              		.loc 11 162 10 is_stmt 1 view .LVU732
 2330 0632 E8E7     		b	.L112
 2331              	.L125:
 356:main.cpp      **** 									vasynth.vcavcflfo_waveform_ = WAVE_SQUARE;
 2332              		.loc 11 356 9 view .LVU733
ARM GAS  C:\Users\jcjco\AppData\Local\Temp\ccocbARg.s 			page 79


 357:main.cpp      **** 									break;
 2333              		.loc 11 357 10 view .LVU734
 357:main.cpp      **** 									break;
 2334              		.loc 11 357 38 is_stmt 0 view .LVU735
 2335 0634 134B     		ldr	r3, .L148
 2336 0636 0422     		movs	r2, #4
 2337 0638 83F86820 		strb	r2, [r3, #104]
 358:main.cpp      **** 								case 3:
 2338              		.loc 11 358 10 is_stmt 1 view .LVU736
 2339 063c 68E6     		b	.L83
 2340              	.L126:
 353:main.cpp      **** 									vasynth.vcavcflfo_waveform_ = WAVE_SAW;
 2341              		.loc 11 353 9 view .LVU737
 354:main.cpp      **** 									break;
 2342              		.loc 11 354 10 view .LVU738
 354:main.cpp      **** 									break;
 2343              		.loc 11 354 38 is_stmt 0 view .LVU739
 2344 063e 114B     		ldr	r3, .L148
 2345 0640 0222     		movs	r2, #2
 2346 0642 83F86820 		strb	r2, [r3, #104]
 355:main.cpp      **** 								case 2:
 2347              		.loc 11 355 10 is_stmt 1 view .LVU740
 2348 0646 63E6     		b	.L83
 2349              	.L127:
 350:main.cpp      **** 									vasynth.vcavcflfo_waveform_ = WAVE_TRI;
 2350              		.loc 11 350 9 view .LVU741
 351:main.cpp      **** 									break;
 2351              		.loc 11 351 10 view .LVU742
 351:main.cpp      **** 									break;
 2352              		.loc 11 351 38 is_stmt 0 view .LVU743
 2353 0648 0E4B     		ldr	r3, .L148
 2354 064a 0122     		movs	r2, #1
 2355 064c 83F86820 		strb	r2, [r3, #104]
 352:main.cpp      **** 								case 1:
 2356              		.loc 11 352 10 is_stmt 1 view .LVU744
 2357 0650 5EE6     		b	.L83
 2358              	.L115:
 146:main.cpp      **** 									vasynth.waveform_ = WAVE_SQUARE;
 2359              		.loc 11 146 9 view .LVU745
 147:main.cpp      **** 									break;
 2360              		.loc 11 147 10 view .LVU746
 147:main.cpp      **** 									break;
 2361              		.loc 11 147 28 is_stmt 0 view .LVU747
 2362 0652 0C4B     		ldr	r3, .L148
 2363 0654 0422     		movs	r2, #4
 2364 0656 1A71     		strb	r2, [r3, #4]
 148:main.cpp      **** 								case 2:
 2365              		.loc 11 148 10 is_stmt 1 view .LVU748
 2366 0658 D5E7     		b	.L112
 2367              	.L117:
 140:main.cpp      **** 									vasynth.waveform_ = WAVE_TRI;
 2368              		.loc 11 140 9 view .LVU749
 141:main.cpp      **** 									break;
 2369              		.loc 11 141 10 view .LVU750
 141:main.cpp      **** 									break;
 2370              		.loc 11 141 28 is_stmt 0 view .LVU751
 2371 065a 0A4B     		ldr	r3, .L148
ARM GAS  C:\Users\jcjco\AppData\Local\Temp\ccocbARg.s 			page 80


 2372 065c 0122     		movs	r2, #1
 2373 065e 1A71     		strb	r2, [r3, #4]
 142:main.cpp      **** 								case 4:
 2374              		.loc 11 142 10 is_stmt 1 view .LVU752
 2375 0660 D1E7     		b	.L112
 2376              	.L116:
 149:main.cpp      **** 									vasynth.waveform_ = WAVE_POLYBLEP_SAW;
 2377              		.loc 11 149 9 view .LVU753
 150:main.cpp      **** 									break;
 2378              		.loc 11 150 10 view .LVU754
 150:main.cpp      **** 									break;
 2379              		.loc 11 150 28 is_stmt 0 view .LVU755
 2380 0662 084B     		ldr	r3, .L148
 2381 0664 0622     		movs	r2, #6
 2382 0666 1A71     		strb	r2, [r3, #4]
 151:main.cpp      **** 							}
 2383              		.loc 11 151 10 is_stmt 1 view .LVU756
 2384 0668 CDE7     		b	.L112
 2385              	.LVL101:
 2386              	.L145:
 151:main.cpp      **** 							}
 2387              		.loc 11 151 10 is_stmt 0 view .LVU757
 2388              	.LBE366:
 2389              	.LBB367:
  94:main.cpp      **** 				}
 2390              		.loc 11 94 6 is_stmt 1 view .LVU758
  94:main.cpp      **** 				}
 2391              		.loc 11 94 21 is_stmt 0 view .LVU759
 2392 066a 1146     		mov	r1, r2
 2393 066c 44F08000 		orr	r0, r4, #128
 2394 0670 0192     		str	r2, [sp, #4]
 2395 0672 FFF7FEFF 		bl	_Z15SequencerRecordhh
 2396              	.LVL102:
  94:main.cpp      **** 				}
 2397              		.loc 11 94 21 view .LVU760
 2398 0676 019A     		ldr	r2, [sp, #4]
 2399 0678 0EE6     		b	.L73
 2400              	.LVL103:
 2401              	.L144:
  94:main.cpp      **** 				}
 2402              		.loc 11 94 21 view .LVU761
 2403              	.LBE367:
 2404              	.LBB368:
 108:main.cpp      **** 				}
 2405              		.loc 11 108 6 is_stmt 1 view .LVU762
 108:main.cpp      **** 				}
 2406              		.loc 11 108 21 is_stmt 0 view .LVU763
 2407 067a 0021     		movs	r1, #0
 2408 067c 2046     		mov	r0, r4
 2409 067e FFF7FEFF 		bl	_Z15SequencerRecordhh
 2410              	.LVL104:
 108:main.cpp      **** 				}
 2411              		.loc 11 108 21 view .LVU764
 2412 0682 F8E5     		b	.L75
 2413              	.L149:
 2414              		.align	2
 2415              	.L148:
ARM GAS  C:\Users\jcjco\AppData\Local\Temp\ccocbARg.s 			page 81


 2416 0684 00000000 		.word	.LANCHOR1
 2417 0688 0000FE42 		.word	1123942400
 2418 068c 0080FF43 		.word	1140817920
 2419 0690 00007F43 		.word	1132396544
 2420 0694 00000000 		.word	.LANCHOR4
 2421 0698 00000000 		.word	.LANCHOR8
 2422 069c 00000000 		.word	.LANCHOR2
 2423              	.LBE368:
 2424              	.LBE381:
 2425              		.cfi_endproc
 2426              	.LFE4793:
 2428              		.section	.text._Z9writeSrammh,"ax",%progbits
 2429              		.align	1
 2430              		.p2align 2,,3
 2431              		.global	_Z9writeSrammh
 2432              		.syntax unified
 2433              		.thumb
 2434              		.thumb_func
 2435              		.fpu fpv5-d16
 2437              	_Z9writeSrammh:
 2438              	.LVL105:
 2439              	.LFB4796:
 500:main.cpp      ****   /* Pointer write on specific location of backup SRAM */
 2440              		.loc 11 500 1 is_stmt 1 view -0
 2441              		.cfi_startproc
 2442              		@ args = 0, pretend = 0, frame = 0
 2443              		@ frame_needed = 0, uses_anonymous_args = 0
 2444              		@ link register save eliminated.
 502:main.cpp      **** }
 2445              		.loc 11 502 3 view .LVU766
 502:main.cpp      **** }
 2446              		.loc 11 502 47 is_stmt 0 view .LVU767
 2447 0000 00F10050 		add	r0, r0, #536870912
 2448              	.LVL106:
 502:main.cpp      **** }
 2449              		.loc 11 502 57 view .LVU768
 2450 0004 0170     		strb	r1, [r0]
 503:main.cpp      **** 
 2451              		.loc 11 503 1 view .LVU769
 2452 0006 7047     		bx	lr
 2453              		.cfi_endproc
 2454              	.LFE4796:
 2456              		.section	.text._Z8readSramm,"ax",%progbits
 2457              		.align	1
 2458              		.p2align 2,,3
 2459              		.global	_Z8readSramm
 2460              		.syntax unified
 2461              		.thumb
 2462              		.thumb_func
 2463              		.fpu fpv5-d16
 2465              	_Z8readSramm:
 2466              	.LVL107:
 2467              	.LFB4797:
 506:main.cpp      ****   uint8_t i_retval;
 2468              		.loc 11 506 1 is_stmt 1 view -0
 2469              		.cfi_startproc
 2470              		@ args = 0, pretend = 0, frame = 0
ARM GAS  C:\Users\jcjco\AppData\Local\Temp\ccocbARg.s 			page 82


 2471              		@ frame_needed = 0, uses_anonymous_args = 0
 2472              		@ link register save eliminated.
 507:main.cpp      **** 	
 2473              		.loc 11 507 3 view .LVU771
 510:main.cpp      **** 	
 2474              		.loc 11 510 3 view .LVU772
 510:main.cpp      **** 	
 2475              		.loc 11 510 59 is_stmt 0 view .LVU773
 2476 0000 00F10050 		add	r0, r0, #536870912
 2477              	.LVL108:
 510:main.cpp      **** 	
 2478              		.loc 11 510 12 view .LVU774
 2479 0004 0078     		ldrb	r0, [r0]	@ zero_extendqisi2
 2480              	.LVL109:
 512:main.cpp      **** }
 2481              		.loc 11 512 3 is_stmt 1 view .LVU775
 513:main.cpp      **** 
 2482              		.loc 11 513 1 is_stmt 0 view .LVU776
 2483 0006 7047     		bx	lr
 2484              		.cfi_endproc
 2485              	.LFE4797:
 2487              		.section	.text._Z13writeSramWordmt,"ax",%progbits
 2488              		.align	1
 2489              		.p2align 2,,3
 2490              		.global	_Z13writeSramWordmt
 2491              		.syntax unified
 2492              		.thumb
 2493              		.thumb_func
 2494              		.fpu fpv5-d16
 2496              	_Z13writeSramWordmt:
 2497              	.LVL110:
 2498              	.LFB4798:
 516:main.cpp      ****   /* Pointer write on specific location of backup SRAM */
 2499              		.loc 11 516 1 is_stmt 1 view -0
 2500              		.cfi_startproc
 2501              		@ args = 0, pretend = 0, frame = 0
 2502              		@ frame_needed = 0, uses_anonymous_args = 0
 2503              		@ link register save eliminated.
 518:main.cpp      **** }
 2504              		.loc 11 518 3 view .LVU778
 518:main.cpp      **** }
 2505              		.loc 11 518 48 is_stmt 0 view .LVU779
 2506 0000 00F10050 		add	r0, r0, #536870912
 2507              	.LVL111:
 518:main.cpp      **** }
 2508              		.loc 11 518 60 view .LVU780
 2509 0004 0180     		strh	r1, [r0]	@ movhi
 519:main.cpp      **** 
 2510              		.loc 11 519 1 view .LVU781
 2511 0006 7047     		bx	lr
 2512              		.cfi_endproc
 2513              	.LFE4798:
 2515              		.section	.text._Z12readSramWordm,"ax",%progbits
 2516              		.align	1
 2517              		.p2align 2,,3
 2518              		.global	_Z12readSramWordm
 2519              		.syntax unified
ARM GAS  C:\Users\jcjco\AppData\Local\Temp\ccocbARg.s 			page 83


 2520              		.thumb
 2521              		.thumb_func
 2522              		.fpu fpv5-d16
 2524              	_Z12readSramWordm:
 2525              	.LVL112:
 2526              	.LFB4799:
 522:main.cpp      ****   uint16_t i_retval_w;
 2527              		.loc 11 522 1 is_stmt 1 view -0
 2528              		.cfi_startproc
 2529              		@ args = 0, pretend = 0, frame = 0
 2530              		@ frame_needed = 0, uses_anonymous_args = 0
 2531              		@ link register save eliminated.
 523:main.cpp      **** 	
 2532              		.loc 11 523 3 view .LVU783
 526:main.cpp      **** 	
 2533              		.loc 11 526 3 view .LVU784
 526:main.cpp      **** 	
 2534              		.loc 11 526 62 is_stmt 0 view .LVU785
 2535 0000 00F10050 		add	r0, r0, #536870912
 2536              	.LVL113:
 526:main.cpp      **** 	
 2537              		.loc 11 526 14 view .LVU786
 2538 0004 0088     		ldrh	r0, [r0]
 2539              	.LVL114:
 528:main.cpp      **** }
 2540              		.loc 11 528 3 is_stmt 1 view .LVU787
 529:main.cpp      **** 
 2541              		.loc 11 529 1 is_stmt 0 view .LVU788
 2542 0006 80B2     		uxth	r0, r0
 529:main.cpp      **** 
 2543              		.loc 11 529 1 view .LVU789
 2544 0008 7047     		bx	lr
 2545              		.cfi_endproc
 2546              	.LFE4799:
 2548 000a 00BF     		.section	.text._Z15SeqTimer_Configv,"ax",%progbits
 2549              		.align	1
 2550              		.p2align 2,,3
 2551              		.global	_Z15SeqTimer_Configv
 2552              		.syntax unified
 2553              		.thumb
 2554              		.thumb_func
 2555              		.fpu fpv5-d16
 2557              	_Z15SeqTimer_Configv:
 2558              	.LFB4801:
 536:main.cpp      **** 
 537:main.cpp      **** void SeqTimer_Config(void)
 538:main.cpp      **** {
 2559              		.loc 11 538 1 is_stmt 1 view -0
 2560              		.cfi_startproc
 2561              		@ args = 0, pretend = 0, frame = 24
 2562              		@ frame_needed = 0, uses_anonymous_args = 0
 539:main.cpp      **** 	/* Create Timer Handle and Config */
 540:main.cpp      ****     TimerHandle         tim5;
 2563              		.loc 11 540 5 view .LVU791
 538:main.cpp      **** 	/* Create Timer Handle and Config */
 2564              		.loc 11 538 1 is_stmt 0 view .LVU792
 2565 0000 10B5     		push	{r4, lr}
ARM GAS  C:\Users\jcjco\AppData\Local\Temp\ccocbARg.s 			page 84


 2566              		.cfi_def_cfa_offset 8
 2567              		.cfi_offset 4, -8
 2568              		.cfi_offset 14, -4
 541:main.cpp      ****     TimerHandle::Config tim_cfg;
 542:main.cpp      **** 
 543:main.cpp      ****     /** TIM5 with IRQ enabled */
 544:main.cpp      ****     tim_cfg.periph     = TimerHandle::Config::Peripheral::TIM_5;
 2569              		.loc 11 544 24 view .LVU793
 2570 0002 0322     		movs	r2, #3
 538:main.cpp      **** 	/* Create Timer Handle and Config */
 2571              		.loc 11 538 1 view .LVU794
 2572 0004 86B0     		sub	sp, sp, #24
 2573              		.cfi_def_cfa_offset 32
 2574              	.LVL115:
 2575              	.LBB382:
 2576              	.LBI382:
 2577              		.file 15 "../../libDaisy/src/per/tim.h"
   1:../../libDaisy/src/per/tim.h **** #pragma once
   2:../../libDaisy/src/per/tim.h **** #ifndef DSY_TIM_H
   3:../../libDaisy/src/per/tim.h **** #define DSY_TIM_H
   4:../../libDaisy/src/per/tim.h **** 
   5:../../libDaisy/src/per/tim.h **** #include <cstdint>
   6:../../libDaisy/src/per/tim.h **** 
   7:../../libDaisy/src/per/tim.h **** namespace daisy
   8:../../libDaisy/src/per/tim.h **** {
   9:../../libDaisy/src/per/tim.h **** /** @brief Hardare timer peripheral support.
  10:../../libDaisy/src/per/tim.h ****  ** 
  11:../../libDaisy/src/per/tim.h ****  ** Supports general-function TIM peripherals:
  12:../../libDaisy/src/per/tim.h ****  ** - TIM2, TIM3, TIM4, TIM5
  13:../../libDaisy/src/per/tim.h ****  **
  14:../../libDaisy/src/per/tim.h ****  ** DaisySeed, and many internal peripherals utilize TIM2 for timing/delay purposes.
  15:../../libDaisy/src/per/tim.h ****  ** It is configured to be at the maximum frequency: typically 200MHz or 240MHz (boost) 
  16:../../libDaisy/src/per/tim.h ****  ** for measuring/delaying for very short periods. 
  17:../../libDaisy/src/per/tim.h ****  **
  18:../../libDaisy/src/per/tim.h ****  ** The GetUs/GetMs functions are available for convenience (and backwards compatibility),
  19:../../libDaisy/src/per/tim.h ****  ** but to avoid wrapping errors on math when doing time-delta calculations, using ticks is 
  20:../../libDaisy/src/per/tim.h ****  ** recommended. The data can be converted to the final time-base after getting the difference in t
  21:../../libDaisy/src/per/tim.h ****  ** (Using GetFreq() can be used for these time-base calculations).
  22:../../libDaisy/src/per/tim.h ****  **
  23:../../libDaisy/src/per/tim.h ****  ** User callbacks can be set, and changed at any point during operation. However,
  24:../../libDaisy/src/per/tim.h ****  ** the Config::enable_irq must be set to true when initializing for the interrupts
  25:../../libDaisy/src/per/tim.h ****  ** to turn on and function.
  26:../../libDaisy/src/per/tim.h ****  **
  27:../../libDaisy/src/per/tim.h ****  ** @todo Fix issues with realtime getters, and wrapping of the timer(s).
  28:../../libDaisy/src/per/tim.h ****  **     - This very noticeable with default settings for the 16-bit counters.
  29:../../libDaisy/src/per/tim.h ****  ** @todo Other General purpose timers
  30:../../libDaisy/src/per/tim.h ****  ** @todo Non-internal clock sources
  31:../../libDaisy/src/per/tim.h ****  ** @todo Use of the four-tim channels per tim
  32:../../libDaisy/src/per/tim.h ****  **     - PWM, etc.
  33:../../libDaisy/src/per/tim.h ****  **     - InputCapture/OutputCompare, etc.
  34:../../libDaisy/src/per/tim.h ****  ** @todo HRTIM
  35:../../libDaisy/src/per/tim.h ****  ** @todo Advanced timers (TIM1/TIM8)
  36:../../libDaisy/src/per/tim.h ****  ** */
  37:../../libDaisy/src/per/tim.h **** class TimerHandle
  38:../../libDaisy/src/per/tim.h **** {
  39:../../libDaisy/src/per/tim.h ****   public:
  40:../../libDaisy/src/per/tim.h ****     /** @brief Configuration struct for the Peripheral
ARM GAS  C:\Users\jcjco\AppData\Local\Temp\ccocbARg.s 			page 85


  41:../../libDaisy/src/per/tim.h ****      *  @note These settings are used during initialization
  42:../../libDaisy/src/per/tim.h ****      *   and changing them afterwards may not have the desired effect.
  43:../../libDaisy/src/per/tim.h ****      */
  44:../../libDaisy/src/per/tim.h ****     struct Config
  45:../../libDaisy/src/per/tim.h ****     {
  46:../../libDaisy/src/per/tim.h ****         /** @brief Hardware Timer to configure, and use. */
  47:../../libDaisy/src/per/tim.h ****         enum class Peripheral
  48:../../libDaisy/src/per/tim.h ****         {
  49:../../libDaisy/src/per/tim.h ****             TIM_2 = 0, /**< 32-bit counter */
  50:../../libDaisy/src/per/tim.h ****             TIM_3,     /**< 16-bit counter */
  51:../../libDaisy/src/per/tim.h ****             TIM_4,     /**< 16-bit counter */
  52:../../libDaisy/src/per/tim.h ****             TIM_5,     /**< 32-bit counter*/
  53:../../libDaisy/src/per/tim.h ****         };
  54:../../libDaisy/src/per/tim.h **** 
  55:../../libDaisy/src/per/tim.h ****         /** @brief Direction of the auto-reload counter. 
  56:../../libDaisy/src/per/tim.h ****          ** @todo Add support for the various  
  57:../../libDaisy/src/per/tim.h ****          ** versions of Up/Down counters.
  58:../../libDaisy/src/per/tim.h ****          ** */
  59:../../libDaisy/src/per/tim.h ****         enum class CounterDir
  60:../../libDaisy/src/per/tim.h ****         {
  61:../../libDaisy/src/per/tim.h ****             UP = 0,
  62:../../libDaisy/src/per/tim.h ****             DOWN,
  63:../../libDaisy/src/per/tim.h ****         };
  64:../../libDaisy/src/per/tim.h **** 
  65:../../libDaisy/src/per/tim.h ****         Peripheral periph; /**< Hardware Peripheral */
  66:../../libDaisy/src/per/tim.h ****         CounterDir dir;    /**< Counter direction */
  67:../../libDaisy/src/per/tim.h **** 
  68:../../libDaisy/src/per/tim.h ****         /** @brief period in ticks at TIM frequency that counter will reset based on dir
  69:../../libDaisy/src/per/tim.h ****          *  @note TIM3 and TIM4 are both 16-bit timers. So the period maximum is 0xffff.
  70:../../libDaisy/src/per/tim.h ****         */
  71:../../libDaisy/src/per/tim.h ****         uint32_t period;
  72:../../libDaisy/src/per/tim.h ****         bool     enable_irq; /**< Enable interrupt for user based callback */
  73:../../libDaisy/src/per/tim.h **** 
  74:../../libDaisy/src/per/tim.h ****         /* @brief Constructor for default states */
  75:../../libDaisy/src/per/tim.h ****         Config()
  76:../../libDaisy/src/per/tim.h ****         : periph(Peripheral::TIM_2),
  77:../../libDaisy/src/per/tim.h ****           dir(CounterDir::UP),
  78:../../libDaisy/src/per/tim.h ****           period(0xffffffff),
  79:../../libDaisy/src/per/tim.h ****           enable_irq(false)
  80:../../libDaisy/src/per/tim.h ****         {
  81:../../libDaisy/src/per/tim.h ****         }
  82:../../libDaisy/src/per/tim.h ****     };
  83:../../libDaisy/src/per/tim.h **** 
  84:../../libDaisy/src/per/tim.h ****     /** @brief Return values for TIM funcitons. */
  85:../../libDaisy/src/per/tim.h ****     enum class Result
  86:../../libDaisy/src/per/tim.h ****     {
  87:../../libDaisy/src/per/tim.h ****         OK,
  88:../../libDaisy/src/per/tim.h ****         ERR,
  89:../../libDaisy/src/per/tim.h ****     };
  90:../../libDaisy/src/per/tim.h **** 
  91:../../libDaisy/src/per/tim.h ****     /** @brief User Callback type that will fire at the end of each timer 
  92:../../libDaisy/src/per/tim.h ****      *   period. This requires that Config::enable_irq is true before Init
  93:../../libDaisy/src/per/tim.h ****      *  @param data pointer to arbitrary user-provided data
  94:../../libDaisy/src/per/tim.h ****     */
  95:../../libDaisy/src/per/tim.h ****     typedef void (*PeriodElapsedCallback)(void* data);
  96:../../libDaisy/src/per/tim.h **** 
  97:../../libDaisy/src/per/tim.h ****     TimerHandle() : pimpl_(nullptr) {}
ARM GAS  C:\Users\jcjco\AppData\Local\Temp\ccocbARg.s 			page 86


 2578              		.loc 15 97 5 is_stmt 1 view .LVU795
 2579              	.LBB383:
 2580              	.LBB384:
 2581              		.loc 15 97 35 is_stmt 0 view .LVU796
 2582 0006 0024     		movs	r4, #0
 2583              	.LBE384:
 2584              	.LBE383:
 2585              	.LBE382:
 2586              	.LBB387:
 2587              	.LBB388:
 2588              	.LBB389:
  79:../../libDaisy/src/per/tim.h ****         {
 2589              		.loc 15 79 27 view .LVU797
 2590 0008 4FF0FF31 		mov	r1, #-1
 2591              	.LBE389:
 2592              	.LBE388:
 2593              	.LBE387:
 545:main.cpp      ****     tim_cfg.enable_irq = true;
 2594              		.loc 11 545 24 view .LVU798
 2595 000c 0123     		movs	r3, #1
 544:main.cpp      ****     tim_cfg.enable_irq = true;
 2596              		.loc 11 544 24 view .LVU799
 2597 000e 0292     		str	r2, [sp, #8]
 2598              	.LBB392:
 2599              	.LBB386:
 2600              	.LBB385:
 2601              		.loc 15 97 35 view .LVU800
 2602 0010 0194     		str	r4, [sp, #4]
 2603              	.LVL116:
 2604              		.loc 15 97 35 view .LVU801
 2605              	.LBE385:
 2606              	.LBE386:
 2607              	.LBE392:
 541:main.cpp      **** 
 2608              		.loc 11 541 5 is_stmt 1 view .LVU802
 2609              	.LBB393:
 2610              	.LBI387:
  75:../../libDaisy/src/per/tim.h ****         : periph(Peripheral::TIM_2),
 2611              		.loc 15 75 9 view .LVU803
 2612              	.LBE393:
 2613              		.loc 11 545 24 is_stmt 0 view .LVU804
 2614 0012 8DF81430 		strb	r3, [sp, #20]
 2615              	.LBB394:
 2616              	.LBB391:
 2617              	.LBB390:
  79:../../libDaisy/src/per/tim.h ****         {
 2618              		.loc 15 79 27 view .LVU805
 2619 0016 CDE90341 		strd	r4, r1, [sp, #12]
 2620              	.LVL117:
  79:../../libDaisy/src/per/tim.h ****         {
 2621              		.loc 15 79 27 view .LVU806
 2622              	.LBE390:
 2623              	.LBE391:
 2624              	.LBE394:
 544:main.cpp      ****     tim_cfg.enable_irq = true;
 2625              		.loc 11 544 5 is_stmt 1 view .LVU807
 2626              		.loc 11 545 5 view .LVU808
ARM GAS  C:\Users\jcjco\AppData\Local\Temp\ccocbARg.s 			page 87


 546:main.cpp      **** 
 547:main.cpp      ****     /** Configure frequency (240Hz) */
 548:main.cpp      ****     auto tim_target_freq = 240;
 2627              		.loc 11 548 5 view .LVU809
 549:main.cpp      ****     auto tim_base_freq   = System::GetPClk2Freq();
 2628              		.loc 11 549 5 view .LVU810
 2629              		.loc 11 549 48 is_stmt 0 view .LVU811
 2630 001a FFF7FEFF 		bl	_ZN5daisy6System12GetPClk2FreqEv
 2631              	.LVL118:
 550:main.cpp      ****     tim_cfg.period       = tim_base_freq / tim_target_freq;
 2632              		.loc 11 550 42 view .LVU812
 2633 001e 094B     		ldr	r3, .L156
 551:main.cpp      **** 
 552:main.cpp      ****     /** Initialize timer */
 553:main.cpp      ****     tim5.Init(tim_cfg);
 2634              		.loc 11 553 14 view .LVU813
 2635 0020 02A9     		add	r1, sp, #8
 2636              	.LVL119:
 550:main.cpp      ****     tim_cfg.period       = tim_base_freq / tim_target_freq;
 2637              		.loc 11 550 5 is_stmt 1 view .LVU814
 550:main.cpp      ****     tim_cfg.period       = tim_base_freq / tim_target_freq;
 2638              		.loc 11 550 42 is_stmt 0 view .LVU815
 2639 0022 A3FB0030 		umull	r3, r0, r3, r0
 2640              	.LVL120:
 550:main.cpp      ****     tim_cfg.period       = tim_base_freq / tim_target_freq;
 2641              		.loc 11 550 42 view .LVU816
 2642 0026 C009     		lsrs	r0, r0, #7
 550:main.cpp      ****     tim_cfg.period       = tim_base_freq / tim_target_freq;
 2643              		.loc 11 550 26 view .LVU817
 2644 0028 0490     		str	r0, [sp, #16]
 2645              		.loc 11 553 5 is_stmt 1 view .LVU818
 2646              		.loc 11 553 14 is_stmt 0 view .LVU819
 2647 002a 01A8     		add	r0, sp, #4
 2648 002c FFF7FEFF 		bl	_ZN5daisy11TimerHandle4InitERKNS0_6ConfigE
 2649              	.LVL121:
 554:main.cpp      ****     tim5.SetCallback(Callback);
 2650              		.loc 11 554 5 is_stmt 1 view .LVU820
 2651              		.loc 11 554 21 is_stmt 0 view .LVU821
 2652 0030 2246     		mov	r2, r4
 2653 0032 0549     		ldr	r1, .L156+4
 2654 0034 01A8     		add	r0, sp, #4
 2655 0036 FFF7FEFF 		bl	_ZN5daisy11TimerHandle11SetCallbackEPFvPvES1_
 2656              	.LVL122:
 555:main.cpp      **** 
 556:main.cpp      ****     /** Start the timer, and generate callbacks at the end of each period */
 557:main.cpp      ****     tim5.Start();
 2657              		.loc 11 557 5 is_stmt 1 view .LVU822
 2658              		.loc 11 557 15 is_stmt 0 view .LVU823
 2659 003a 01A8     		add	r0, sp, #4
 2660 003c FFF7FEFF 		bl	_ZN5daisy11TimerHandle5StartEv
 2661              	.LVL123:
 2662              	.LBB395:
 2663              	.LBI395:
  98:../../libDaisy/src/per/tim.h ****     TimerHandle(const TimerHandle& other) = default;
  99:../../libDaisy/src/per/tim.h ****     TimerHandle& operator=(const TimerHandle& other) = default;
 100:../../libDaisy/src/per/tim.h ****     ~TimerHandle() {}
 2664              		.loc 15 100 5 is_stmt 1 view .LVU824
ARM GAS  C:\Users\jcjco\AppData\Local\Temp\ccocbARg.s 			page 88


 2665              		.loc 15 100 5 is_stmt 0 view .LVU825
 2666              	.LBE395:
 558:main.cpp      **** }
 2667              		.loc 11 558 1 view .LVU826
 2668 0040 06B0     		add	sp, sp, #24
 2669              		.cfi_def_cfa_offset 8
 2670              		@ sp needed
 2671 0042 10BD     		pop	{r4, pc}
 2672              	.L157:
 2673              		.align	2
 2674              	.L156:
 2675 0044 89888888 		.word	-2004318071
 2676 0048 00000000 		.word	_Z8CallbackPv
 2677              		.cfi_endproc
 2678              	.LFE4801:
 2680              		.section	.text._ZN5daisy11MidiHandlerINS_16MidiUsbTransportEE5ParseEh,"axG",%progbits,_ZN5daisy11M
 2681              		.align	1
 2682              		.p2align 2,,3
 2683              		.weak	_ZN5daisy11MidiHandlerINS_16MidiUsbTransportEE5ParseEh
 2684              		.syntax unified
 2685              		.thumb
 2686              		.thumb_func
 2687              		.fpu fpv5-d16
 2689              	_ZN5daisy11MidiHandlerINS_16MidiUsbTransportEE5ParseEh:
 2690              	.LVL124:
 2691              	.LFB5240:
  86:../../libDaisy/src/hid/midi.h **** 
  87:../../libDaisy/src/hid/midi.h ****     struct Config
  88:../../libDaisy/src/hid/midi.h ****     {
  89:../../libDaisy/src/hid/midi.h ****         typename Transport::Config transport_config;
  90:../../libDaisy/src/hid/midi.h ****     };
  91:../../libDaisy/src/hid/midi.h **** 
  92:../../libDaisy/src/hid/midi.h ****     /** Initializes the MidiHandler 
  93:../../libDaisy/src/hid/midi.h ****      *  \param config Configuration structure used to define specifics to the MIDI Handler.
  94:../../libDaisy/src/hid/midi.h ****      */
  95:../../libDaisy/src/hid/midi.h ****     void Init(Config config)
  96:../../libDaisy/src/hid/midi.h ****     {
  97:../../libDaisy/src/hid/midi.h ****         config_ = config;
  98:../../libDaisy/src/hid/midi.h **** 
  99:../../libDaisy/src/hid/midi.h ****         transport_.Init(config_.transport_config);
 100:../../libDaisy/src/hid/midi.h **** 
 101:../../libDaisy/src/hid/midi.h ****         event_q_.Init();
 102:../../libDaisy/src/hid/midi.h ****         incoming_message_.type = MessageLast;
 103:../../libDaisy/src/hid/midi.h ****         pstate_                = ParserEmpty;
 104:../../libDaisy/src/hid/midi.h ****     }
 105:../../libDaisy/src/hid/midi.h **** 
 106:../../libDaisy/src/hid/midi.h ****     /** Starts listening on the selected input mode(s). MidiEvent Queue will begin to fill, and can
 107:../../libDaisy/src/hid/midi.h ****     void StartReceive() { transport_.StartRx(); }
 108:../../libDaisy/src/hid/midi.h **** 
 109:../../libDaisy/src/hid/midi.h ****     /** Start listening */
 110:../../libDaisy/src/hid/midi.h ****     void Listen()
 111:../../libDaisy/src/hid/midi.h ****     {
 112:../../libDaisy/src/hid/midi.h ****         uint32_t now;
 113:../../libDaisy/src/hid/midi.h ****         now = System::GetNow();
 114:../../libDaisy/src/hid/midi.h ****         while(transport_.Readable())
 115:../../libDaisy/src/hid/midi.h ****         {
 116:../../libDaisy/src/hid/midi.h ****             last_read_ = now;
ARM GAS  C:\Users\jcjco\AppData\Local\Temp\ccocbARg.s 			page 89


 117:../../libDaisy/src/hid/midi.h ****             Parse(transport_.Rx());
 118:../../libDaisy/src/hid/midi.h ****         }
 119:../../libDaisy/src/hid/midi.h **** 
 120:../../libDaisy/src/hid/midi.h ****         // In case of UART Error, (particularly
 121:../../libDaisy/src/hid/midi.h ****         //  overrun error), UART disables itself.
 122:../../libDaisy/src/hid/midi.h ****         // Flush the buff, and restart.
 123:../../libDaisy/src/hid/midi.h ****         if(!transport_.RxActive())
 124:../../libDaisy/src/hid/midi.h ****         {
 125:../../libDaisy/src/hid/midi.h ****             pstate_ = ParserEmpty;
 126:../../libDaisy/src/hid/midi.h ****             transport_.FlushRx();
 127:../../libDaisy/src/hid/midi.h ****             StartReceive();
 128:../../libDaisy/src/hid/midi.h ****         }
 129:../../libDaisy/src/hid/midi.h ****     }
 130:../../libDaisy/src/hid/midi.h **** 
 131:../../libDaisy/src/hid/midi.h ****     /** Checks if there are unhandled messages in the queue 
 132:../../libDaisy/src/hid/midi.h ****     \return True if there are events to be handled, else false.
 133:../../libDaisy/src/hid/midi.h ****      */
 134:../../libDaisy/src/hid/midi.h ****     bool HasEvents() const { return event_q_.readable(); }
 135:../../libDaisy/src/hid/midi.h **** 
 136:../../libDaisy/src/hid/midi.h **** 
 137:../../libDaisy/src/hid/midi.h ****     /** Pops the oldest unhandled MidiEvent from the internal queue
 138:../../libDaisy/src/hid/midi.h ****     \return The event to be handled
 139:../../libDaisy/src/hid/midi.h ****      */
 140:../../libDaisy/src/hid/midi.h ****     MidiEvent PopEvent() { return event_q_.Read(); }
 141:../../libDaisy/src/hid/midi.h **** 
 142:../../libDaisy/src/hid/midi.h ****     /** SendMessage
 143:../../libDaisy/src/hid/midi.h ****     Send raw bytes as message
 144:../../libDaisy/src/hid/midi.h ****     */
 145:../../libDaisy/src/hid/midi.h ****     void SendMessage(uint8_t* bytes, size_t size)
 146:../../libDaisy/src/hid/midi.h ****     {
 147:../../libDaisy/src/hid/midi.h ****         transport_.Tx(bytes, size);
 148:../../libDaisy/src/hid/midi.h ****     }
 149:../../libDaisy/src/hid/midi.h **** 
 150:../../libDaisy/src/hid/midi.h ****     /** Feed in bytes to state machine from a queue.
 151:../../libDaisy/src/hid/midi.h ****     Populates internal FIFO queue with MIDI Messages
 152:../../libDaisy/src/hid/midi.h ****     For example with uart:
 153:../../libDaisy/src/hid/midi.h ****     midi.Parse(uart.PopRx());
 154:../../libDaisy/src/hid/midi.h ****     \param byte &
 155:../../libDaisy/src/hid/midi.h ****     */
 156:../../libDaisy/src/hid/midi.h ****     void Parse(uint8_t byte)
 2692              		.loc 8 156 10 is_stmt 1 view -0
 2693              		.cfi_startproc
 2694              		@ args = 0, pretend = 0, frame = 288
 2695              		@ frame_needed = 0, uses_anonymous_args = 0
 2696              		.loc 8 156 10 is_stmt 0 view .LVU828
 2697 0000 2DE9F041 		push	{r4, r5, r6, r7, r8, lr}
 2698              		.cfi_def_cfa_offset 24
 2699              		.cfi_offset 4, -24
 2700              		.cfi_offset 5, -20
 2701              		.cfi_offset 6, -16
 2702              		.cfi_offset 7, -12
 2703              		.cfi_offset 8, -8
 2704              		.cfi_offset 14, -4
 157:../../libDaisy/src/hid/midi.h ****     {
 158:../../libDaisy/src/hid/midi.h ****         // reset parser when status byte is received
 159:../../libDaisy/src/hid/midi.h ****         if((byte & kStatusByteMask) && pstate_ != ParserSysEx)
 2705              		.loc 8 159 20 view .LVU829
ARM GAS  C:\Users\jcjco\AppData\Local\Temp\ccocbARg.s 			page 90


 2706 0004 00F51044 		add	r4, r0, #36864
 156:../../libDaisy/src/hid/midi.h ****     {
 2707              		.loc 8 156 10 view .LVU830
 2708 0008 C8B0     		sub	sp, sp, #288
 2709              		.cfi_def_cfa_offset 312
 156:../../libDaisy/src/hid/midi.h ****     {
 2710              		.loc 8 156 10 view .LVU831
 2711 000a 0546     		mov	r5, r0
 2712              		.loc 8 159 18 view .LVU832
 2713 000c 94F8AC30 		ldrb	r3, [r4, #172]	@ zero_extendqisi2
 2714              		.loc 8 159 9 view .LVU833
 2715 0010 1942     		tst	r1, r3
 2716              		.loc 8 159 37 view .LVU834
 2717 0012 0379     		ldrb	r3, [r0, #4]	@ zero_extendqisi2
 2718              		.loc 8 159 9 view .LVU835
 2719 0014 18D0     		beq	.L159
 2720              		.loc 8 159 37 discriminator 1 view .LVU836
 2721 0016 032B     		cmp	r3, #3
 2722 0018 1CD0     		beq	.L160
 160:../../libDaisy/src/hid/midi.h ****         {
 161:../../libDaisy/src/hid/midi.h ****             pstate_ = ParserEmpty;
 2723              		.loc 8 161 21 view .LVU837
 2724 001a 0022     		movs	r2, #0
 2725 001c 0271     		strb	r2, [r0, #4]
 162:../../libDaisy/src/hid/midi.h ****         }
 163:../../libDaisy/src/hid/midi.h ****         switch(pstate_)
